
elfloader_nvcom01mem3u.o:     file format elf32-littlemips


Disassembly of section .text:

bfc00000 <_start>:
bfc00000:	3c1eb82f 	lui	s8,0xb82f
bfc00004:	34058e90 	li	a1,0x8e90
bfc00008:	afc54000 	sw	a1,16384(s8)
bfc0000c:	24050000 	li	a1,0
bfc00010:	afc5407c 	sw	a1,16508(s8)
bfc00014:	2405ffff 	li	a1,-1
bfc00018:	afc54004 	sw	a1,16388(s8)
bfc0001c:	3c1db800 	lui	sp,0xb800
bfc00020:	37bd2000 	ori	sp,sp,0x2000
bfc00024:	3c05bfc0 	lui	a1,0xbfc0
bfc00028:	34a50800 	ori	a1,a1,0x800
bfc0002c:	00000000 	nop

bfc00030 <loadelf>:
bfc00030:	03e0f021 	move	s8,ra
bfc00034:	10a00047 	beqz	a1,bfc00154 <exit>
bfc00038:	00000000 	nop
bfc0003c:	8ca40000 	lw	a0,0(a1)
bfc00040:	00000000 	nop
bfc00044:	3c01464c 	lui	at,0x464c
bfc00048:	3421457f 	ori	at,at,0x457f
bfc0004c:	14810041 	bne	a0,at,bfc00154 <exit>
bfc00050:	00000000 	nop
bfc00054:	84a40010 	lh	a0,16(a1)
bfc00058:	00000000 	nop
bfc0005c:	24010002 	li	at,2
bfc00060:	1481003c 	bne	a0,at,bfc00154 <exit>
bfc00064:	00000000 	nop
bfc00068:	84a40012 	lh	a0,18(a1)
bfc0006c:	00000000 	nop
bfc00070:	24010008 	li	at,8
bfc00074:	14810037 	bne	a0,at,bfc00154 <exit>
bfc00078:	00000000 	nop
bfc0007c:	84a40028 	lh	a0,40(a1)
bfc00080:	00000000 	nop
bfc00084:	24010034 	li	at,52
bfc00088:	14810032 	bne	a0,at,bfc00154 <exit>
bfc0008c:	00000000 	nop
bfc00090:	84a4002a 	lh	a0,42(a1)
bfc00094:	00000000 	nop
bfc00098:	24010020 	li	at,32
bfc0009c:	1481002d 	bne	a0,at,bfc00154 <exit>
bfc000a0:	00000000 	nop
bfc000a4:	8ca4001c 	lw	a0,28(a1)
bfc000a8:	00000000 	nop
bfc000ac:	0085a820 	add	s5,a0,a1
bfc000b0:	8ca40020 	lw	a0,32(a1)
bfc000b4:	00000000 	nop
bfc000b8:	0085a020 	add	s4,a0,a1
bfc000bc:	84ac0030 	lh	t4,48(a1)
bfc000c0:	00000000 	nop
bfc000c4:	02804021 	move	t0,s4
bfc000c8:	8d02000c 	lw	v0,12(t0)
bfc000cc:	00000000 	nop
bfc000d0:	1040001c 	beqz	v0,bfc00144 <copy_section+0x2c>
bfc000d4:	00000000 	nop
bfc000d8:	8d020004 	lw	v0,4(t0)
bfc000dc:	00000000 	nop
bfc000e0:	24010008 	li	at,8
bfc000e4:	1441000c 	bne	v0,at,bfc00118 <copy_section>
bfc000e8:	00000000 	nop
bfc000ec:	8d04000c 	lw	a0,12(t0)
bfc000f0:	00000000 	nop
bfc000f4:	00002821 	move	a1,zero
bfc000f8:	8d060014 	lw	a2,20(t0)
bfc000fc:	00000000 	nop
bfc00100:	0ff0005a 	jal	bfc00168 <wmemset>
bfc00104:	00000000 	nop
bfc00108:	3c05bfc0 	lui	a1,0xbfc0
bfc0010c:	34a50800 	ori	a1,a1,0x800
bfc00110:	1000000c 	b	bfc00144 <copy_section+0x2c>
bfc00114:	00000000 	nop

bfc00118 <copy_section>:
bfc00118:	8d04000c 	lw	a0,12(t0)
bfc0011c:	00000000 	nop
bfc00120:	8d020010 	lw	v0,16(t0)
bfc00124:	00000000 	nop
bfc00128:	00a22820 	add	a1,a1,v0
bfc0012c:	8d060014 	lw	a2,20(t0)
bfc00130:	00000000 	nop
bfc00134:	0ff0006f 	jal	bfc001bc <wmemcpy>
bfc00138:	00000000 	nop
bfc0013c:	3c05bfc0 	lui	a1,0xbfc0
bfc00140:	34a50800 	ori	a1,a1,0x800
bfc00144:	258cffff 	addiu	t4,t4,-1
bfc00148:	25080028 	addiu	t0,t0,40
bfc0014c:	1580ffde 	bnez	t4,bfc000c8 <loadelf+0x98>
bfc00150:	00000000 	nop

bfc00154 <exit>:
bfc00154:	8ca40018 	lw	a0,24(a1)
	...
bfc00160:	00800008 	jr	a0
bfc00164:	00000000 	nop

bfc00168 <wmemset>:
bfc00168:	0080c021 	move	t8,a0
bfc0016c:	00a0c821 	move	t9,a1
bfc00170:	00c0d021 	move	k0,a2
bfc00174:	10c0000c 	beqz	a2,bfc001a8 <wmemset+0x40>
bfc00178:	00000000 	nop
bfc0017c:	00052882 	srl	a1,a1,0x2
bfc00180:	00052880 	sll	a1,a1,0x2
bfc00184:	00042082 	srl	a0,a0,0x2
bfc00188:	00042080 	sll	a0,a0,0x2
bfc0018c:	00063082 	srl	a2,a2,0x2
bfc00190:	24c60001 	addiu	a2,a2,1
bfc00194:	ac850000 	sw	a1,0(a0)
bfc00198:	24c6ffff 	addiu	a2,a2,-1
bfc0019c:	24840004 	addiu	a0,a0,4
bfc001a0:	14c0fffc 	bnez	a2,bfc00194 <wmemset+0x2c>
bfc001a4:	00000000 	nop
bfc001a8:	03002021 	move	a0,t8
bfc001ac:	03202821 	move	a1,t9
bfc001b0:	03403021 	move	a2,k0
bfc001b4:	03e00008 	jr	ra
bfc001b8:	00000000 	nop

bfc001bc <wmemcpy>:
bfc001bc:	10c00013 	beqz	a2,bfc0020c <wmemcpy+0x50>
bfc001c0:	00000000 	nop
bfc001c4:	0080c021 	move	t8,a0
bfc001c8:	00a0c821 	move	t9,a1
bfc001cc:	00c0d021 	move	k0,a2
bfc001d0:	00052882 	srl	a1,a1,0x2
bfc001d4:	00052880 	sll	a1,a1,0x2
bfc001d8:	00042082 	srl	a0,a0,0x2
bfc001dc:	00042080 	sll	a0,a0,0x2
bfc001e0:	00063082 	srl	a2,a2,0x2
bfc001e4:	24c60001 	addiu	a2,a2,1
bfc001e8:	8ca20000 	lw	v0,0(a1)
	...
bfc001f4:	24a50004 	addiu	a1,a1,4
bfc001f8:	24c6ffff 	addiu	a2,a2,-1
bfc001fc:	ac820000 	sw	v0,0(a0)
bfc00200:	24840004 	addiu	a0,a0,4
bfc00204:	14c0fff8 	bnez	a2,bfc001e8 <wmemcpy+0x2c>
bfc00208:	00000000 	nop
bfc0020c:	03e00008 	jr	ra
bfc00210:	00000000 	nop
	...
bfc00220:	e0301176 	sc	s0,4470(at)
	...
bfc00234:	00007fef 	0x7fef

Disassembly of section .pdr:

00000000 <.pdr>:
   0:	bfc00168 	cache	0x0,360(s8)
	...
  20:	bfc001bc 	cache	0x0,444(s8)
	...

Disassembly of section .debug_line:

00000000 <.debug_line>:
   0:	00000073 	tltu	zero,zero,0x1
   4:	001d0002 	srl	zero,sp,0x0
   8:	01010000 	0x1010000
   c:	000d0efb 	0xd0efb
  10:	01010101 	0x1010101
  14:	01000000 	0x1000000
  18:	00010000 	sll	zero,at,0x0
  1c:	6e69616d 	0x6e69616d
  20:	0000732e 	0x732e
  24:	00000000 	nop
  28:	00000205 	0x205
  2c:	9e03bfc0 	0x9e03bfc0
  30:	4b4b0101 	c2	0x14b0101
  34:	4b4b4b4b 	c2	0x14b4b4b
  38:	834a0903 	lb	t2,2307(k0)
  3c:	4b4b5183 	c2	0x14b5183
  40:	4cbb834c 	0x4cbb834c
  44:	834c8383 	lb	t4,-31869(k0)
  48:	83834c83 	lb	v1,19587(gp)
  4c:	4c83834c 	0x4c83834c
  50:	4e834c83 	c3	0x834c83
  54:	4b834c83 	c2	0x1834c83
  58:	4c83834b 	0x4c83834b
  5c:	4b834b83 	c2	0x1834b83
  60:	4d4b834c 	0x4d4b834c
  64:	844b8383 	lh	t3,-31869(v0)
  68:	4b844b4b 	c2	0x1844b4b
  6c:	834e4b4b 	lb	t6,19275(k0)
  70:	04024b4c 	bltzl	zero,12da4 <ET_HIPROC+0x2da5>
  74:	64010100 	0x64010100
  78:	02000000 	0x2000000
  7c:	00001f00 	sll	v1,zero,0x1c
  80:	fb010100 	sdc2	$1,256(t8)
  84:	01000d0e 	0x1000d0e
  88:	00010101 	0x10101
  8c:	00010000 	sll	zero,at,0x0
  90:	5f000100 	bgtzl	t8,494 <ELFMAG0+0x415>
  94:	6c697475 	0x6c697475
  98:	00732e73 	tltu	v1,s3,0xb9
  9c:	00000000 	nop
  a0:	68020500 	0x68020500
  a4:	03bfc001 	0x3bfc001
  a8:	4b4b0111 	c2	0x14b0111
  ac:	4b4c4b4b 	c2	0x14c4b4b
  b0:	4b4c4b4c 	c2	0x14c4b4c
  b4:	4b4b4b4c 	c2	0x14b4b4c
  b8:	4b4b4c4b 	c2	0x14b4c4b
  bc:	11034b4c 	beq	t0,v1,12df0 <ET_HIPROC+0x2df1>
  c0:	4b4b4b4a 	c2	0x14b4b4a
  c4:	4c4b4d4b 	0x4c4b4d4b
  c8:	4c4b4c4b 	0x4c4b4c4b
  cc:	4b4b4b83 	c2	0x14b4b83
  d0:	034b4b4b 	0x34b4b4b
  d4:	4c4b4a1b 	0x4c4b4a1b
  d8:	04024b4b 	bltzl	zero,12e08 <ET_HIPROC+0x2e09>
  dc:	Address 0x00000000000000dc is out of bounds.


Disassembly of section .debug_info:

00000000 <.debug_info>:
   0:	00000053 	mtlhx	zero
   4:	00000002 	srl	zero,zero,0x0
   8:	01040000 	0x1040000
   c:	00000000 	nop
  10:	bfc00000 	cache	0x0,0(s8)
  14:	bfc00168 	cache	0x0,360(s8)
  18:	6e69616d 	0x6e69616d
  1c:	6300732e 	0x6300732e
  20:	6f775c3a 	0x6f775c3a
  24:	705c6b72 	0x705c6b72
  28:	656a6f72 	0x656a6f72
  2c:	6d5f7463 	0x6d5f7463
  30:	6d5c3435 	0x6d5c3435
  34:	655f3435 	0x655f3435
  38:	7369766c 	0x7369766c
  3c:	666c655c 	0x666c655c
  40:	64616f6c 	0x64616f6c
  44:	47007265 	c1	0x1007265
  48:	4120554e 	0x4120554e
  4c:	2e322053 	sltiu	s2,s1,8275
  50:	322e3332 	andi	t6,s1,0x3332
  54:	55800100 	bnezl	t4,458 <ELFMAG0+0x3d9>
  58:	02000000 	0x2000000
  5c:	00001400 	sll	v0,zero,0x10
  60:	77010400 	jalx	c041000 <ET_HIPROC+0xc031001>
  64:	68000000 	0x68000000
  68:	20bfc001 	addi	ra,a1,-16383
  6c:	5fbfc002 	0x5fbfc002
  70:	6c697475 	0x6c697475
  74:	00732e73 	tltu	v1,s3,0xb9
  78:	775c3a63 	jalx	d70e98c <ET_HIPROC+0xd6fe98d>
  7c:	5c6b726f 	0x5c6b726f
  80:	6a6f7270 	0x6a6f7270
  84:	5f746365 	0x5f746365
  88:	5c34356d 	0x5c34356d
  8c:	5f34356d 	0x5f34356d
  90:	69766c65 	0x69766c65
  94:	6c655c73 	0x6c655c73
  98:	616f6c66 	0x616f6c66
  9c:	00726564 	0x726564
  a0:	20554e47 	addi	s5,v0,20039
  a4:	32205341 	andi	zero,s1,0x5341
  a8:	2e33322e 	sltiu	s3,s1,12846
  ac:	80010032 	lb	at,50(zero)

Disassembly of section .debug_abbrev:

00000000 <.debug_abbrev>:
   0:	10001101 	b	4408 <CR_PLL1+0x38c>
   4:	12011106 	beq	s0,at,4420 <CR_PLL1+0x3a4>
   8:	1b080301 	0x1b080301
   c:	13082508 	beq	t8,t0,9430 <CR_PLL1+0x53b4>
  10:	00000005 	0x5
  14:	10001101 	b	441c <CR_PLL1+0x3a0>
  18:	12011106 	beq	s0,at,4434 <CR_PLL1+0x3b8>
  1c:	1b080301 	0x1b080301
  20:	13082508 	beq	t8,t0,9444 <CR_PLL1+0x53c8>
  24:	00000005 	0x5

Disassembly of section .debug_aranges:

00000000 <.debug_aranges>:
   0:	0000001c 	0x1c
   4:	00000002 	srl	zero,zero,0x0
   8:	00040000 	sll	zero,a0,0x0
   c:	00000000 	nop
  10:	bfc00000 	cache	0x0,0(s8)
  14:	00000168 	0x168
	...
  20:	0000001c 	0x1c
  24:	00570002 	0x570002
  28:	00040000 	sll	zero,a0,0x0
  2c:	00000000 	nop
  30:	bfc00168 	cache	0x0,360(s8)
  34:	000000b8 	0xb8
	...
