
tfc11_swic.o:     file format elf32-littlemips


Disassembly of section .textI_text:

b8000180 <Interrupt>:
b8000180:	27bdff6c 	addiu	sp,sp,-148
b8000184:	afa10000 	sw	at,0(sp)
b8000188:	afa20004 	sw	v0,4(sp)
b800018c:	afa30008 	sw	v1,8(sp)
b8000190:	afa4000c 	sw	a0,12(sp)
b8000194:	afa50010 	sw	a1,16(sp)
b8000198:	afa60014 	sw	a2,20(sp)
b800019c:	afa70018 	sw	a3,24(sp)
b80001a0:	afa8001c 	sw	t0,28(sp)
b80001a4:	afa90020 	sw	t1,32(sp)
b80001a8:	afaa0024 	sw	t2,36(sp)
b80001ac:	afab0028 	sw	t3,40(sp)
b80001b0:	afac002c 	sw	t4,44(sp)
b80001b4:	afad0030 	sw	t5,48(sp)
b80001b8:	afae0034 	sw	t6,52(sp)
b80001bc:	afaf0038 	sw	t7,56(sp)
b80001c0:	afb0003c 	sw	s0,60(sp)
b80001c4:	afb10040 	sw	s1,64(sp)
b80001c8:	afb20044 	sw	s2,68(sp)
b80001cc:	afb30048 	sw	s3,72(sp)
b80001d0:	afb4004c 	sw	s4,76(sp)
b80001d4:	afb50050 	sw	s5,80(sp)
b80001d8:	afb60054 	sw	s6,84(sp)
b80001dc:	afb70058 	sw	s7,88(sp)
b80001e0:	afb8005c 	sw	t8,92(sp)
b80001e4:	afb90060 	sw	t9,96(sp)
b80001e8:	afba0064 	sw	k0,100(sp)
b80001ec:	afbb0068 	sw	k1,104(sp)
b80001f0:	afbc006c 	sw	gp,108(sp)
b80001f4:	afbe0070 	sw	s8,112(sp)
b80001f8:	afbf0074 	sw	ra,116(sp)
b80001fc:	3c1ab801 	lui	k0,0xb801
b8000200:	275ab760 	addiu	k0,k0,-18592
b8000204:	0340f809 	jalr	k0
b8000208:	00000000 	nop
b800020c:	00000000 	nop
b8000210:	8fa10000 	lw	at,0(sp)
b8000214:	00000000 	nop
b8000218:	8fa20004 	lw	v0,4(sp)
b800021c:	00000000 	nop
b8000220:	8fa30008 	lw	v1,8(sp)
b8000224:	00000000 	nop
b8000228:	8fa4000c 	lw	a0,12(sp)
b800022c:	00000000 	nop
b8000230:	8fa50010 	lw	a1,16(sp)
b8000234:	00000000 	nop
b8000238:	8fa60014 	lw	a2,20(sp)
b800023c:	00000000 	nop
b8000240:	8fa70018 	lw	a3,24(sp)
b8000244:	00000000 	nop
b8000248:	8fa8001c 	lw	t0,28(sp)
b800024c:	00000000 	nop
b8000250:	8fa90020 	lw	t1,32(sp)
b8000254:	00000000 	nop
b8000258:	8faa0024 	lw	t2,36(sp)
b800025c:	00000000 	nop
b8000260:	8fab0028 	lw	t3,40(sp)
b8000264:	00000000 	nop
b8000268:	8fac002c 	lw	t4,44(sp)
b800026c:	00000000 	nop
b8000270:	8fad0030 	lw	t5,48(sp)
b8000274:	00000000 	nop
b8000278:	8fae0034 	lw	t6,52(sp)
b800027c:	00000000 	nop
b8000280:	8faf0038 	lw	t7,56(sp)
b8000284:	00000000 	nop
b8000288:	8fb0003c 	lw	s0,60(sp)
b800028c:	00000000 	nop
b8000290:	8fb10040 	lw	s1,64(sp)
b8000294:	00000000 	nop
b8000298:	8fb20044 	lw	s2,68(sp)
b800029c:	00000000 	nop
b80002a0:	8fb30048 	lw	s3,72(sp)
b80002a4:	00000000 	nop
b80002a8:	8fb4004c 	lw	s4,76(sp)
b80002ac:	00000000 	nop
b80002b0:	8fb50050 	lw	s5,80(sp)
b80002b4:	00000000 	nop
b80002b8:	8fb60054 	lw	s6,84(sp)
b80002bc:	00000000 	nop
b80002c0:	8fb70058 	lw	s7,88(sp)
b80002c4:	00000000 	nop
b80002c8:	8fb8005c 	lw	t8,92(sp)
b80002cc:	00000000 	nop
b80002d0:	8fb90060 	lw	t9,96(sp)
b80002d4:	00000000 	nop
b80002d8:	8fba0064 	lw	k0,100(sp)
b80002dc:	00000000 	nop
b80002e0:	8fbb0068 	lw	k1,104(sp)
b80002e4:	00000000 	nop
b80002e8:	8fbc006c 	lw	gp,108(sp)
b80002ec:	00000000 	nop
b80002f0:	8fbe0070 	lw	s8,112(sp)
b80002f4:	00000000 	nop
b80002f8:	8fbf0074 	lw	ra,116(sp)
b80002fc:	00000000 	nop
b8000300:	27bd0094 	addiu	sp,sp,148
b8000304:	42000018 	eret
b8000308:	00000000 	nop

Disassembly of section .text:

b8001000 <deregister_tm_clones>:
b8001000:	3c04b801 	lui	a0,0xb801
b8001004:	3c02b801 	lui	v0,0xb801
b8001008:	2484d2d8 	addiu	a0,a0,-11560
b800100c:	2442d2db 	addiu	v0,v0,-11557
b8001010:	00441023 	subu	v0,v0,a0
b8001014:	2c420007 	sltiu	v0,v0,7
b8001018:	14400007 	bnez	v0,b8001038 <deregister_tm_clones+0x38>
b800101c:	00000000 	nop
b8001020:	3c190000 	lui	t9,0x0
b8001024:	27390000 	addiu	t9,t9,0
b8001028:	13200003 	beqz	t9,b8001038 <deregister_tm_clones+0x38>
b800102c:	00000000 	nop
b8001030:	03200008 	jr	t9
b8001034:	00000000 	nop
b8001038:	03e00008 	jr	ra
b800103c:	00000000 	nop

b8001040 <register_tm_clones>:
b8001040:	3c04b801 	lui	a0,0xb801
b8001044:	3c05b801 	lui	a1,0xb801
b8001048:	2484d2d8 	addiu	a0,a0,-11560
b800104c:	24a5d2d8 	addiu	a1,a1,-11560
b8001050:	00a42823 	subu	a1,a1,a0
b8001054:	00052883 	sra	a1,a1,0x2
b8001058:	24020002 	li	v0,2
b800105c:	00a2001a 	div	zero,a1,v0
b8001060:	00002812 	mflo	a1
b8001064:	10a00007 	beqz	a1,b8001084 <register_tm_clones+0x44>
b8001068:	00000000 	nop
b800106c:	3c190000 	lui	t9,0x0
b8001070:	27390000 	addiu	t9,t9,0
b8001074:	13200003 	beqz	t9,b8001084 <register_tm_clones+0x44>
b8001078:	00000000 	nop
b800107c:	03200008 	jr	t9
b8001080:	00000000 	nop
b8001084:	03e00008 	jr	ra
b8001088:	00000000 	nop

b800108c <__do_global_dtors_aux>:
b800108c:	3c02b801 	lui	v0,0xb801
b8001090:	9043db90 	lbu	v1,-9328(v0)
	...
b800109c:	1460003b 	bnez	v1,b800118c <__do_global_dtors_aux+0x100>
b80010a0:	00000000 	nop
b80010a4:	27bdffd8 	addiu	sp,sp,-40
b80010a8:	3c03b801 	lui	v1,0xb801
b80010ac:	afb2001c 	sw	s2,28(sp)
b80010b0:	3c12b801 	lui	s2,0xb801
b80010b4:	2463d2cc 	addiu	v1,v1,-11572
b80010b8:	2652d2d0 	addiu	s2,s2,-11568
b80010bc:	02439023 	subu	s2,s2,v1
b80010c0:	00129083 	sra	s2,s2,0x2
b80010c4:	afb30020 	sw	s3,32(sp)
b80010c8:	afb10018 	sw	s1,24(sp)
b80010cc:	afb00014 	sw	s0,20(sp)
b80010d0:	afbf0024 	sw	ra,36(sp)
b80010d4:	00408821 	move	s1,v0
b80010d8:	2652ffff 	addiu	s2,s2,-1
b80010dc:	00609821 	move	s3,v1
b80010e0:	3c10b801 	lui	s0,0xb801
b80010e4:	8e03db94 	lw	v1,-9324(s0)
	...
b80010f0:	0072102b 	sltu	v0,v1,s2
b80010f4:	1040000c 	beqz	v0,b8001128 <__do_global_dtors_aux+0x9c>
b80010f8:	00000000 	nop
b80010fc:	24630001 	addiu	v1,v1,1
b8001100:	ae03db94 	sw	v1,-9324(s0)
b8001104:	00031880 	sll	v1,v1,0x2
b8001108:	02631821 	addu	v1,s3,v1
b800110c:	8c620000 	lw	v0,0(v1)
	...
b8001118:	0040f809 	jalr	v0
b800111c:	00000000 	nop
b8001120:	0a000439 	j	b80010e4 <__do_global_dtors_aux+0x58>
b8001124:	00000000 	nop
b8001128:	3c02b800 	lui	v0,0xb800
b800112c:	24421000 	addiu	v0,v0,4096
b8001130:	0040f809 	jalr	v0
b8001134:	00000000 	nop
b8001138:	3c020000 	lui	v0,0x0
b800113c:	24420000 	addiu	v0,v0,0
b8001140:	10400005 	beqz	v0,b8001158 <__do_global_dtors_aux+0xcc>
b8001144:	00000000 	nop
b8001148:	3c04b801 	lui	a0,0xb801
b800114c:	2484db30 	addiu	a0,a0,-9424
b8001150:	0040f809 	jalr	v0
b8001154:	00000000 	nop
b8001158:	24020001 	li	v0,1
b800115c:	8fbf0024 	lw	ra,36(sp)
b8001160:	00000000 	nop
b8001164:	8fb30020 	lw	s3,32(sp)
b8001168:	00000000 	nop
b800116c:	8fb2001c 	lw	s2,28(sp)
b8001170:	00000000 	nop
b8001174:	8fb00014 	lw	s0,20(sp)
b8001178:	00000000 	nop
b800117c:	a222db90 	sb	v0,-9328(s1)
b8001180:	8fb10018 	lw	s1,24(sp)
b8001184:	00000000 	nop
b8001188:	27bd0028 	addiu	sp,sp,40
b800118c:	03e00008 	jr	ra
b8001190:	00000000 	nop

b8001194 <frame_dummy>:
b8001194:	3c020000 	lui	v0,0x0
b8001198:	27bdffe8 	addiu	sp,sp,-24
b800119c:	24420000 	addiu	v0,v0,0
b80011a0:	afbf0014 	sw	ra,20(sp)
b80011a4:	10400007 	beqz	v0,b80011c4 <frame_dummy+0x30>
b80011a8:	00000000 	nop
b80011ac:	3c04b801 	lui	a0,0xb801
b80011b0:	3c05b801 	lui	a1,0xb801
b80011b4:	2484db30 	addiu	a0,a0,-9424
b80011b8:	24a5db98 	addiu	a1,a1,-9320
b80011bc:	0040f809 	jalr	v0
b80011c0:	00000000 	nop
b80011c4:	3c04b801 	lui	a0,0xb801
b80011c8:	8c82d2d4 	lw	v0,-11564(a0)
b80011cc:	00000000 	nop
b80011d0:	10400008 	beqz	v0,b80011f4 <frame_dummy+0x60>
b80011d4:	00000000 	nop
b80011d8:	3c020000 	lui	v0,0x0
b80011dc:	24420000 	addiu	v0,v0,0
b80011e0:	10400004 	beqz	v0,b80011f4 <frame_dummy+0x60>
b80011e4:	00000000 	nop
b80011e8:	2484d2d4 	addiu	a0,a0,-11564
b80011ec:	0040f809 	jalr	v0
b80011f0:	00000000 	nop
b80011f4:	8fbf0014 	lw	ra,20(sp)
b80011f8:	00000000 	nop
b80011fc:	3c19b800 	lui	t9,0xb800
b8001200:	27391040 	addiu	t9,t9,4160
b8001204:	27bd0018 	addiu	sp,sp,24
b8001208:	03200008 	jr	t9
b800120c:	00000000 	nop
	...

b8001304 <_start>:
b8001304:	40806800 	mtc0	zero,c0_cause
b8001308:	00000000 	nop
b800130c:	40026000 	mfc0	v0,c0_status
b8001310:	3c082000 	lui	t0,0x2000
b8001314:	00481025 	or	v0,v0,t0
b8001318:	40826000 	mtc0	v0,c0_status
b800131c:	44c0f800 	ctc1	zero,$31
b8001320:	44800000 	mtc1	zero,$f0
b8001324:	44800800 	mtc1	zero,$f1
b8001328:	44801000 	mtc1	zero,$f2
b800132c:	44801800 	mtc1	zero,$f3
b8001330:	44802000 	mtc1	zero,$f4
b8001334:	44802800 	mtc1	zero,$f5
b8001338:	44803000 	mtc1	zero,$f6
b800133c:	44803800 	mtc1	zero,$f7
b8001340:	44804000 	mtc1	zero,$f8
b8001344:	44804800 	mtc1	zero,$f9
b8001348:	44805000 	mtc1	zero,$f10
b800134c:	44805800 	mtc1	zero,$f11
b8001350:	44806000 	mtc1	zero,$f12
b8001354:	44806800 	mtc1	zero,$f13
b8001358:	44807000 	mtc1	zero,$f14
b800135c:	44807800 	mtc1	zero,$f15
b8001360:	44808000 	mtc1	zero,$f16
b8001364:	44808800 	mtc1	zero,$f17
b8001368:	44809000 	mtc1	zero,$f18
b800136c:	44809800 	mtc1	zero,$f19
b8001370:	4480a000 	mtc1	zero,$f20
b8001374:	4480a800 	mtc1	zero,$f21
b8001378:	4480b000 	mtc1	zero,$f22
b800137c:	4480b800 	mtc1	zero,$f23
b8001380:	4480c000 	mtc1	zero,$f24
b8001384:	4480c800 	mtc1	zero,$f25
b8001388:	4480d000 	mtc1	zero,$f26
b800138c:	4480d800 	mtc1	zero,$f27
b8001390:	4480e000 	mtc1	zero,$f28
b8001394:	4480e800 	mtc1	zero,$f29
b8001398:	4480f000 	mtc1	zero,$f30
b800139c:	4480f800 	mtc1	zero,$f31
b80013a0:	3c02b800 	lui	v0,0xb800
b80013a4:	244213b0 	addiu	v0,v0,5040
b80013a8:	00400008 	jr	v0
b80013ac:	00000000 	nop
b80013b0:	3c1cb801 	lui	gp,0xb801
b80013b4:	279cd2d0 	addiu	gp,gp,-11568

b80013b8 <zerobss>:
b80013b8:	3c02b801 	lui	v0,0xb801
b80013bc:	2442db60 	addiu	v0,v0,-9376
b80013c0:	3c03b801 	lui	v1,0xb801
b80013c4:	24636b88 	addiu	v1,v1,27528
b80013c8:	ac400000 	sw	zero,0(v0)
b80013cc:	24420004 	addiu	v0,v0,4
b80013d0:	0043402b 	sltu	t0,v0,v1
b80013d4:	1500fffc 	bnez	t0,b80013c8 <zerobss+0x10>
b80013d8:	00000000 	nop
b80013dc:	3c08b801 	lui	t0,0xb801
b80013e0:	25086b78 	addiu	t0,t0,27512
b80013e4:	15000003 	bnez	t0,b80013f4 <zerobss+0x3c>
b80013e8:	00000000 	nop
b80013ec:	3c08b800 	lui	t0,0xb800
b80013f0:	35088000 	ori	t0,t0,0x8000
b80013f4:	2508ffc0 	addiu	t0,t0,-64
b80013f8:	0100e821 	move	sp,t0

b80013fc <init>:
b80013fc:	3c04b801 	lui	a0,0xb801
b8001400:	2484ccb0 	addiu	a0,a0,-13136
b8001404:	0e003139 	jal	b800c4e4 <atexit>
b8001408:	00000000 	nop
b800140c:	0e00331d 	jal	b800cc74 <_init>
b8001410:	00000000 	nop
b8001414:	27a50020 	addiu	a1,sp,32
b8001418:	27a60028 	addiu	a2,sp,40
b800141c:	aca00000 	sw	zero,0(a1)
b8001420:	acc00000 	sw	zero,0(a2)
b8001424:	3c050000 	lui	a1,0x0
b8001428:	24a50000 	addiu	a1,a1,0
b800142c:	10a00003 	beqz	a1,b800143c <init+0x40>
b8001430:	00000000 	nop
b8001434:	0c000000 	jal	b0000000 <Interrupt-0x8000180>
b8001438:	00000000 	nop
b800143c:	00002021 	move	a0,zero
b8001440:	3c050000 	lui	a1,0x0
b8001444:	24a50000 	addiu	a1,a1,0
b8001448:	10a00005 	beqz	a1,b8001460 <init+0x64>
b800144c:	00000000 	nop
b8001450:	0c000000 	jal	b0000000 <Interrupt-0x8000180>
b8001454:	00000000 	nop
b8001458:	00402021 	move	a0,v0
b800145c:	00602821 	move	a1,v1
b8001460:	0e002082 	jal	b8008208 <main>
b8001464:	00000000 	nop
b8001468:	00402021 	move	a0,v0
b800146c:	0e00314d 	jal	b800c534 <exit>
b8001470:	00000000 	nop

b8001474 <_exit>:
	...
b8001484:	0000004d 	break	0x0,0x1
b8001488:	7000007f 	sdbbp	0x1
	...

b8001500 <INIT_REG_DSP>:
b8001500:	27bdfff0 	addiu	sp,sp,-16
b8001504:	afbe000c 	sw	s8,12(sp)
b8001508:	03a0f021 	move	s8,sp
b800150c:	afc40010 	sw	a0,16(s8)
b8001510:	afc00000 	sw	zero,0(s8)
b8001514:	8fc20010 	lw	v0,16(s8)
b8001518:	00000000 	nop
b800151c:	24030078 	li	v1,120
b8001520:	a4430200 	sh	v1,512(v0)
b8001524:	8fc20010 	lw	v0,16(s8)
	...
b8001530:	a4400202 	sh	zero,514(v0)
b8001534:	8fc20010 	lw	v0,16(s8)
	...
b8001540:	a4400204 	sh	zero,516(v0)
b8001544:	8fc20010 	lw	v0,16(s8)
	...
b8001550:	a4400206 	sh	zero,518(v0)
b8001554:	8fc20010 	lw	v0,16(s8)
b8001558:	00000000 	nop
b800155c:	2403ffff 	li	v1,-1
b8001560:	a4430208 	sh	v1,520(v0)
b8001564:	8fc20010 	lw	v0,16(s8)
	...
b8001570:	a440020a 	sh	zero,522(v0)
b8001574:	8fc20010 	lw	v0,16(s8)
b8001578:	00000000 	nop
b800157c:	24038000 	li	v1,-32768
b8001580:	a443020a 	sh	v1,522(v0)
b8001584:	8fc20010 	lw	v0,16(s8)
	...
b8001590:	a440020e 	sh	zero,526(v0)
b8001594:	8fc20010 	lw	v0,16(s8)
	...
b80015a0:	a440020e 	sh	zero,526(v0)
b80015a4:	8fc20010 	lw	v0,16(s8)
	...
b80015b0:	a4400210 	sh	zero,528(v0)
b80015b4:	8fc20010 	lw	v0,16(s8)
b80015b8:	00000000 	nop
b80015bc:	24030440 	li	v1,1088
b80015c0:	a4430210 	sh	v1,528(v0)
b80015c4:	8fc20010 	lw	v0,16(s8)
b80015c8:	00000000 	nop
b80015cc:	24030100 	li	v1,256
b80015d0:	a4430212 	sh	v1,530(v0)
b80015d4:	8fc20010 	lw	v0,16(s8)
	...
b80015e0:	a4400214 	sh	zero,532(v0)
b80015e4:	8fc20010 	lw	v0,16(s8)
b80015e8:	00000000 	nop
b80015ec:	24030001 	li	v1,1
b80015f0:	a4430214 	sh	v1,532(v0)
b80015f4:	8fc20010 	lw	v0,16(s8)
	...
b8001600:	a440021a 	sh	zero,538(v0)
b8001604:	8fc20010 	lw	v0,16(s8)
b8001608:	00000000 	nop
b800160c:	2403c000 	li	v1,-16384
b8001610:	a443021a 	sh	v1,538(v0)
b8001614:	8fc20010 	lw	v0,16(s8)
	...
b8001620:	a4400336 	sh	zero,822(v0)
b8001624:	8fc20010 	lw	v0,16(s8)
b8001628:	00000000 	nop
b800162c:	2403c000 	li	v1,-16384
b8001630:	a4430336 	sh	v1,822(v0)
b8001634:	8fc20010 	lw	v0,16(s8)
	...
b8001640:	a4400452 	sh	zero,1106(v0)
b8001644:	8fc20010 	lw	v0,16(s8)
b8001648:	00000000 	nop
b800164c:	2403c200 	li	v1,-15872
b8001650:	a4430452 	sh	v1,1106(v0)
b8001654:	8fc20010 	lw	v0,16(s8)
	...
b8001660:	a440056e 	sh	zero,1390(v0)
b8001664:	8fc20010 	lw	v0,16(s8)
b8001668:	00000000 	nop
b800166c:	2403c200 	li	v1,-15872
b8001670:	a443056e 	sh	v1,1390(v0)
b8001674:	8fc20010 	lw	v0,16(s8)
	...
b8001680:	a440021c 	sh	zero,540(v0)
b8001684:	8fc20010 	lw	v0,16(s8)
b8001688:	00000000 	nop
b800168c:	24030100 	li	v1,256
b8001690:	a443021c 	sh	v1,540(v0)
b8001694:	8fc20010 	lw	v0,16(s8)
	...
b80016a0:	a4400338 	sh	zero,824(v0)
b80016a4:	8fc20010 	lw	v0,16(s8)
b80016a8:	00000000 	nop
b80016ac:	24030100 	li	v1,256
b80016b0:	a4430338 	sh	v1,824(v0)
b80016b4:	8fc20010 	lw	v0,16(s8)
	...
b80016c0:	a4400454 	sh	zero,1108(v0)
b80016c4:	8fc20010 	lw	v0,16(s8)
b80016c8:	00000000 	nop
b80016cc:	24030100 	li	v1,256
b80016d0:	a4430454 	sh	v1,1108(v0)
b80016d4:	8fc20010 	lw	v0,16(s8)
	...
b80016e0:	a4400570 	sh	zero,1392(v0)
b80016e4:	8fc20010 	lw	v0,16(s8)
b80016e8:	00000000 	nop
b80016ec:	24030100 	li	v1,256
b80016f0:	a4430570 	sh	v1,1392(v0)
b80016f4:	8fc20010 	lw	v0,16(s8)
	...
b8001700:	a440021e 	sh	zero,542(v0)
b8001704:	8fc20010 	lw	v0,16(s8)
b8001708:	00000000 	nop
b800170c:	2403c716 	li	v1,-14570
b8001710:	a443021e 	sh	v1,542(v0)
b8001714:	8fc20010 	lw	v0,16(s8)
	...
b8001720:	a440033a 	sh	zero,826(v0)
b8001724:	8fc20010 	lw	v0,16(s8)
b8001728:	00000000 	nop
b800172c:	2403c716 	li	v1,-14570
b8001730:	a443033a 	sh	v1,826(v0)
b8001734:	8fc20010 	lw	v0,16(s8)
	...
b8001740:	a4400456 	sh	zero,1110(v0)
b8001744:	8fc20010 	lw	v0,16(s8)
b8001748:	00000000 	nop
b800174c:	2403c716 	li	v1,-14570
b8001750:	a4430456 	sh	v1,1110(v0)
b8001754:	8fc20010 	lw	v0,16(s8)
	...
b8001760:	a4400572 	sh	zero,1394(v0)
b8001764:	8fc20010 	lw	v0,16(s8)
b8001768:	00000000 	nop
b800176c:	2403c716 	li	v1,-14570
b8001770:	a4430572 	sh	v1,1394(v0)
b8001774:	8fc20010 	lw	v0,16(s8)
	...
b8001780:	a4400220 	sh	zero,544(v0)
b8001784:	8fc20010 	lw	v0,16(s8)
b8001788:	00000000 	nop
b800178c:	24033f03 	li	v1,16131
b8001790:	a4430220 	sh	v1,544(v0)
b8001794:	8fc20010 	lw	v0,16(s8)
	...
b80017a0:	a440033c 	sh	zero,828(v0)
b80017a4:	8fc20010 	lw	v0,16(s8)
b80017a8:	00000000 	nop
b80017ac:	24033f23 	li	v1,16163
b80017b0:	a443033c 	sh	v1,828(v0)
b80017b4:	8fc20010 	lw	v0,16(s8)
	...
b80017c0:	a4400458 	sh	zero,1112(v0)
b80017c4:	8fc20010 	lw	v0,16(s8)
b80017c8:	00000000 	nop
b80017cc:	24033f03 	li	v1,16131
b80017d0:	a4430458 	sh	v1,1112(v0)
b80017d4:	8fc20010 	lw	v0,16(s8)
	...
b80017e0:	a4400574 	sh	zero,1396(v0)
b80017e4:	8fc20010 	lw	v0,16(s8)
b80017e8:	00000000 	nop
b80017ec:	24033f23 	li	v1,16163
b80017f0:	a4430574 	sh	v1,1396(v0)
b80017f4:	8fc20010 	lw	v0,16(s8)
	...
b8001800:	a4400222 	sh	zero,546(v0)
b8001804:	8fc20010 	lw	v0,16(s8)
b8001808:	00000000 	nop
b800180c:	24030007 	li	v1,7
b8001810:	a4430222 	sh	v1,546(v0)
b8001814:	8fc20010 	lw	v0,16(s8)
	...
b8001820:	a440033e 	sh	zero,830(v0)
b8001824:	8fc20010 	lw	v0,16(s8)
b8001828:	00000000 	nop
b800182c:	24030007 	li	v1,7
b8001830:	a443033e 	sh	v1,830(v0)
b8001834:	8fc20010 	lw	v0,16(s8)
	...
b8001840:	a440045a 	sh	zero,1114(v0)
b8001844:	8fc20010 	lw	v0,16(s8)
b8001848:	00000000 	nop
b800184c:	24030007 	li	v1,7
b8001850:	a443045a 	sh	v1,1114(v0)
b8001854:	8fc20010 	lw	v0,16(s8)
	...
b8001860:	a4400576 	sh	zero,1398(v0)
b8001864:	8fc20010 	lw	v0,16(s8)
b8001868:	00000000 	nop
b800186c:	24030007 	li	v1,7
b8001870:	a4430576 	sh	v1,1398(v0)
b8001874:	8fc20010 	lw	v0,16(s8)
	...
b8001880:	a4400224 	sh	zero,548(v0)
b8001884:	8fc20010 	lw	v0,16(s8)
b8001888:	00000000 	nop
b800188c:	24033f01 	li	v1,16129
b8001890:	a4430224 	sh	v1,548(v0)
b8001894:	8fc20010 	lw	v0,16(s8)
	...
b80018a0:	a4400340 	sh	zero,832(v0)
b80018a4:	8fc20010 	lw	v0,16(s8)
b80018a8:	00000000 	nop
b80018ac:	24033f11 	li	v1,16145
b80018b0:	a4430340 	sh	v1,832(v0)
b80018b4:	8fc20010 	lw	v0,16(s8)
	...
b80018c0:	a440045c 	sh	zero,1116(v0)
b80018c4:	8fc20010 	lw	v0,16(s8)
b80018c8:	00000000 	nop
b80018cc:	24033f01 	li	v1,16129
b80018d0:	a443045c 	sh	v1,1116(v0)
b80018d4:	8fc20010 	lw	v0,16(s8)
	...
b80018e0:	a4400578 	sh	zero,1400(v0)
b80018e4:	8fc20010 	lw	v0,16(s8)
b80018e8:	00000000 	nop
b80018ec:	24033f11 	li	v1,16145
b80018f0:	a4430578 	sh	v1,1400(v0)
b80018f4:	8fc20010 	lw	v0,16(s8)
	...
b8001900:	a4400226 	sh	zero,550(v0)
b8001904:	8fc20010 	lw	v0,16(s8)
b8001908:	00000000 	nop
b800190c:	24030008 	li	v1,8
b8001910:	a4430226 	sh	v1,550(v0)
b8001914:	8fc20010 	lw	v0,16(s8)
	...
b8001920:	a4400342 	sh	zero,834(v0)
b8001924:	8fc20010 	lw	v0,16(s8)
b8001928:	00000000 	nop
b800192c:	24030008 	li	v1,8
b8001930:	a4430342 	sh	v1,834(v0)
b8001934:	8fc20010 	lw	v0,16(s8)
	...
b8001940:	a440045e 	sh	zero,1118(v0)
b8001944:	8fc20010 	lw	v0,16(s8)
b8001948:	00000000 	nop
b800194c:	24030008 	li	v1,8
b8001950:	a443045e 	sh	v1,1118(v0)
b8001954:	8fc20010 	lw	v0,16(s8)
	...
b8001960:	a440057a 	sh	zero,1402(v0)
b8001964:	8fc20010 	lw	v0,16(s8)
b8001968:	00000000 	nop
b800196c:	24030008 	li	v1,8
b8001970:	a443057a 	sh	v1,1402(v0)
b8001974:	8fc20010 	lw	v0,16(s8)
	...
b8001980:	a440022c 	sh	zero,556(v0)
b8001984:	8fc20010 	lw	v0,16(s8)
	...
b8001990:	a4400348 	sh	zero,840(v0)
b8001994:	8fc20010 	lw	v0,16(s8)
	...
b80019a0:	a4400464 	sh	zero,1124(v0)
b80019a4:	8fc20010 	lw	v0,16(s8)
	...
b80019b0:	a4400580 	sh	zero,1408(v0)
b80019b4:	8fc20010 	lw	v0,16(s8)
	...
b80019c0:	a440022e 	sh	zero,558(v0)
b80019c4:	8fc20010 	lw	v0,16(s8)
b80019c8:	00000000 	nop
b80019cc:	24034000 	li	v1,16384
b80019d0:	a4430230 	sh	v1,560(v0)
b80019d4:	8fc20010 	lw	v0,16(s8)
	...
b80019e0:	a440034a 	sh	zero,842(v0)
b80019e4:	8fc20010 	lw	v0,16(s8)
b80019e8:	00000000 	nop
b80019ec:	24034000 	li	v1,16384
b80019f0:	a443034c 	sh	v1,844(v0)
b80019f4:	8fc20010 	lw	v0,16(s8)
	...
b8001a00:	a4400466 	sh	zero,1126(v0)
b8001a04:	8fc20010 	lw	v0,16(s8)
b8001a08:	00000000 	nop
b8001a0c:	24034000 	li	v1,16384
b8001a10:	a4430468 	sh	v1,1128(v0)
b8001a14:	8fc20010 	lw	v0,16(s8)
	...
b8001a20:	a4400582 	sh	zero,1410(v0)
b8001a24:	8fc20010 	lw	v0,16(s8)
b8001a28:	00000000 	nop
b8001a2c:	24034000 	li	v1,16384
b8001a30:	a4430584 	sh	v1,1412(v0)
b8001a34:	8fc20010 	lw	v0,16(s8)
b8001a38:	00000000 	nop
b8001a3c:	24034000 	li	v1,16384
b8001a40:	a4430228 	sh	v1,552(v0)
b8001a44:	8fc20010 	lw	v0,16(s8)
	...
b8001a50:	a440022a 	sh	zero,554(v0)
b8001a54:	8fc20010 	lw	v0,16(s8)
b8001a58:	00000000 	nop
b8001a5c:	24034000 	li	v1,16384
b8001a60:	a4430344 	sh	v1,836(v0)
b8001a64:	8fc20010 	lw	v0,16(s8)
	...
b8001a70:	a4400346 	sh	zero,838(v0)
b8001a74:	8fc20010 	lw	v0,16(s8)
b8001a78:	00000000 	nop
b8001a7c:	24034000 	li	v1,16384
b8001a80:	a4430460 	sh	v1,1120(v0)
b8001a84:	8fc20010 	lw	v0,16(s8)
	...
b8001a90:	a4400462 	sh	zero,1122(v0)
b8001a94:	8fc20010 	lw	v0,16(s8)
b8001a98:	00000000 	nop
b8001a9c:	24034000 	li	v1,16384
b8001aa0:	a443057c 	sh	v1,1404(v0)
b8001aa4:	8fc20010 	lw	v0,16(s8)
	...
b8001ab0:	a440057e 	sh	zero,1406(v0)
b8001ab4:	8fc20010 	lw	v0,16(s8)
b8001ab8:	00000000 	nop
b8001abc:	2403003f 	li	v1,63
b8001ac0:	a4430232 	sh	v1,562(v0)
b8001ac4:	8fc20010 	lw	v0,16(s8)
	...
b8001ad0:	a4400234 	sh	zero,564(v0)
b8001ad4:	8fc20010 	lw	v0,16(s8)
b8001ad8:	00000000 	nop
b8001adc:	2403ffd8 	li	v1,-40
b8001ae0:	a4430236 	sh	v1,566(v0)
b8001ae4:	8fc20010 	lw	v0,16(s8)
	...
b8001af0:	a4400238 	sh	zero,568(v0)
b8001af4:	8fc20010 	lw	v0,16(s8)
b8001af8:	00000000 	nop
b8001afc:	2403fffa 	li	v1,-6
b8001b00:	a443023a 	sh	v1,570(v0)
b8001b04:	8fc20010 	lw	v0,16(s8)
	...
b8001b10:	a440023c 	sh	zero,572(v0)
b8001b14:	8fc20010 	lw	v0,16(s8)
b8001b18:	00000000 	nop
b8001b1c:	2403003e 	li	v1,62
b8001b20:	a443023e 	sh	v1,574(v0)
b8001b24:	8fc20010 	lw	v0,16(s8)
	...
b8001b30:	a4400240 	sh	zero,576(v0)
b8001b34:	8fc20010 	lw	v0,16(s8)
b8001b38:	00000000 	nop
b8001b3c:	2403ff95 	li	v1,-107
b8001b40:	a4430242 	sh	v1,578(v0)
b8001b44:	8fc20010 	lw	v0,16(s8)
	...
b8001b50:	a4400244 	sh	zero,580(v0)
b8001b54:	8fc20010 	lw	v0,16(s8)
b8001b58:	00000000 	nop
b8001b5c:	2403006e 	li	v1,110
b8001b60:	a4430246 	sh	v1,582(v0)
b8001b64:	8fc20010 	lw	v0,16(s8)
	...
b8001b70:	a4400248 	sh	zero,584(v0)
b8001b74:	8fc20010 	lw	v0,16(s8)
b8001b78:	00000000 	nop
b8001b7c:	2403ffd0 	li	v1,-48
b8001b80:	a443024a 	sh	v1,586(v0)
b8001b84:	8fc20010 	lw	v0,16(s8)
	...
b8001b90:	a440024c 	sh	zero,588(v0)
b8001b94:	8fc20010 	lw	v0,16(s8)
b8001b98:	00000000 	nop
b8001b9c:	2403ffb7 	li	v1,-73
b8001ba0:	a443024e 	sh	v1,590(v0)
b8001ba4:	8fc20010 	lw	v0,16(s8)
	...
b8001bb0:	a4400250 	sh	zero,592(v0)
b8001bb4:	8fc20010 	lw	v0,16(s8)
b8001bb8:	00000000 	nop
b8001bbc:	240300d1 	li	v1,209
b8001bc0:	a4430252 	sh	v1,594(v0)
b8001bc4:	8fc20010 	lw	v0,16(s8)
	...
b8001bd0:	a4400254 	sh	zero,596(v0)
b8001bd4:	8fc20010 	lw	v0,16(s8)
b8001bd8:	00000000 	nop
b8001bdc:	2403fee6 	li	v1,-282
b8001be0:	a4430256 	sh	v1,598(v0)
b8001be4:	8fc20010 	lw	v0,16(s8)
	...
b8001bf0:	a4400258 	sh	zero,600(v0)
b8001bf4:	8fc20010 	lw	v0,16(s8)
b8001bf8:	00000000 	nop
b8001bfc:	240300da 	li	v1,218
b8001c00:	a443025a 	sh	v1,602(v0)
b8001c04:	8fc20010 	lw	v0,16(s8)
	...
b8001c10:	a440025c 	sh	zero,604(v0)
b8001c14:	8fc20010 	lw	v0,16(s8)
b8001c18:	00000000 	nop
b8001c1c:	24030003 	li	v1,3
b8001c20:	a443025e 	sh	v1,606(v0)
b8001c24:	8fc20010 	lw	v0,16(s8)
	...
b8001c30:	a4400260 	sh	zero,608(v0)
b8001c34:	8fc20010 	lw	v0,16(s8)
b8001c38:	00000000 	nop
b8001c3c:	2403fec7 	li	v1,-313
b8001c40:	a4430262 	sh	v1,610(v0)
b8001c44:	8fc20010 	lw	v0,16(s8)
	...
b8001c50:	a4400264 	sh	zero,612(v0)
b8001c54:	8fc20010 	lw	v0,16(s8)
b8001c58:	00000000 	nop
b8001c5c:	24030234 	li	v1,564
b8001c60:	a4430266 	sh	v1,614(v0)
b8001c64:	8fc20010 	lw	v0,16(s8)
	...
b8001c70:	a4400268 	sh	zero,616(v0)
b8001c74:	8fc20010 	lw	v0,16(s8)
b8001c78:	00000000 	nop
b8001c7c:	2403fdb7 	li	v1,-585
b8001c80:	a443026a 	sh	v1,618(v0)
b8001c84:	8fc20010 	lw	v0,16(s8)
	...
b8001c90:	a440026c 	sh	zero,620(v0)
b8001c94:	8fc20010 	lw	v0,16(s8)
b8001c98:	00000000 	nop
b8001c9c:	24030118 	li	v1,280
b8001ca0:	a443026e 	sh	v1,622(v0)
b8001ca4:	8fc20010 	lw	v0,16(s8)
	...
b8001cb0:	a4400270 	sh	zero,624(v0)
b8001cb4:	8fc20010 	lw	v0,16(s8)
b8001cb8:	00000000 	nop
b8001cbc:	24030122 	li	v1,290
b8001cc0:	a4430272 	sh	v1,626(v0)
b8001cc4:	8fc20010 	lw	v0,16(s8)
	...
b8001cd0:	a4400274 	sh	zero,628(v0)
b8001cd4:	8fc20010 	lw	v0,16(s8)
b8001cd8:	00000000 	nop
b8001cdc:	2403fc83 	li	v1,-893
b8001ce0:	a4430276 	sh	v1,630(v0)
b8001ce4:	8fc20010 	lw	v0,16(s8)
	...
b8001cf0:	a4400278 	sh	zero,632(v0)
b8001cf4:	8fc20010 	lw	v0,16(s8)
b8001cf8:	00000000 	nop
b8001cfc:	240304b1 	li	v1,1201
b8001d00:	a443027a 	sh	v1,634(v0)
b8001d04:	8fc20010 	lw	v0,16(s8)
	...
b8001d10:	a440027c 	sh	zero,636(v0)
b8001d14:	8fc20010 	lw	v0,16(s8)
b8001d18:	00000000 	nop
b8001d1c:	2403fc52 	li	v1,-942
b8001d20:	a443027e 	sh	v1,638(v0)
b8001d24:	8fc20010 	lw	v0,16(s8)
	...
b8001d30:	a4400280 	sh	zero,640(v0)
b8001d34:	8fc20010 	lw	v0,16(s8)
b8001d38:	00000000 	nop
b8001d3c:	24030049 	li	v1,73
b8001d40:	a4430282 	sh	v1,642(v0)
b8001d44:	8fc20010 	lw	v0,16(s8)
	...
b8001d50:	a4400284 	sh	zero,644(v0)
b8001d54:	8fc20010 	lw	v0,16(s8)
b8001d58:	00000000 	nop
b8001d5c:	24030467 	li	v1,1127
b8001d60:	a4430286 	sh	v1,646(v0)
b8001d64:	8fc20010 	lw	v0,16(s8)
	...
b8001d70:	a4400288 	sh	zero,648(v0)
b8001d74:	8fc20010 	lw	v0,16(s8)
b8001d78:	00000000 	nop
b8001d7c:	2403f7c4 	li	v1,-2108
b8001d80:	a443028a 	sh	v1,650(v0)
b8001d84:	8fc20010 	lw	v0,16(s8)
	...
b8001d90:	a440028c 	sh	zero,652(v0)
b8001d94:	8fc20010 	lw	v0,16(s8)
b8001d98:	00000000 	nop
b8001d9c:	240308cc 	li	v1,2252
b8001da0:	a443028e 	sh	v1,654(v0)
b8001da4:	8fc20010 	lw	v0,16(s8)
	...
b8001db0:	a4400290 	sh	zero,656(v0)
b8001db4:	8fc20010 	lw	v0,16(s8)
b8001db8:	00000000 	nop
b8001dbc:	2403fb6d 	li	v1,-1171
b8001dc0:	a4430292 	sh	v1,658(v0)
b8001dc4:	8fc20010 	lw	v0,16(s8)
	...
b8001dd0:	a4400294 	sh	zero,660(v0)
b8001dd4:	8fc20010 	lw	v0,16(s8)
b8001dd8:	00000000 	nop
b8001ddc:	2403fc01 	li	v1,-1023
b8001de0:	a4430296 	sh	v1,662(v0)
b8001de4:	8fc20010 	lw	v0,16(s8)
	...
b8001df0:	a4400298 	sh	zero,664(v0)
b8001df4:	8fc20010 	lw	v0,16(s8)
b8001df8:	00000000 	nop
b8001dfc:	24030e09 	li	v1,3593
b8001e00:	a443029a 	sh	v1,666(v0)
b8001e04:	8fc20010 	lw	v0,16(s8)
	...
b8001e10:	a440029c 	sh	zero,668(v0)
b8001e14:	8fc20010 	lw	v0,16(s8)
b8001e18:	00000000 	nop
b8001e1c:	2403eb5d 	li	v1,-5283
b8001e20:	a443029e 	sh	v1,670(v0)
b8001e24:	8fc20010 	lw	v0,16(s8)
	...
b8001e30:	a44002a0 	sh	zero,672(v0)
b8001e34:	8fc20010 	lw	v0,16(s8)
b8001e38:	00000000 	nop
b8001e3c:	240311df 	li	v1,4575
b8001e40:	a44302a2 	sh	v1,674(v0)
b8001e44:	8fc20010 	lw	v0,16(s8)
	...
b8001e50:	a44002a4 	sh	zero,676(v0)
b8001e54:	8fc20010 	lw	v0,16(s8)
b8001e58:	00000000 	nop
b8001e5c:	24030061 	li	v1,97
b8001e60:	a44302a6 	sh	v1,678(v0)
b8001e64:	8fc20010 	lw	v0,16(s8)
	...
b8001e70:	a44002a8 	sh	zero,680(v0)
b8001e74:	8fc20010 	lw	v0,16(s8)
b8001e78:	00000000 	nop
b8001e7c:	2403d5fe 	li	v1,-10754
b8001e80:	a44302aa 	sh	v1,682(v0)
b8001e84:	8fc20010 	lw	v0,16(s8)
	...
b8001e90:	a44002ac 	sh	zero,684(v0)
b8001e94:	8fc20010 	lw	v0,16(s8)
b8001e98:	00000000 	nop
b8001e9c:	24037fff 	li	v1,32767
b8001ea0:	a44302ae 	sh	v1,686(v0)
b8001ea4:	8fc20010 	lw	v0,16(s8)
	...
b8001eb0:	a44002b0 	sh	zero,688(v0)
b8001eb4:	afc00000 	sw	zero,0(s8)
b8001eb8:	0a0007c8 	j	b8001f20 <INIT_REG_DSP+0xa20>
b8001ebc:	00000000 	nop
b8001ec0:	8fc30010 	lw	v1,16(s8)
b8001ec4:	00000000 	nop
b8001ec8:	8fc20000 	lw	v0,0(s8)
	...
b8001ed4:	24420118 	addiu	v0,v0,280
b8001ed8:	00021040 	sll	v0,v0,0x1
b8001edc:	00621021 	addu	v0,v1,v0
b8001ee0:	94430002 	lhu	v1,2(v0)
b8001ee4:	00000000 	nop
b8001ee8:	8fc40010 	lw	a0,16(s8)
b8001eec:	00000000 	nop
b8001ef0:	8fc20000 	lw	v0,0(s8)
	...
b8001efc:	244201a4 	addiu	v0,v0,420
b8001f00:	00021040 	sll	v0,v0,0x1
b8001f04:	00821021 	addu	v0,a0,v0
b8001f08:	a4430006 	sh	v1,6(v0)
b8001f0c:	8fc20000 	lw	v0,0(s8)
	...
b8001f18:	24420001 	addiu	v0,v0,1
b8001f1c:	afc20000 	sw	v0,0(s8)
b8001f20:	8fc20000 	lw	v0,0(s8)
	...
b8001f2c:	28420040 	slti	v0,v0,64
b8001f30:	1440ffe3 	bnez	v0,b8001ec0 <INIT_REG_DSP+0x9c0>
b8001f34:	00000000 	nop
b8001f38:	afc00000 	sw	zero,0(s8)
b8001f3c:	0a0007e9 	j	b8001fa4 <INIT_REG_DSP+0xaa4>
b8001f40:	00000000 	nop
b8001f44:	8fc30010 	lw	v1,16(s8)
b8001f48:	00000000 	nop
b8001f4c:	8fc20000 	lw	v0,0(s8)
	...
b8001f58:	24420118 	addiu	v0,v0,280
b8001f5c:	00021040 	sll	v0,v0,0x1
b8001f60:	00621021 	addu	v0,v1,v0
b8001f64:	94430002 	lhu	v1,2(v0)
b8001f68:	00000000 	nop
b8001f6c:	8fc40010 	lw	a0,16(s8)
b8001f70:	00000000 	nop
b8001f74:	8fc20000 	lw	v0,0(s8)
	...
b8001f80:	24420234 	addiu	v0,v0,564
b8001f84:	00021040 	sll	v0,v0,0x1
b8001f88:	00821021 	addu	v0,a0,v0
b8001f8c:	a4430002 	sh	v1,2(v0)
b8001f90:	8fc20000 	lw	v0,0(s8)
	...
b8001f9c:	24420001 	addiu	v0,v0,1
b8001fa0:	afc20000 	sw	v0,0(s8)
b8001fa4:	8fc20000 	lw	v0,0(s8)
	...
b8001fb0:	28420040 	slti	v0,v0,64
b8001fb4:	1440ffe3 	bnez	v0,b8001f44 <INIT_REG_DSP+0xa44>
b8001fb8:	00000000 	nop
b8001fbc:	afc00000 	sw	zero,0(s8)
b8001fc0:	0a00080a 	j	b8002028 <INIT_REG_DSP+0xb28>
b8001fc4:	00000000 	nop
b8001fc8:	8fc30010 	lw	v1,16(s8)
b8001fcc:	00000000 	nop
b8001fd0:	8fc20000 	lw	v0,0(s8)
	...
b8001fdc:	24420118 	addiu	v0,v0,280
b8001fe0:	00021040 	sll	v0,v0,0x1
b8001fe4:	00621021 	addu	v0,v1,v0
b8001fe8:	94430002 	lhu	v1,2(v0)
b8001fec:	00000000 	nop
b8001ff0:	8fc40010 	lw	a0,16(s8)
b8001ff4:	00000000 	nop
b8001ff8:	8fc20000 	lw	v0,0(s8)
	...
b8002004:	244202c0 	addiu	v0,v0,704
b8002008:	00021040 	sll	v0,v0,0x1
b800200c:	00821021 	addu	v0,a0,v0
b8002010:	a4430006 	sh	v1,6(v0)
b8002014:	8fc20000 	lw	v0,0(s8)
	...
b8002020:	24420001 	addiu	v0,v0,1
b8002024:	afc20000 	sw	v0,0(s8)
b8002028:	8fc20000 	lw	v0,0(s8)
	...
b8002034:	28420040 	slti	v0,v0,64
b8002038:	1440ffe3 	bnez	v0,b8001fc8 <INIT_REG_DSP+0xac8>
b800203c:	00000000 	nop
b8002040:	8fc20010 	lw	v0,16(s8)
b8002044:	00000000 	nop
b8002048:	2403003f 	li	v1,63
b800204c:	a44302b2 	sh	v1,690(v0)
b8002050:	8fc20010 	lw	v0,16(s8)
	...
b800205c:	a44002b4 	sh	zero,692(v0)
b8002060:	8fc20010 	lw	v0,16(s8)
b8002064:	00000000 	nop
b8002068:	2403ffd8 	li	v1,-40
b800206c:	a44302b6 	sh	v1,694(v0)
b8002070:	8fc20010 	lw	v0,16(s8)
	...
b800207c:	a44002b8 	sh	zero,696(v0)
b8002080:	8fc20010 	lw	v0,16(s8)
b8002084:	00000000 	nop
b8002088:	2403fffa 	li	v1,-6
b800208c:	a44302ba 	sh	v1,698(v0)
b8002090:	8fc20010 	lw	v0,16(s8)
	...
b800209c:	a44002bc 	sh	zero,700(v0)
b80020a0:	8fc20010 	lw	v0,16(s8)
b80020a4:	00000000 	nop
b80020a8:	2403003e 	li	v1,62
b80020ac:	a44302be 	sh	v1,702(v0)
b80020b0:	8fc20010 	lw	v0,16(s8)
	...
b80020bc:	a44002c0 	sh	zero,704(v0)
b80020c0:	8fc20010 	lw	v0,16(s8)
b80020c4:	00000000 	nop
b80020c8:	2403ff95 	li	v1,-107
b80020cc:	a44302c2 	sh	v1,706(v0)
b80020d0:	8fc20010 	lw	v0,16(s8)
	...
b80020dc:	a44002c4 	sh	zero,708(v0)
b80020e0:	8fc20010 	lw	v0,16(s8)
b80020e4:	00000000 	nop
b80020e8:	2403006e 	li	v1,110
b80020ec:	a44302c6 	sh	v1,710(v0)
b80020f0:	8fc20010 	lw	v0,16(s8)
	...
b80020fc:	a44002c8 	sh	zero,712(v0)
b8002100:	8fc20010 	lw	v0,16(s8)
b8002104:	00000000 	nop
b8002108:	2403ffd0 	li	v1,-48
b800210c:	a44302ca 	sh	v1,714(v0)
b8002110:	8fc20010 	lw	v0,16(s8)
	...
b800211c:	a44002cc 	sh	zero,716(v0)
b8002120:	8fc20010 	lw	v0,16(s8)
b8002124:	00000000 	nop
b8002128:	2403ffb7 	li	v1,-73
b800212c:	a44302ce 	sh	v1,718(v0)
b8002130:	8fc20010 	lw	v0,16(s8)
	...
b800213c:	a44002d0 	sh	zero,720(v0)
b8002140:	8fc20010 	lw	v0,16(s8)
b8002144:	00000000 	nop
b8002148:	240300d1 	li	v1,209
b800214c:	a44302d2 	sh	v1,722(v0)
b8002150:	8fc20010 	lw	v0,16(s8)
	...
b800215c:	a44002d4 	sh	zero,724(v0)
b8002160:	8fc20010 	lw	v0,16(s8)
b8002164:	00000000 	nop
b8002168:	2403fee6 	li	v1,-282
b800216c:	a44302d6 	sh	v1,726(v0)
b8002170:	8fc20010 	lw	v0,16(s8)
	...
b800217c:	a44002d8 	sh	zero,728(v0)
b8002180:	8fc20010 	lw	v0,16(s8)
b8002184:	00000000 	nop
b8002188:	240300da 	li	v1,218
b800218c:	a44302da 	sh	v1,730(v0)
b8002190:	8fc20010 	lw	v0,16(s8)
	...
b800219c:	a44002dc 	sh	zero,732(v0)
b80021a0:	8fc20010 	lw	v0,16(s8)
b80021a4:	00000000 	nop
b80021a8:	24030003 	li	v1,3
b80021ac:	a44302de 	sh	v1,734(v0)
b80021b0:	8fc20010 	lw	v0,16(s8)
	...
b80021bc:	a44002e0 	sh	zero,736(v0)
b80021c0:	8fc20010 	lw	v0,16(s8)
b80021c4:	00000000 	nop
b80021c8:	2403fec7 	li	v1,-313
b80021cc:	a44302e2 	sh	v1,738(v0)
b80021d0:	8fc20010 	lw	v0,16(s8)
	...
b80021dc:	a44002e4 	sh	zero,740(v0)
b80021e0:	8fc20010 	lw	v0,16(s8)
b80021e4:	00000000 	nop
b80021e8:	24030234 	li	v1,564
b80021ec:	a44302e6 	sh	v1,742(v0)
b80021f0:	8fc20010 	lw	v0,16(s8)
	...
b80021fc:	a44002e8 	sh	zero,744(v0)
b8002200:	8fc20010 	lw	v0,16(s8)
b8002204:	00000000 	nop
b8002208:	2403fdb7 	li	v1,-585
b800220c:	a44302ea 	sh	v1,746(v0)
b8002210:	8fc20010 	lw	v0,16(s8)
	...
b800221c:	a44002ec 	sh	zero,748(v0)
b8002220:	8fc20010 	lw	v0,16(s8)
b8002224:	00000000 	nop
b8002228:	24030118 	li	v1,280
b800222c:	a44302ee 	sh	v1,750(v0)
b8002230:	8fc20010 	lw	v0,16(s8)
	...
b800223c:	a44002f0 	sh	zero,752(v0)
b8002240:	8fc20010 	lw	v0,16(s8)
b8002244:	00000000 	nop
b8002248:	24030122 	li	v1,290
b800224c:	a44302f2 	sh	v1,754(v0)
b8002250:	8fc20010 	lw	v0,16(s8)
	...
b800225c:	a44002f4 	sh	zero,756(v0)
b8002260:	8fc20010 	lw	v0,16(s8)
b8002264:	00000000 	nop
b8002268:	2403fc83 	li	v1,-893
b800226c:	a44302f6 	sh	v1,758(v0)
b8002270:	8fc20010 	lw	v0,16(s8)
	...
b800227c:	a44002f8 	sh	zero,760(v0)
b8002280:	8fc20010 	lw	v0,16(s8)
b8002284:	00000000 	nop
b8002288:	240304b1 	li	v1,1201
b800228c:	a44302fa 	sh	v1,762(v0)
b8002290:	8fc20010 	lw	v0,16(s8)
	...
b800229c:	a44002fc 	sh	zero,764(v0)
b80022a0:	8fc20010 	lw	v0,16(s8)
b80022a4:	00000000 	nop
b80022a8:	2403fc52 	li	v1,-942
b80022ac:	a44302fe 	sh	v1,766(v0)
b80022b0:	8fc20010 	lw	v0,16(s8)
	...
b80022bc:	a4400300 	sh	zero,768(v0)
b80022c0:	8fc20010 	lw	v0,16(s8)
b80022c4:	00000000 	nop
b80022c8:	24030049 	li	v1,73
b80022cc:	a4430302 	sh	v1,770(v0)
b80022d0:	8fc20010 	lw	v0,16(s8)
	...
b80022dc:	a4400304 	sh	zero,772(v0)
b80022e0:	8fc20010 	lw	v0,16(s8)
b80022e4:	00000000 	nop
b80022e8:	24030467 	li	v1,1127
b80022ec:	a4430306 	sh	v1,774(v0)
b80022f0:	8fc20010 	lw	v0,16(s8)
	...
b80022fc:	a4400308 	sh	zero,776(v0)
b8002300:	8fc20010 	lw	v0,16(s8)
b8002304:	00000000 	nop
b8002308:	2403f7c4 	li	v1,-2108
b800230c:	a443030a 	sh	v1,778(v0)
b8002310:	8fc20010 	lw	v0,16(s8)
	...
b800231c:	a440030c 	sh	zero,780(v0)
b8002320:	8fc20010 	lw	v0,16(s8)
b8002324:	00000000 	nop
b8002328:	240308cc 	li	v1,2252
b800232c:	a443030e 	sh	v1,782(v0)
b8002330:	8fc20010 	lw	v0,16(s8)
	...
b800233c:	a4400310 	sh	zero,784(v0)
b8002340:	8fc20010 	lw	v0,16(s8)
b8002344:	00000000 	nop
b8002348:	2403fb6d 	li	v1,-1171
b800234c:	a4430312 	sh	v1,786(v0)
b8002350:	8fc20010 	lw	v0,16(s8)
	...
b800235c:	a4400314 	sh	zero,788(v0)
b8002360:	8fc20010 	lw	v0,16(s8)
b8002364:	00000000 	nop
b8002368:	2403fc01 	li	v1,-1023
b800236c:	a4430316 	sh	v1,790(v0)
b8002370:	8fc20010 	lw	v0,16(s8)
	...
b800237c:	a4400318 	sh	zero,792(v0)
b8002380:	8fc20010 	lw	v0,16(s8)
b8002384:	00000000 	nop
b8002388:	24030e09 	li	v1,3593
b800238c:	a443031a 	sh	v1,794(v0)
b8002390:	8fc20010 	lw	v0,16(s8)
	...
b800239c:	a440031c 	sh	zero,796(v0)
b80023a0:	8fc20010 	lw	v0,16(s8)
b80023a4:	00000000 	nop
b80023a8:	2403eb5d 	li	v1,-5283
b80023ac:	a443031e 	sh	v1,798(v0)
b80023b0:	8fc20010 	lw	v0,16(s8)
	...
b80023bc:	a4400320 	sh	zero,800(v0)
b80023c0:	8fc20010 	lw	v0,16(s8)
b80023c4:	00000000 	nop
b80023c8:	240311df 	li	v1,4575
b80023cc:	a4430322 	sh	v1,802(v0)
b80023d0:	8fc20010 	lw	v0,16(s8)
	...
b80023dc:	a4400324 	sh	zero,804(v0)
b80023e0:	8fc20010 	lw	v0,16(s8)
b80023e4:	00000000 	nop
b80023e8:	24030061 	li	v1,97
b80023ec:	a4430326 	sh	v1,806(v0)
b80023f0:	8fc20010 	lw	v0,16(s8)
	...
b80023fc:	a4400328 	sh	zero,808(v0)
b8002400:	8fc20010 	lw	v0,16(s8)
b8002404:	00000000 	nop
b8002408:	2403d5fe 	li	v1,-10754
b800240c:	a443032a 	sh	v1,810(v0)
b8002410:	8fc20010 	lw	v0,16(s8)
	...
b800241c:	a440032c 	sh	zero,812(v0)
b8002420:	8fc20010 	lw	v0,16(s8)
b8002424:	00000000 	nop
b8002428:	24037fff 	li	v1,32767
b800242c:	a443032e 	sh	v1,814(v0)
b8002430:	8fc20010 	lw	v0,16(s8)
	...
b800243c:	a4400330 	sh	zero,816(v0)
b8002440:	afc00000 	sw	zero,0(s8)
b8002444:	0a00092b 	j	b80024ac <INIT_REG_DSP+0xfac>
b8002448:	00000000 	nop
b800244c:	8fc30010 	lw	v1,16(s8)
b8002450:	00000000 	nop
b8002454:	8fc20000 	lw	v0,0(s8)
	...
b8002460:	24420158 	addiu	v0,v0,344
b8002464:	00021040 	sll	v0,v0,0x1
b8002468:	00621021 	addu	v0,v1,v0
b800246c:	94430002 	lhu	v1,2(v0)
b8002470:	00000000 	nop
b8002474:	8fc40010 	lw	a0,16(s8)
b8002478:	00000000 	nop
b800247c:	8fc20000 	lw	v0,0(s8)
	...
b8002488:	244201e4 	addiu	v0,v0,484
b800248c:	00021040 	sll	v0,v0,0x1
b8002490:	00821021 	addu	v0,a0,v0
b8002494:	a4430006 	sh	v1,6(v0)
b8002498:	8fc20000 	lw	v0,0(s8)
	...
b80024a4:	24420001 	addiu	v0,v0,1
b80024a8:	afc20000 	sw	v0,0(s8)
b80024ac:	8fc20000 	lw	v0,0(s8)
	...
b80024b8:	28420040 	slti	v0,v0,64
b80024bc:	1440ffe3 	bnez	v0,b800244c <INIT_REG_DSP+0xf4c>
b80024c0:	00000000 	nop
b80024c4:	afc00000 	sw	zero,0(s8)
b80024c8:	0a00094c 	j	b8002530 <INIT_REG_DSP+0x1030>
b80024cc:	00000000 	nop
b80024d0:	8fc30010 	lw	v1,16(s8)
b80024d4:	00000000 	nop
b80024d8:	8fc20000 	lw	v0,0(s8)
	...
b80024e4:	24420158 	addiu	v0,v0,344
b80024e8:	00021040 	sll	v0,v0,0x1
b80024ec:	00621021 	addu	v0,v1,v0
b80024f0:	94430002 	lhu	v1,2(v0)
b80024f4:	00000000 	nop
b80024f8:	8fc40010 	lw	a0,16(s8)
b80024fc:	00000000 	nop
b8002500:	8fc20000 	lw	v0,0(s8)
	...
b800250c:	24420274 	addiu	v0,v0,628
b8002510:	00021040 	sll	v0,v0,0x1
b8002514:	00821021 	addu	v0,a0,v0
b8002518:	a4430002 	sh	v1,2(v0)
b800251c:	8fc20000 	lw	v0,0(s8)
	...
b8002528:	24420001 	addiu	v0,v0,1
b800252c:	afc20000 	sw	v0,0(s8)
b8002530:	8fc20000 	lw	v0,0(s8)
	...
b800253c:	28420040 	slti	v0,v0,64
b8002540:	1440ffe3 	bnez	v0,b80024d0 <INIT_REG_DSP+0xfd0>
b8002544:	00000000 	nop
b8002548:	afc00000 	sw	zero,0(s8)
b800254c:	0a00096d 	j	b80025b4 <INIT_REG_DSP+0x10b4>
b8002550:	00000000 	nop
b8002554:	8fc30010 	lw	v1,16(s8)
b8002558:	00000000 	nop
b800255c:	8fc20000 	lw	v0,0(s8)
	...
b8002568:	24420158 	addiu	v0,v0,344
b800256c:	00021040 	sll	v0,v0,0x1
b8002570:	00621021 	addu	v0,v1,v0
b8002574:	94430002 	lhu	v1,2(v0)
b8002578:	00000000 	nop
b800257c:	8fc40010 	lw	a0,16(s8)
b8002580:	00000000 	nop
b8002584:	8fc20000 	lw	v0,0(s8)
	...
b8002590:	24420300 	addiu	v0,v0,768
b8002594:	00021040 	sll	v0,v0,0x1
b8002598:	00821021 	addu	v0,a0,v0
b800259c:	a4430006 	sh	v1,6(v0)
b80025a0:	8fc20000 	lw	v0,0(s8)
	...
b80025ac:	24420001 	addiu	v0,v0,1
b80025b0:	afc20000 	sw	v0,0(s8)
b80025b4:	8fc20000 	lw	v0,0(s8)
	...
b80025c0:	28420040 	slti	v0,v0,64
b80025c4:	1440ffe3 	bnez	v0,b8002554 <INIT_REG_DSP+0x1054>
b80025c8:	00000000 	nop
b80025cc:	03c0e821 	move	sp,s8
b80025d0:	8fbe000c 	lw	s8,12(sp)
b80025d4:	00000000 	nop
b80025d8:	27bd0010 	addiu	sp,sp,16
b80025dc:	03e00008 	jr	ra
b80025e0:	00000000 	nop

b80025e4 <defrag_REG_DSP>:
b80025e4:	27bdfff8 	addiu	sp,sp,-8
b80025e8:	afbe0004 	sw	s8,4(sp)
b80025ec:	03a0f021 	move	s8,sp
b80025f0:	afc40008 	sw	a0,8(s8)
b80025f4:	03c0e821 	move	sp,s8
b80025f8:	8fbe0004 	lw	s8,4(sp)
b80025fc:	00000000 	nop
b8002600:	27bd0008 	addiu	sp,sp,8
b8002604:	03e00008 	jr	ra
b8002608:	00000000 	nop

b800260c <Delay_ms>:
b800260c:	27bdfff8 	addiu	sp,sp,-8
b8002610:	afbe0004 	sw	s8,4(sp)
b8002614:	03a0f021 	move	s8,sp
b8002618:	afc40008 	sw	a0,8(s8)
b800261c:	3c02b801 	lui	v0,0xb801
b8002620:	8fc30008 	lw	v1,8(s8)
	...
b800262c:	ac43dbfc 	sw	v1,-9220(v0)
b8002630:	00000000 	nop
b8002634:	3c02b801 	lui	v0,0xb801
b8002638:	8c42dbfc 	lw	v0,-9220(v0)
	...
b8002644:	1440fffb 	bnez	v0,b8002634 <Delay_ms+0x28>
b8002648:	00000000 	nop
b800264c:	03c0e821 	move	sp,s8
b8002650:	8fbe0004 	lw	s8,4(sp)
b8002654:	00000000 	nop
b8002658:	27bd0008 	addiu	sp,sp,8
b800265c:	03e00008 	jr	ra
b8002660:	00000000 	nop

b8002664 <report_high>:
b8002664:	27bdffe8 	addiu	sp,sp,-24
b8002668:	afbf0014 	sw	ra,20(sp)
b800266c:	afbe0010 	sw	s8,16(sp)
b8002670:	03a0f021 	move	s8,sp
b8002674:	afc40018 	sw	a0,24(s8)
b8002678:	8fc40018 	lw	a0,24(s8)
b800267c:	00000000 	nop
b8002680:	0e000f28 	jal	b8003ca0 <Transf>
b8002684:	00000000 	nop
b8002688:	3c02b801 	lui	v0,0xb801
b800268c:	2444d2dc 	addiu	a0,v0,-11556
b8002690:	0e000f28 	jal	b8003ca0 <Transf>
b8002694:	00000000 	nop
b8002698:	03c0e821 	move	sp,s8
b800269c:	8fbf0014 	lw	ra,20(sp)
b80026a0:	00000000 	nop
b80026a4:	8fbe0010 	lw	s8,16(sp)
b80026a8:	00000000 	nop
b80026ac:	27bd0018 	addiu	sp,sp,24
b80026b0:	03e00008 	jr	ra
b80026b4:	00000000 	nop

b80026b8 <unmask_irq>:
b80026b8:	27bdfff8 	addiu	sp,sp,-8
b80026bc:	afbe0004 	sw	s8,4(sp)
b80026c0:	03a0f021 	move	s8,sp
b80026c4:	afc40008 	sw	a0,8(s8)
b80026c8:	3c02b801 	lui	v0,0xb801
b80026cc:	8c42cd2c 	lw	v0,-13012(v0)
b80026d0:	00000000 	nop
b80026d4:	3c03b801 	lui	v1,0xb801
b80026d8:	8c63cd2c 	lw	v1,-13012(v1)
	...
b80026e4:	8c640018 	lw	a0,24(v1)
b80026e8:	00000000 	nop
b80026ec:	8fc30008 	lw	v1,8(s8)
	...
b80026f8:	00031827 	nor	v1,zero,v1
b80026fc:	00831824 	and	v1,a0,v1
b8002700:	ac430018 	sw	v1,24(v0)
b8002704:	03c0e821 	move	sp,s8
b8002708:	8fbe0004 	lw	s8,4(sp)
b800270c:	00000000 	nop
b8002710:	27bd0008 	addiu	sp,sp,8
b8002714:	03e00008 	jr	ra
b8002718:	00000000 	nop

b800271c <mask_irq>:
b800271c:	27bdfff8 	addiu	sp,sp,-8
b8002720:	afbe0004 	sw	s8,4(sp)
b8002724:	03a0f021 	move	s8,sp
b8002728:	afc40008 	sw	a0,8(s8)
b800272c:	3c02b801 	lui	v0,0xb801
b8002730:	8c42cd2c 	lw	v0,-13012(v0)
b8002734:	00000000 	nop
b8002738:	3c03b801 	lui	v1,0xb801
b800273c:	8c63cd2c 	lw	v1,-13012(v1)
	...
b8002748:	8c640018 	lw	a0,24(v1)
b800274c:	00000000 	nop
b8002750:	8fc30008 	lw	v1,8(s8)
	...
b800275c:	00831825 	or	v1,a0,v1
b8002760:	ac430018 	sw	v1,24(v0)
b8002764:	03c0e821 	move	sp,s8
b8002768:	8fbe0004 	lw	s8,4(sp)
b800276c:	00000000 	nop
b8002770:	27bd0008 	addiu	sp,sp,8
b8002774:	03e00008 	jr	ra
b8002778:	00000000 	nop

b800277c <form_routing_table>:
b800277c:	27bdfff0 	addiu	sp,sp,-16
b8002780:	afbe000c 	sw	s8,12(sp)
b8002784:	03a0f021 	move	s8,sp
b8002788:	00801021 	move	v0,a0
b800278c:	a3c20010 	sb	v0,16(s8)
b8002790:	afc00000 	sw	zero,0(s8)
b8002794:	0a000a01 	j	b8002804 <form_routing_table+0x88>
b8002798:	00000000 	nop
b800279c:	3c02b801 	lui	v0,0xb801
b80027a0:	8c43cd34 	lw	v1,-13004(v0)
b80027a4:	00000000 	nop
b80027a8:	8fc20000 	lw	v0,0(s8)
	...
b80027b4:	00021080 	sll	v0,v0,0x2
b80027b8:	00621021 	addu	v0,v1,v0
b80027bc:	8fc30000 	lw	v1,0(s8)
b80027c0:	00000000 	nop
b80027c4:	24040001 	li	a0,1
b80027c8:	00641804 	sllv	v1,a0,v1
b80027cc:	306400ff 	andi	a0,v1,0xff
b80027d0:	93c30010 	lbu	v1,16(s8)
	...
b80027dc:	30630001 	andi	v1,v1,0x1
b80027e0:	00031a00 	sll	v1,v1,0x8
b80027e4:	00831825 	or	v1,a0,v1
b80027e8:	34630080 	ori	v1,v1,0x80
b80027ec:	ac430000 	sw	v1,0(v0)
b80027f0:	8fc20000 	lw	v0,0(s8)
	...
b80027fc:	24420001 	addiu	v0,v0,1
b8002800:	afc20000 	sw	v0,0(s8)
b8002804:	8fc20000 	lw	v0,0(s8)
	...
b8002810:	2c420010 	sltiu	v0,v0,16
b8002814:	1440ffe1 	bnez	v0,b800279c <form_routing_table+0x20>
b8002818:	00000000 	nop
b800281c:	03c0e821 	move	sp,s8
b8002820:	8fbe000c 	lw	s8,12(sp)
b8002824:	00000000 	nop
b8002828:	27bd0010 	addiu	sp,sp,16
b800282c:	03e00008 	jr	ra
b8002830:	00000000 	nop

b8002834 <gspwr_form_adg>:
b8002834:	27bdffe0 	addiu	sp,sp,-32
b8002838:	afbf001c 	sw	ra,28(sp)
b800283c:	afbe0018 	sw	s8,24(sp)
b8002840:	03a0f021 	move	s8,sp
b8002844:	3c02b801 	lui	v0,0xb801
b8002848:	2444d2e0 	addiu	a0,v0,-11552
b800284c:	0e000999 	jal	b8002664 <report_high>
b8002850:	00000000 	nop
b8002854:	afc00010 	sw	zero,16(s8)
b8002858:	0a000a2c 	j	b80028b0 <gspwr_form_adg+0x7c>
b800285c:	00000000 	nop
b8002860:	3c02b801 	lui	v0,0xb801
b8002864:	8c44cd2c 	lw	a0,-13012(v0)
b8002868:	00000000 	nop
b800286c:	24030002 	li	v1,2
b8002870:	8fc20010 	lw	v0,16(s8)
	...
b800287c:	00431804 	sllv	v1,v1,v0
b8002880:	8fc20010 	lw	v0,16(s8)
	...
b800288c:	2442003a 	addiu	v0,v0,58
b8002890:	00021080 	sll	v0,v0,0x2
b8002894:	00821021 	addu	v0,a0,v0
b8002898:	ac430004 	sw	v1,4(v0)
b800289c:	8fc20010 	lw	v0,16(s8)
	...
b80028a8:	24420001 	addiu	v0,v0,1
b80028ac:	afc20010 	sw	v0,16(s8)
b80028b0:	8fc20010 	lw	v0,16(s8)
	...
b80028bc:	28420006 	slti	v0,v0,6
b80028c0:	1440ffe7 	bnez	v0,b8002860 <gspwr_form_adg+0x2c>
b80028c4:	00000000 	nop
b80028c8:	03c0e821 	move	sp,s8
b80028cc:	8fbf001c 	lw	ra,28(sp)
b80028d0:	00000000 	nop
b80028d4:	8fbe0018 	lw	s8,24(sp)
b80028d8:	00000000 	nop
b80028dc:	27bd0020 	addiu	sp,sp,32
b80028e0:	03e00008 	jr	ra
b80028e4:	00000000 	nop

b80028e8 <set_transmit_speed>:
b80028e8:	27bdfff0 	addiu	sp,sp,-16
b80028ec:	afbe000c 	sw	s8,12(sp)
b80028f0:	03a0f021 	move	s8,sp
b80028f4:	afc40010 	sw	a0,16(s8)
b80028f8:	afc50014 	sw	a1,20(s8)
b80028fc:	00c01021 	move	v0,a2
b8002900:	a3c20018 	sb	v0,24(s8)
b8002904:	8fc20010 	lw	v0,16(s8)
	...
b8002910:	2c430002 	sltiu	v1,v0,2
b8002914:	14600006 	bnez	v1,b8002930 <set_transmit_speed+0x48>
b8002918:	00000000 	nop
b800291c:	2c420006 	sltiu	v0,v0,6
b8002920:	10400114 	beqz	v0,b8002d74 <set_transmit_speed+0x48c>
b8002924:	00000000 	nop
b8002928:	0a000ab4 	j	b8002ad0 <set_transmit_speed+0x1e8>
b800292c:	00000000 	nop
b8002930:	8fc20014 	lw	v0,20(s8)
	...
b800293c:	14400011 	bnez	v0,b8002984 <set_transmit_speed+0x9c>
b8002940:	00000000 	nop
b8002944:	3c02b801 	lui	v0,0xb801
b8002948:	8c43cd2c 	lw	v1,-13012(v0)
b800294c:	00000000 	nop
b8002950:	8fc20010 	lw	v0,16(s8)
	...
b800295c:	2442002e 	addiu	v0,v0,46
b8002960:	00021080 	sll	v0,v0,0x2
b8002964:	00621021 	addu	v0,v1,v0
b8002968:	8c420004 	lw	v0,4(v0)
	...
b8002974:	304203ff 	andi	v0,v0,0x3ff
b8002978:	afc20014 	sw	v0,20(s8)
b800297c:	0a000a71 	j	b80029c4 <set_transmit_speed+0xdc>
b8002980:	00000000 	nop
b8002984:	8fc20014 	lw	v0,20(s8)
	...
b8002990:	28420005 	slti	v0,v0,5
b8002994:	1440000b 	bnez	v0,b80029c4 <set_transmit_speed+0xdc>
b8002998:	00000000 	nop
b800299c:	8fc20014 	lw	v0,20(s8)
b80029a0:	00000000 	nop
b80029a4:	3c036666 	lui	v1,0x6666
b80029a8:	34636667 	ori	v1,v1,0x6667
b80029ac:	00430018 	mult	v0,v1
b80029b0:	00001810 	mfhi	v1
b80029b4:	00031843 	sra	v1,v1,0x1
b80029b8:	000217c3 	sra	v0,v0,0x1f
b80029bc:	00621023 	subu	v0,v1,v0
b80029c0:	afc20014 	sw	v0,20(s8)
b80029c4:	93c20018 	lbu	v0,24(s8)
	...
b80029d0:	10400008 	beqz	v0,b80029f4 <set_transmit_speed+0x10c>
b80029d4:	00000000 	nop
b80029d8:	8fc20014 	lw	v0,20(s8)
	...
b80029e4:	34420300 	ori	v0,v0,0x300
b80029e8:	afc20014 	sw	v0,20(s8)
b80029ec:	0a000a82 	j	b8002a08 <set_transmit_speed+0x120>
b80029f0:	00000000 	nop
b80029f4:	8fc30014 	lw	v1,20(s8)
b80029f8:	00000000 	nop
b80029fc:	2402fcff 	li	v0,-769
b8002a00:	00621024 	and	v0,v1,v0
b8002a04:	afc20014 	sw	v0,20(s8)
b8002a08:	3c02b801 	lui	v0,0xb801
b8002a0c:	8c43cd2c 	lw	v1,-13012(v0)
b8002a10:	00000000 	nop
b8002a14:	8fc20010 	lw	v0,16(s8)
	...
b8002a20:	2442002e 	addiu	v0,v0,46
b8002a24:	00021080 	sll	v0,v0,0x2
b8002a28:	00621021 	addu	v0,v1,v0
b8002a2c:	8c420004 	lw	v0,4(v0)
	...
b8002a38:	afc20000 	sw	v0,0(s8)
b8002a3c:	8fc30000 	lw	v1,0(s8)
b8002a40:	00000000 	nop
b8002a44:	2402fc00 	li	v0,-1024
b8002a48:	00621824 	and	v1,v1,v0
b8002a4c:	8fc20014 	lw	v0,20(s8)
	...
b8002a58:	304203ff 	andi	v0,v0,0x3ff
b8002a5c:	00621025 	or	v0,v1,v0
b8002a60:	afc20000 	sw	v0,0(s8)
b8002a64:	8fc30000 	lw	v1,0(s8)
b8002a68:	00000000 	nop
b8002a6c:	3c02fff0 	lui	v0,0xfff0
b8002a70:	344203ff 	ori	v0,v0,0x3ff
b8002a74:	00621824 	and	v1,v1,v0
b8002a78:	8fc20014 	lw	v0,20(s8)
	...
b8002a84:	304203ff 	andi	v0,v0,0x3ff
b8002a88:	00021280 	sll	v0,v0,0xa
b8002a8c:	00621025 	or	v0,v1,v0
b8002a90:	afc20000 	sw	v0,0(s8)
b8002a94:	3c02b801 	lui	v0,0xb801
b8002a98:	8c43cd2c 	lw	v1,-13012(v0)
b8002a9c:	00000000 	nop
b8002aa0:	8fc20010 	lw	v0,16(s8)
	...
b8002aac:	2442002e 	addiu	v0,v0,46
b8002ab0:	00021080 	sll	v0,v0,0x2
b8002ab4:	00621021 	addu	v0,v1,v0
b8002ab8:	8fc30000 	lw	v1,0(s8)
	...
b8002ac4:	ac430004 	sw	v1,4(v0)
b8002ac8:	0a000b5d 	j	b8002d74 <set_transmit_speed+0x48c>
b8002acc:	00000000 	nop
b8002ad0:	8fc20014 	lw	v0,20(s8)
	...
b8002adc:	18400021 	blez	v0,b8002b64 <set_transmit_speed+0x27c>
b8002ae0:	00000000 	nop
b8002ae4:	3c02b801 	lui	v0,0xb801
b8002ae8:	8c44cd2c 	lw	a0,-13012(v0)
b8002aec:	00000000 	nop
b8002af0:	8fc20010 	lw	v0,16(s8)
	...
b8002afc:	2445fffe 	addiu	a1,v0,-2
b8002b00:	3c02b801 	lui	v0,0xb801
b8002b04:	8c43cd2c 	lw	v1,-13012(v0)
b8002b08:	00000000 	nop
b8002b0c:	8fc20010 	lw	v0,16(s8)
	...
b8002b18:	2442fffe 	addiu	v0,v0,-2
b8002b1c:	24420044 	addiu	v0,v0,68
b8002b20:	00021080 	sll	v0,v0,0x2
b8002b24:	00621021 	addu	v0,v1,v0
b8002b28:	8c430004 	lw	v1,4(v0)
b8002b2c:	00000000 	nop
b8002b30:	3c02fff0 	lui	v0,0xfff0
b8002b34:	34421fff 	ori	v0,v0,0x1fff
b8002b38:	00621824 	and	v1,v1,v0
b8002b3c:	8fc20014 	lw	v0,20(s8)
	...
b8002b48:	3042007f 	andi	v0,v0,0x7f
b8002b4c:	00021340 	sll	v0,v0,0xd
b8002b50:	00621825 	or	v1,v1,v0
b8002b54:	24a20044 	addiu	v0,a1,68
b8002b58:	00021080 	sll	v0,v0,0x2
b8002b5c:	00821021 	addu	v0,a0,v0
b8002b60:	ac430004 	sw	v1,4(v0)
b8002b64:	3c02b801 	lui	v0,0xb801
b8002b68:	8c43cd2c 	lw	v1,-13012(v0)
b8002b6c:	00000000 	nop
b8002b70:	8fc20010 	lw	v0,16(s8)
	...
b8002b7c:	2442fffe 	addiu	v0,v0,-2
b8002b80:	24420044 	addiu	v0,v0,68
b8002b84:	00021080 	sll	v0,v0,0x2
b8002b88:	00621021 	addu	v0,v1,v0
b8002b8c:	8c420004 	lw	v0,4(v0)
	...
b8002b98:	afc20000 	sw	v0,0(s8)
b8002b9c:	8fc30000 	lw	v1,0(s8)
b8002ba0:	00000000 	nop
b8002ba4:	2402f3ff 	li	v0,-3073
b8002ba8:	00621024 	and	v0,v1,v0
b8002bac:	34420400 	ori	v0,v0,0x400
b8002bb0:	afc20000 	sw	v0,0(s8)
b8002bb4:	3c02b801 	lui	v0,0xb801
b8002bb8:	8c43cd2c 	lw	v1,-13012(v0)
b8002bbc:	00000000 	nop
b8002bc0:	8fc20010 	lw	v0,16(s8)
	...
b8002bcc:	2442fffe 	addiu	v0,v0,-2
b8002bd0:	24420044 	addiu	v0,v0,68
b8002bd4:	00021080 	sll	v0,v0,0x2
b8002bd8:	00621021 	addu	v0,v1,v0
b8002bdc:	8fc30000 	lw	v1,0(s8)
	...
b8002be8:	ac430004 	sw	v1,4(v0)
b8002bec:	3c02b801 	lui	v0,0xb801
b8002bf0:	8c43cd2c 	lw	v1,-13012(v0)
b8002bf4:	00000000 	nop
b8002bf8:	8fc20010 	lw	v0,16(s8)
	...
b8002c04:	2442fffe 	addiu	v0,v0,-2
b8002c08:	24420030 	addiu	v0,v0,48
b8002c0c:	00021080 	sll	v0,v0,0x2
b8002c10:	00621021 	addu	v0,v1,v0
b8002c14:	8c420004 	lw	v0,4(v0)
	...
b8002c20:	afc20000 	sw	v0,0(s8)
b8002c24:	8fc20014 	lw	v0,20(s8)
	...
b8002c30:	28420020 	slti	v0,v0,32
b8002c34:	10400009 	beqz	v0,b8002c5c <set_transmit_speed+0x374>
b8002c38:	00000000 	nop
b8002c3c:	8fc30000 	lw	v1,0(s8)
b8002c40:	00000000 	nop
b8002c44:	2402ffc0 	li	v0,-64
b8002c48:	00621024 	and	v0,v1,v0
b8002c4c:	34420001 	ori	v0,v0,0x1
b8002c50:	afc20000 	sw	v0,0(s8)
b8002c54:	0a000b1d 	j	b8002c74 <set_transmit_speed+0x38c>
b8002c58:	00000000 	nop
b8002c5c:	8fc30000 	lw	v1,0(s8)
b8002c60:	00000000 	nop
b8002c64:	2402ffc0 	li	v0,-64
b8002c68:	00621024 	and	v0,v1,v0
b8002c6c:	34420008 	ori	v0,v0,0x8
b8002c70:	afc20000 	sw	v0,0(s8)
b8002c74:	8fc20000 	lw	v0,0(s8)
	...
b8002c80:	344203c0 	ori	v0,v0,0x3c0
b8002c84:	afc20000 	sw	v0,0(s8)
b8002c88:	8fc30000 	lw	v1,0(s8)
b8002c8c:	00000000 	nop
b8002c90:	2402fbff 	li	v0,-1025
b8002c94:	00621824 	and	v1,v1,v0
b8002c98:	93c20018 	lbu	v0,24(s8)
	...
b8002ca4:	30420001 	andi	v0,v0,0x1
b8002ca8:	00021280 	sll	v0,v0,0xa
b8002cac:	00621025 	or	v0,v1,v0
b8002cb0:	afc20000 	sw	v0,0(s8)
b8002cb4:	8fc30000 	lw	v1,0(s8)
b8002cb8:	00000000 	nop
b8002cbc:	2402f7ff 	li	v0,-2049
b8002cc0:	00621824 	and	v1,v1,v0
b8002cc4:	93c20018 	lbu	v0,24(s8)
	...
b8002cd0:	30420001 	andi	v0,v0,0x1
b8002cd4:	000212c0 	sll	v0,v0,0xb
b8002cd8:	00621025 	or	v0,v1,v0
b8002cdc:	afc20000 	sw	v0,0(s8)
b8002ce0:	8fc30000 	lw	v1,0(s8)
b8002ce4:	00000000 	nop
b8002ce8:	2402efff 	li	v0,-4097
b8002cec:	00621824 	and	v1,v1,v0
b8002cf0:	93c20018 	lbu	v0,24(s8)
	...
b8002cfc:	30420001 	andi	v0,v0,0x1
b8002d00:	00021300 	sll	v0,v0,0xc
b8002d04:	00621025 	or	v0,v1,v0
b8002d08:	afc20000 	sw	v0,0(s8)
b8002d0c:	8fc30000 	lw	v1,0(s8)
b8002d10:	00000000 	nop
b8002d14:	2402dfff 	li	v0,-8193
b8002d18:	00621824 	and	v1,v1,v0
b8002d1c:	93c20018 	lbu	v0,24(s8)
	...
b8002d28:	30420001 	andi	v0,v0,0x1
b8002d2c:	00021340 	sll	v0,v0,0xd
b8002d30:	00621025 	or	v0,v1,v0
b8002d34:	afc20000 	sw	v0,0(s8)
b8002d38:	3c02b801 	lui	v0,0xb801
b8002d3c:	8c43cd2c 	lw	v1,-13012(v0)
b8002d40:	00000000 	nop
b8002d44:	8fc20010 	lw	v0,16(s8)
	...
b8002d50:	2442fffe 	addiu	v0,v0,-2
b8002d54:	24420030 	addiu	v0,v0,48
b8002d58:	00021080 	sll	v0,v0,0x2
b8002d5c:	00621021 	addu	v0,v1,v0
b8002d60:	8fc30000 	lw	v1,0(s8)
	...
b8002d6c:	ac430004 	sw	v1,4(v0)
b8002d70:	00000000 	nop
b8002d74:	03c0e821 	move	sp,s8
b8002d78:	8fbe000c 	lw	s8,12(sp)
b8002d7c:	00000000 	nop
b8002d80:	27bd0010 	addiu	sp,sp,16
b8002d84:	03e00008 	jr	ra
b8002d88:	00000000 	nop

b8002d8c <set_recive_speed>:
b8002d8c:	27bdfff8 	addiu	sp,sp,-8
b8002d90:	afbe0004 	sw	s8,4(sp)
b8002d94:	03a0f021 	move	s8,sp
b8002d98:	afc40008 	sw	a0,8(s8)
b8002d9c:	afc5000c 	sw	a1,12(s8)
b8002da0:	8fc20008 	lw	v0,8(s8)
	...
b8002dac:	2442fffe 	addiu	v0,v0,-2
b8002db0:	2c420004 	sltiu	v0,v0,4
b8002db4:	10400025 	beqz	v0,b8002e4c <set_recive_speed+0xc0>
b8002db8:	00000000 	nop
b8002dbc:	8fc2000c 	lw	v0,12(s8)
	...
b8002dc8:	1840001f 	blez	v0,b8002e48 <set_recive_speed+0xbc>
b8002dcc:	00000000 	nop
b8002dd0:	3c02b801 	lui	v0,0xb801
b8002dd4:	8c44cd2c 	lw	a0,-13012(v0)
b8002dd8:	00000000 	nop
b8002ddc:	8fc20008 	lw	v0,8(s8)
	...
b8002de8:	2445fffe 	addiu	a1,v0,-2
b8002dec:	3c02b801 	lui	v0,0xb801
b8002df0:	8c43cd2c 	lw	v1,-13012(v0)
b8002df4:	00000000 	nop
b8002df8:	8fc20008 	lw	v0,8(s8)
	...
b8002e04:	2442fffe 	addiu	v0,v0,-2
b8002e08:	24420044 	addiu	v0,v0,68
b8002e0c:	00021080 	sll	v0,v0,0x2
b8002e10:	00621021 	addu	v0,v1,v0
b8002e14:	8c430004 	lw	v1,4(v0)
b8002e18:	00000000 	nop
b8002e1c:	2402ff80 	li	v0,-128
b8002e20:	00621824 	and	v1,v1,v0
b8002e24:	8fc2000c 	lw	v0,12(s8)
	...
b8002e30:	3042007f 	andi	v0,v0,0x7f
b8002e34:	00621825 	or	v1,v1,v0
b8002e38:	24a20044 	addiu	v0,a1,68
b8002e3c:	00021080 	sll	v0,v0,0x2
b8002e40:	00821021 	addu	v0,a0,v0
b8002e44:	ac430004 	sw	v1,4(v0)
b8002e48:	00000000 	nop
b8002e4c:	03c0e821 	move	sp,s8
b8002e50:	8fbe0004 	lw	s8,4(sp)
b8002e54:	00000000 	nop
b8002e58:	27bd0008 	addiu	sp,sp,8
b8002e5c:	03e00008 	jr	ra
b8002e60:	00000000 	nop

b8002e64 <make_desc>:
b8002e64:	27bdfff8 	addiu	sp,sp,-8
b8002e68:	afbe0004 	sw	s8,4(sp)
b8002e6c:	03a0f021 	move	s8,sp
b8002e70:	afc40008 	sw	a0,8(s8)
b8002e74:	afc5000c 	sw	a1,12(s8)
b8002e78:	afc60010 	sw	a2,16(s8)
b8002e7c:	8fc3000c 	lw	v1,12(s8)
b8002e80:	00000000 	nop
b8002e84:	3c020fff 	lui	v0,0xfff
b8002e88:	3442ffff 	ori	v0,v0,0xffff
b8002e8c:	00621824 	and	v1,v1,v0
b8002e90:	3c02a000 	lui	v0,0xa000
b8002e94:	00621821 	addu	v1,v1,v0
b8002e98:	8fc20008 	lw	v0,8(s8)
	...
b8002ea4:	ac430000 	sw	v1,0(v0)
b8002ea8:	8fc20008 	lw	v0,8(s8)
	...
b8002eb4:	24420004 	addiu	v0,v0,4
b8002eb8:	8fc30010 	lw	v1,16(s8)
	...
b8002ec4:	ac430000 	sw	v1,0(v0)
b8002ec8:	03c0e821 	move	sp,s8
b8002ecc:	8fbe0004 	lw	s8,4(sp)
b8002ed0:	00000000 	nop
b8002ed4:	27bd0008 	addiu	sp,sp,8
b8002ed8:	03e00008 	jr	ra
b8002edc:	00000000 	nop

b8002ee0 <set_dma_enabled>:
b8002ee0:	27bdfff8 	addiu	sp,sp,-8
b8002ee4:	afbe0004 	sw	s8,4(sp)
b8002ee8:	03a0f021 	move	s8,sp
b8002eec:	00801021 	move	v0,a0
b8002ef0:	a3c20008 	sb	v0,8(s8)
b8002ef4:	3c02b801 	lui	v0,0xb801
b8002ef8:	8c42cd2c 	lw	v0,-13012(v0)
b8002efc:	00000000 	nop
b8002f00:	3c03b801 	lui	v1,0xb801
b8002f04:	8c63cd2c 	lw	v1,-13012(v1)
	...
b8002f10:	8c64000c 	lw	a0,12(v1)
b8002f14:	00000000 	nop
b8002f18:	3c03ff7f 	lui	v1,0xff7f
b8002f1c:	3463ffff 	ori	v1,v1,0xffff
b8002f20:	00832024 	and	a0,a0,v1
b8002f24:	93c30008 	lbu	v1,8(s8)
	...
b8002f30:	30630001 	andi	v1,v1,0x1
b8002f34:	00031dc0 	sll	v1,v1,0x17
b8002f38:	00831825 	or	v1,a0,v1
b8002f3c:	ac43000c 	sw	v1,12(v0)
b8002f40:	03c0e821 	move	sp,s8
b8002f44:	8fbe0004 	lw	s8,4(sp)
b8002f48:	00000000 	nop
b8002f4c:	27bd0008 	addiu	sp,sp,8
b8002f50:	03e00008 	jr	ra
b8002f54:	00000000 	nop

b8002f58 <set_work_enabled>:
b8002f58:	27bdfff8 	addiu	sp,sp,-8
b8002f5c:	afbe0004 	sw	s8,4(sp)
b8002f60:	03a0f021 	move	s8,sp
b8002f64:	00801021 	move	v0,a0
b8002f68:	a3c20008 	sb	v0,8(s8)
b8002f6c:	3c02b801 	lui	v0,0xb801
b8002f70:	8c42cd2c 	lw	v0,-13012(v0)
b8002f74:	00000000 	nop
b8002f78:	3c03b801 	lui	v1,0xb801
b8002f7c:	8c63cd2c 	lw	v1,-13012(v1)
	...
b8002f88:	8c64000c 	lw	a0,12(v1)
b8002f8c:	00000000 	nop
b8002f90:	2403ff00 	li	v1,-256
b8002f94:	00831824 	and	v1,a0,v1
b8002f98:	3463000b 	ori	v1,v1,0xb
b8002f9c:	ac43000c 	sw	v1,12(v0)
b8002fa0:	3c02b801 	lui	v0,0xb801
b8002fa4:	8c42cd2c 	lw	v0,-13012(v0)
b8002fa8:	00000000 	nop
b8002fac:	3c03b801 	lui	v1,0xb801
b8002fb0:	8c63cd2c 	lw	v1,-13012(v1)
	...
b8002fbc:	8c64000c 	lw	a0,12(v1)
b8002fc0:	00000000 	nop
b8002fc4:	3c03fdff 	lui	v1,0xfdff
b8002fc8:	3463ffff 	ori	v1,v1,0xffff
b8002fcc:	00832024 	and	a0,a0,v1
b8002fd0:	93c30008 	lbu	v1,8(s8)
	...
b8002fdc:	30630001 	andi	v1,v1,0x1
b8002fe0:	00031e40 	sll	v1,v1,0x19
b8002fe4:	00831825 	or	v1,a0,v1
b8002fe8:	ac43000c 	sw	v1,12(v0)
b8002fec:	03c0e821 	move	sp,s8
b8002ff0:	8fbe0004 	lw	s8,4(sp)
b8002ff4:	00000000 	nop
b8002ff8:	27bd0008 	addiu	sp,sp,8
b8002ffc:	03e00008 	jr	ra
b8003000:	00000000 	nop

b8003004 <start_connect>:
b8003004:	27bdfff0 	addiu	sp,sp,-16
b8003008:	afbe000c 	sw	s8,12(sp)
b800300c:	03a0f021 	move	s8,sp
b8003010:	afc40010 	sw	a0,16(s8)
b8003014:	8fc20010 	lw	v0,16(s8)
	...
b8003020:	2c420006 	sltiu	v0,v0,6
b8003024:	14400003 	bnez	v0,b8003034 <start_connect+0x30>
b8003028:	00000000 	nop
b800302c:	0a000c4d 	j	b8003134 <start_connect+0x130>
b8003030:	00000000 	nop
b8003034:	3c02b801 	lui	v0,0xb801
b8003038:	8c43cd2c 	lw	v1,-13012(v0)
b800303c:	00000000 	nop
b8003040:	8fc20010 	lw	v0,16(s8)
	...
b800304c:	24420028 	addiu	v0,v0,40
b8003050:	00021080 	sll	v0,v0,0x2
b8003054:	00621021 	addu	v0,v1,v0
b8003058:	8c420004 	lw	v0,4(v0)
	...
b8003064:	afc20000 	sw	v0,0(s8)
b8003068:	8fc20000 	lw	v0,0(s8)
	...
b8003074:	34420004 	ori	v0,v0,0x4
b8003078:	afc20000 	sw	v0,0(s8)
b800307c:	8fc30000 	lw	v1,0(s8)
b8003080:	00000000 	nop
b8003084:	2402fffe 	li	v0,-2
b8003088:	00621024 	and	v0,v1,v0
b800308c:	afc20000 	sw	v0,0(s8)
b8003090:	8fc20000 	lw	v0,0(s8)
	...
b800309c:	34420008 	ori	v0,v0,0x8
b80030a0:	afc20000 	sw	v0,0(s8)
b80030a4:	8fc20000 	lw	v0,0(s8)
	...
b80030b0:	34420002 	ori	v0,v0,0x2
b80030b4:	afc20000 	sw	v0,0(s8)
b80030b8:	8fc30000 	lw	v1,0(s8)
b80030bc:	00000000 	nop
b80030c0:	3c02fff7 	lui	v0,0xfff7
b80030c4:	3442ffff 	ori	v0,v0,0xffff
b80030c8:	00621024 	and	v0,v1,v0
b80030cc:	afc20000 	sw	v0,0(s8)
b80030d0:	8fc30000 	lw	v1,0(s8)
b80030d4:	00000000 	nop
b80030d8:	3c02ff8f 	lui	v0,0xff8f
b80030dc:	3442ffff 	ori	v0,v0,0xffff
b80030e0:	00621024 	and	v0,v1,v0
b80030e4:	afc20000 	sw	v0,0(s8)
b80030e8:	8fc30000 	lw	v1,0(s8)
b80030ec:	00000000 	nop
b80030f0:	3c02fc7f 	lui	v0,0xfc7f
b80030f4:	3442ffff 	ori	v0,v0,0xffff
b80030f8:	00621024 	and	v0,v1,v0
b80030fc:	afc20000 	sw	v0,0(s8)
b8003100:	3c02b801 	lui	v0,0xb801
b8003104:	8c43cd2c 	lw	v1,-13012(v0)
b8003108:	00000000 	nop
b800310c:	8fc20010 	lw	v0,16(s8)
	...
b8003118:	24420028 	addiu	v0,v0,40
b800311c:	00021080 	sll	v0,v0,0x2
b8003120:	00621021 	addu	v0,v1,v0
b8003124:	8fc30000 	lw	v1,0(s8)
	...
b8003130:	ac430004 	sw	v1,4(v0)
b8003134:	03c0e821 	move	sp,s8
b8003138:	8fbe000c 	lw	s8,12(sp)
b800313c:	00000000 	nop
b8003140:	27bd0010 	addiu	sp,sp,16
b8003144:	03e00008 	jr	ra
b8003148:	00000000 	nop

b800314c <get_status>:
b800314c:	27bdffe0 	addiu	sp,sp,-32
b8003150:	afbf001c 	sw	ra,28(sp)
b8003154:	afbe0018 	sw	s8,24(sp)
b8003158:	03a0f021 	move	s8,sp
b800315c:	afc40020 	sw	a0,32(s8)
b8003160:	00a01021 	move	v0,a1
b8003164:	a3c20024 	sb	v0,36(s8)
b8003168:	8fc20020 	lw	v0,32(s8)
	...
b8003174:	2c420006 	sltiu	v0,v0,6
b8003178:	14400004 	bnez	v0,b800318c <get_status+0x40>
b800317c:	00000000 	nop
b8003180:	2402ffff 	li	v0,-1
b8003184:	0a000cb3 	j	b80032cc <get_status+0x180>
b8003188:	00000000 	nop
b800318c:	3c02b801 	lui	v0,0xb801
b8003190:	8c43cd2c 	lw	v1,-13012(v0)
b8003194:	00000000 	nop
b8003198:	8fc20020 	lw	v0,32(s8)
	...
b80031a4:	24420022 	addiu	v0,v0,34
b80031a8:	00021080 	sll	v0,v0,0x2
b80031ac:	00621021 	addu	v0,v1,v0
b80031b0:	8c420004 	lw	v0,4(v0)
	...
b80031bc:	00021102 	srl	v0,v0,0x4
b80031c0:	30420007 	andi	v0,v0,0x7
b80031c4:	afc20010 	sw	v0,16(s8)
b80031c8:	93c20024 	lbu	v0,36(s8)
	...
b80031d4:	1040003b 	beqz	v0,b80032c4 <get_status+0x178>
b80031d8:	00000000 	nop
b80031dc:	8fc20010 	lw	v0,16(s8)
	...
b80031e8:	2c420006 	sltiu	v0,v0,6
b80031ec:	10400031 	beqz	v0,b80032b4 <get_status+0x168>
b80031f0:	00000000 	nop
b80031f4:	8fc20010 	lw	v0,16(s8)
	...
b8003200:	00021880 	sll	v1,v0,0x2
b8003204:	3c02b801 	lui	v0,0xb801
b8003208:	2442d334 	addiu	v0,v0,-11468
b800320c:	00621021 	addu	v0,v1,v0
b8003210:	8c420000 	lw	v0,0(v0)
	...
b800321c:	00400008 	jr	v0
b8003220:	00000000 	nop
b8003224:	3c02b801 	lui	v0,0xb801
b8003228:	2444d2ec 	addiu	a0,v0,-11540
b800322c:	0e000999 	jal	b8002664 <report_high>
b8003230:	00000000 	nop
b8003234:	0a000cb1 	j	b80032c4 <get_status+0x178>
b8003238:	00000000 	nop
b800323c:	3c02b801 	lui	v0,0xb801
b8003240:	2444d2f8 	addiu	a0,v0,-11528
b8003244:	0e000999 	jal	b8002664 <report_high>
b8003248:	00000000 	nop
b800324c:	0a000cb1 	j	b80032c4 <get_status+0x178>
b8003250:	00000000 	nop
b8003254:	3c02b801 	lui	v0,0xb801
b8003258:	2444d304 	addiu	a0,v0,-11516
b800325c:	0e000999 	jal	b8002664 <report_high>
b8003260:	00000000 	nop
b8003264:	0a000cb1 	j	b80032c4 <get_status+0x178>
b8003268:	00000000 	nop
b800326c:	3c02b801 	lui	v0,0xb801
b8003270:	2444d30c 	addiu	a0,v0,-11508
b8003274:	0e000999 	jal	b8002664 <report_high>
b8003278:	00000000 	nop
b800327c:	0a000cb1 	j	b80032c4 <get_status+0x178>
b8003280:	00000000 	nop
b8003284:	3c02b801 	lui	v0,0xb801
b8003288:	2444d314 	addiu	a0,v0,-11500
b800328c:	0e000999 	jal	b8002664 <report_high>
b8003290:	00000000 	nop
b8003294:	0a000cb1 	j	b80032c4 <get_status+0x178>
b8003298:	00000000 	nop
b800329c:	3c02b801 	lui	v0,0xb801
b80032a0:	2444d320 	addiu	a0,v0,-11488
b80032a4:	0e000999 	jal	b8002664 <report_high>
b80032a8:	00000000 	nop
b80032ac:	0a000cb1 	j	b80032c4 <get_status+0x178>
b80032b0:	00000000 	nop
b80032b4:	3c02b801 	lui	v0,0xb801
b80032b8:	2444d324 	addiu	a0,v0,-11484
b80032bc:	0e000999 	jal	b8002664 <report_high>
b80032c0:	00000000 	nop
b80032c4:	8fc20010 	lw	v0,16(s8)
b80032c8:	00000000 	nop
b80032cc:	03c0e821 	move	sp,s8
b80032d0:	8fbf001c 	lw	ra,28(sp)
b80032d4:	00000000 	nop
b80032d8:	8fbe0018 	lw	s8,24(sp)
b80032dc:	00000000 	nop
b80032e0:	27bd0020 	addiu	sp,sp,32
b80032e4:	03e00008 	jr	ra
b80032e8:	00000000 	nop

b80032ec <wait_link_status>:
b80032ec:	27bdffe0 	addiu	sp,sp,-32
b80032f0:	afbf001c 	sw	ra,28(sp)
b80032f4:	afbe0018 	sw	s8,24(sp)
b80032f8:	03a0f021 	move	s8,sp
b80032fc:	afc40020 	sw	a0,32(s8)
b8003300:	afc50024 	sw	a1,36(s8)
b8003304:	afc60028 	sw	a2,40(s8)
b8003308:	afc00010 	sw	zero,16(s8)
b800330c:	0a000cde 	j	b8003378 <wait_link_status+0x8c>
b8003310:	00000000 	nop
b8003314:	8fc20010 	lw	v0,16(s8)
	...
b8003320:	24420001 	addiu	v0,v0,1
b8003324:	afc20010 	sw	v0,16(s8)
b8003328:	8fc30010 	lw	v1,16(s8)
b800332c:	00000000 	nop
b8003330:	8fc20028 	lw	v0,40(s8)
	...
b800333c:	0062102b 	sltu	v0,v1,v0
b8003340:	1440000d 	bnez	v0,b8003378 <wait_link_status+0x8c>
b8003344:	00000000 	nop
b8003348:	8fc20028 	lw	v0,40(s8)
	...
b8003354:	10400008 	beqz	v0,b8003378 <wait_link_status+0x8c>
b8003358:	00000000 	nop
b800335c:	3c02b801 	lui	v0,0xb801
b8003360:	2444d34c 	addiu	a0,v0,-11444
b8003364:	0e000999 	jal	b8002664 <report_high>
b8003368:	00000000 	nop
b800336c:	24020001 	li	v0,1
b8003370:	0a000cea 	j	b80033a8 <wait_link_status+0xbc>
b8003374:	00000000 	nop
b8003378:	8fc40020 	lw	a0,32(s8)
b800337c:	00000000 	nop
b8003380:	00002821 	move	a1,zero
b8003384:	0e000c53 	jal	b800314c <get_status>
b8003388:	00000000 	nop
b800338c:	00401821 	move	v1,v0
b8003390:	8fc20024 	lw	v0,36(s8)
	...
b800339c:	1462ffdd 	bne	v1,v0,b8003314 <wait_link_status+0x28>
b80033a0:	00000000 	nop
b80033a4:	00001021 	move	v0,zero
b80033a8:	03c0e821 	move	sp,s8
b80033ac:	8fbf001c 	lw	ra,28(sp)
b80033b0:	00000000 	nop
b80033b4:	8fbe0018 	lw	s8,24(sp)
b80033b8:	00000000 	nop
b80033bc:	27bd0020 	addiu	sp,sp,32
b80033c0:	03e00008 	jr	ra
b80033c4:	00000000 	nop

b80033c8 <get_rx_speed>:
b80033c8:	27bdfff8 	addiu	sp,sp,-8
b80033cc:	afbe0004 	sw	s8,4(sp)
b80033d0:	03a0f021 	move	s8,sp
b80033d4:	afc40008 	sw	a0,8(s8)
b80033d8:	3c02b801 	lui	v0,0xb801
b80033dc:	8c43cd2c 	lw	v1,-13012(v0)
b80033e0:	00000000 	nop
b80033e4:	8fc20008 	lw	v0,8(s8)
	...
b80033f0:	24420034 	addiu	v0,v0,52
b80033f4:	00021080 	sll	v0,v0,0x2
b80033f8:	00621021 	addu	v0,v1,v0
b80033fc:	8c420004 	lw	v0,4(v0)
b8003400:	00000000 	nop
b8003404:	03c0e821 	move	sp,s8
b8003408:	8fbe0004 	lw	s8,4(sp)
b800340c:	00000000 	nop
b8003410:	27bd0008 	addiu	sp,sp,8
b8003414:	03e00008 	jr	ra
b8003418:	00000000 	nop

b800341c <check_SpW_link_status_run>:
b800341c:	27bdffe0 	addiu	sp,sp,-32
b8003420:	afbf001c 	sw	ra,28(sp)
b8003424:	afbe0018 	sw	s8,24(sp)
b8003428:	03a0f021 	move	s8,sp
b800342c:	afc40020 	sw	a0,32(s8)
b8003430:	afc50024 	sw	a1,36(s8)
b8003434:	8fc40024 	lw	a0,36(s8)
b8003438:	00000000 	nop
b800343c:	00002821 	move	a1,zero
b8003440:	0e000c53 	jal	b800314c <get_status>
b8003444:	00000000 	nop
b8003448:	afc20010 	sw	v0,16(s8)
b800344c:	8fc30010 	lw	v1,16(s8)
b8003450:	00000000 	nop
b8003454:	24020005 	li	v0,5
b8003458:	10620004 	beq	v1,v0,b800346c <check_SpW_link_status_run+0x50>
b800345c:	00000000 	nop
b8003460:	24020001 	li	v0,1
b8003464:	0a000d1c 	j	b8003470 <check_SpW_link_status_run+0x54>
b8003468:	00000000 	nop
b800346c:	00001021 	move	v0,zero
b8003470:	03c0e821 	move	sp,s8
b8003474:	8fbf001c 	lw	ra,28(sp)
b8003478:	00000000 	nop
b800347c:	8fbe0018 	lw	s8,24(sp)
b8003480:	00000000 	nop
b8003484:	27bd0020 	addiu	sp,sp,32
b8003488:	03e00008 	jr	ra
b800348c:	00000000 	nop

b8003490 <turn_off>:
b8003490:	27bdffe0 	addiu	sp,sp,-32
b8003494:	afbf001c 	sw	ra,28(sp)
b8003498:	afbe0018 	sw	s8,24(sp)
b800349c:	03a0f021 	move	s8,sp
b80034a0:	afc40020 	sw	a0,32(s8)
b80034a4:	8fc20020 	lw	v0,32(s8)
	...
b80034b0:	2c420006 	sltiu	v0,v0,6
b80034b4:	14400003 	bnez	v0,b80034c4 <turn_off+0x34>
b80034b8:	00000000 	nop
b80034bc:	0a000d7f 	j	b80035fc <turn_off+0x16c>
b80034c0:	00000000 	nop
b80034c4:	3c02b801 	lui	v0,0xb801
b80034c8:	8c43cd2c 	lw	v1,-13012(v0)
b80034cc:	00000000 	nop
b80034d0:	8fc20020 	lw	v0,32(s8)
	...
b80034dc:	24420028 	addiu	v0,v0,40
b80034e0:	00021080 	sll	v0,v0,0x2
b80034e4:	00621021 	addu	v0,v1,v0
b80034e8:	8c420004 	lw	v0,4(v0)
	...
b80034f4:	afc20010 	sw	v0,16(s8)
b80034f8:	8fc30010 	lw	v1,16(s8)
b80034fc:	00000000 	nop
b8003500:	2402fffb 	li	v0,-5
b8003504:	00621024 	and	v0,v1,v0
b8003508:	afc20010 	sw	v0,16(s8)
b800350c:	8fc20010 	lw	v0,16(s8)
	...
b8003518:	34420001 	ori	v0,v0,0x1
b800351c:	afc20010 	sw	v0,16(s8)
b8003520:	8fc20010 	lw	v0,16(s8)
	...
b800352c:	34420008 	ori	v0,v0,0x8
b8003530:	afc20010 	sw	v0,16(s8)
b8003534:	3c02b801 	lui	v0,0xb801
b8003538:	8c43cd2c 	lw	v1,-13012(v0)
b800353c:	00000000 	nop
b8003540:	8fc20020 	lw	v0,32(s8)
	...
b800354c:	24420028 	addiu	v0,v0,40
b8003550:	00021080 	sll	v0,v0,0x2
b8003554:	00621021 	addu	v0,v1,v0
b8003558:	8fc30010 	lw	v1,16(s8)
	...
b8003564:	ac430004 	sw	v1,4(v0)
b8003568:	3c02b801 	lui	v0,0xb801
b800356c:	8c42cd2c 	lw	v0,-13012(v0)
	...
b8003578:	8c420014 	lw	v0,20(v0)
	...
b8003584:	afc20010 	sw	v0,16(s8)
b8003588:	8fc30010 	lw	v1,16(s8)
b800358c:	00000000 	nop
b8003590:	3c02007e 	lui	v0,0x7e
b8003594:	00621025 	or	v0,v1,v0
b8003598:	afc20010 	sw	v0,16(s8)
b800359c:	8fc30010 	lw	v1,16(s8)
b80035a0:	00000000 	nop
b80035a4:	3c021f80 	lui	v0,0x1f80
b80035a8:	00621025 	or	v0,v1,v0
b80035ac:	afc20010 	sw	v0,16(s8)
b80035b0:	3c02b801 	lui	v0,0xb801
b80035b4:	8c42cd2c 	lw	v0,-13012(v0)
b80035b8:	00000000 	nop
b80035bc:	8fc30010 	lw	v1,16(s8)
	...
b80035c8:	ac430014 	sw	v1,20(v0)
b80035cc:	8fc40020 	lw	a0,32(s8)
b80035d0:	00000000 	nop
b80035d4:	00002821 	move	a1,zero
b80035d8:	00003021 	move	a2,zero
b80035dc:	0e000a3a 	jal	b80028e8 <set_transmit_speed>
b80035e0:	00000000 	nop
b80035e4:	00002021 	move	a0,zero
b80035e8:	0e000bb8 	jal	b8002ee0 <set_dma_enabled>
b80035ec:	00000000 	nop
b80035f0:	00002021 	move	a0,zero
b80035f4:	0e000bd6 	jal	b8002f58 <set_work_enabled>
b80035f8:	00000000 	nop
b80035fc:	03c0e821 	move	sp,s8
b8003600:	8fbf001c 	lw	ra,28(sp)
b8003604:	00000000 	nop
b8003608:	8fbe0018 	lw	s8,24(sp)
b800360c:	00000000 	nop
b8003610:	27bd0020 	addiu	sp,sp,32
b8003614:	03e00008 	jr	ra
b8003618:	00000000 	nop

b800361c <timer_hnlr>:
b800361c:	27bdfff0 	addiu	sp,sp,-16
b8003620:	afbe000c 	sw	s8,12(sp)
b8003624:	03a0f021 	move	s8,sp
b8003628:	afc40010 	sw	a0,16(s8)
b800362c:	3c02b801 	lui	v0,0xb801
b8003630:	24030001 	li	v1,1
b8003634:	ac43dc18 	sw	v1,-9192(v0)
b8003638:	afc00000 	sw	zero,0(s8)
b800363c:	8fc20000 	lw	v0,0(s8)
b8003640:	00000000 	nop
b8003644:	40825800 	mtc0	v0,c0_compare
	...
b8003650:	03c0e821 	move	sp,s8
b8003654:	8fbe000c 	lw	s8,12(sp)
b8003658:	00000000 	nop
b800365c:	27bd0010 	addiu	sp,sp,16
b8003660:	03e00008 	jr	ra
b8003664:	00000000 	nop

b8003668 <dc_hnlr>:
b8003668:	27bdfff8 	addiu	sp,sp,-8
b800366c:	afbe0004 	sw	s8,4(sp)
b8003670:	03a0f021 	move	s8,sp
b8003674:	afc40008 	sw	a0,8(s8)
b8003678:	3c02b801 	lui	v0,0xb801
b800367c:	24030001 	li	v1,1
b8003680:	ac43dc1c 	sw	v1,-9188(v0)
b8003684:	00000000 	nop
b8003688:	0000004d 	break	0x0,0x1
b800368c:	00000000 	nop
b8003690:	03c0e821 	move	sp,s8
b8003694:	8fbe0004 	lw	s8,4(sp)
b8003698:	00000000 	nop
b800369c:	27bd0008 	addiu	sp,sp,8
b80036a0:	03e00008 	jr	ra
b80036a4:	00000000 	nop

b80036a8 <reverse>:
b80036a8:	27bdffd8 	addiu	sp,sp,-40
b80036ac:	afbf0024 	sw	ra,36(sp)
b80036b0:	afbe0020 	sw	s8,32(sp)
b80036b4:	03a0f021 	move	s8,sp
b80036b8:	afc40028 	sw	a0,40(s8)
b80036bc:	afc00010 	sw	zero,16(s8)
b80036c0:	8fc40028 	lw	a0,40(s8)
b80036c4:	00000000 	nop
b80036c8:	0e00318e 	jal	b800c638 <strlen>
b80036cc:	00000000 	nop
b80036d0:	2442ffff 	addiu	v0,v0,-1
b80036d4:	afc20014 	sw	v0,20(s8)
b80036d8:	0a000de6 	j	b8003798 <reverse+0xf0>
b80036dc:	00000000 	nop
b80036e0:	8fc20010 	lw	v0,16(s8)
b80036e4:	00000000 	nop
b80036e8:	8fc30028 	lw	v1,40(s8)
	...
b80036f4:	00621021 	addu	v0,v1,v0
b80036f8:	90420000 	lbu	v0,0(v0)
	...
b8003704:	a3c20018 	sb	v0,24(s8)
b8003708:	8fc20010 	lw	v0,16(s8)
b800370c:	00000000 	nop
b8003710:	8fc30028 	lw	v1,40(s8)
	...
b800371c:	00621021 	addu	v0,v1,v0
b8003720:	8fc30014 	lw	v1,20(s8)
b8003724:	00000000 	nop
b8003728:	8fc40028 	lw	a0,40(s8)
	...
b8003734:	00831821 	addu	v1,a0,v1
b8003738:	80630000 	lb	v1,0(v1)
	...
b8003744:	a0430000 	sb	v1,0(v0)
b8003748:	8fc20014 	lw	v0,20(s8)
b800374c:	00000000 	nop
b8003750:	8fc30028 	lw	v1,40(s8)
	...
b800375c:	00621021 	addu	v0,v1,v0
b8003760:	93c30018 	lbu	v1,24(s8)
	...
b800376c:	a0430000 	sb	v1,0(v0)
b8003770:	8fc20010 	lw	v0,16(s8)
	...
b800377c:	24420001 	addiu	v0,v0,1
b8003780:	afc20010 	sw	v0,16(s8)
b8003784:	8fc20014 	lw	v0,20(s8)
	...
b8003790:	2442ffff 	addiu	v0,v0,-1
b8003794:	afc20014 	sw	v0,20(s8)
b8003798:	8fc30010 	lw	v1,16(s8)
b800379c:	00000000 	nop
b80037a0:	8fc20014 	lw	v0,20(s8)
	...
b80037ac:	0062102a 	slt	v0,v1,v0
b80037b0:	1440ffcb 	bnez	v0,b80036e0 <reverse+0x38>
b80037b4:	00000000 	nop
b80037b8:	03c0e821 	move	sp,s8
b80037bc:	8fbf0024 	lw	ra,36(sp)
b80037c0:	00000000 	nop
b80037c4:	8fbe0020 	lw	s8,32(sp)
b80037c8:	00000000 	nop
b80037cc:	27bd0028 	addiu	sp,sp,40
b80037d0:	03e00008 	jr	ra
b80037d4:	00000000 	nop

b80037d8 <itoa>:
b80037d8:	27bdffe0 	addiu	sp,sp,-32
b80037dc:	afbf001c 	sw	ra,28(sp)
b80037e0:	afbe0018 	sw	s8,24(sp)
b80037e4:	03a0f021 	move	s8,sp
b80037e8:	afc40020 	sw	a0,32(s8)
b80037ec:	afc50024 	sw	a1,36(s8)
b80037f0:	8fc20020 	lw	v0,32(s8)
	...
b80037fc:	afc20014 	sw	v0,20(s8)
b8003800:	8fc20014 	lw	v0,20(s8)
	...
b800380c:	04410006 	bgez	v0,b8003828 <itoa+0x50>
b8003810:	00000000 	nop
b8003814:	8fc20020 	lw	v0,32(s8)
	...
b8003820:	00021023 	negu	v0,v0
b8003824:	afc20020 	sw	v0,32(s8)
b8003828:	afc00010 	sw	zero,16(s8)
b800382c:	8fc20010 	lw	v0,16(s8)
	...
b8003838:	24430001 	addiu	v1,v0,1
b800383c:	afc30010 	sw	v1,16(s8)
b8003840:	8fc30024 	lw	v1,36(s8)
	...
b800384c:	00623021 	addu	a2,v1,v0
b8003850:	8fc30020 	lw	v1,32(s8)
b8003854:	00000000 	nop
b8003858:	3c026666 	lui	v0,0x6666
b800385c:	34426667 	ori	v0,v0,0x6667
b8003860:	00620018 	mult	v1,v0
b8003864:	00002012 	mflo	a0
b8003868:	00002810 	mfhi	a1
b800386c:	00052083 	sra	a0,a1,0x2
b8003870:	000317c3 	sra	v0,v1,0x1f
b8003874:	00821023 	subu	v0,a0,v0
b8003878:	00021040 	sll	v0,v0,0x1
b800387c:	00022080 	sll	a0,v0,0x2
b8003880:	00441021 	addu	v0,v0,a0
b8003884:	00621023 	subu	v0,v1,v0
b8003888:	304200ff 	andi	v0,v0,0xff
b800388c:	24420030 	addiu	v0,v0,48
b8003890:	304200ff 	andi	v0,v0,0xff
b8003894:	00021600 	sll	v0,v0,0x18
b8003898:	00021603 	sra	v0,v0,0x18
b800389c:	a0c20000 	sb	v0,0(a2)
b80038a0:	8fc20020 	lw	v0,32(s8)
b80038a4:	00000000 	nop
b80038a8:	3c036666 	lui	v1,0x6666
b80038ac:	34636667 	ori	v1,v1,0x6667
b80038b0:	00430018 	mult	v0,v1
b80038b4:	00001810 	mfhi	v1
b80038b8:	00031883 	sra	v1,v1,0x2
b80038bc:	000217c3 	sra	v0,v0,0x1f
b80038c0:	00621023 	subu	v0,v1,v0
b80038c4:	afc20020 	sw	v0,32(s8)
b80038c8:	8fc20020 	lw	v0,32(s8)
	...
b80038d4:	1c40ffd5 	bgtz	v0,b800382c <itoa+0x54>
b80038d8:	00000000 	nop
b80038dc:	8fc20014 	lw	v0,20(s8)
	...
b80038e8:	0441000c 	bgez	v0,b800391c <itoa+0x144>
b80038ec:	00000000 	nop
b80038f0:	8fc20010 	lw	v0,16(s8)
	...
b80038fc:	24430001 	addiu	v1,v0,1
b8003900:	afc30010 	sw	v1,16(s8)
b8003904:	8fc30024 	lw	v1,36(s8)
	...
b8003910:	00621021 	addu	v0,v1,v0
b8003914:	2403002d 	li	v1,45
b8003918:	a0430000 	sb	v1,0(v0)
b800391c:	8fc20010 	lw	v0,16(s8)
b8003920:	00000000 	nop
b8003924:	8fc30024 	lw	v1,36(s8)
	...
b8003930:	00621021 	addu	v0,v1,v0
b8003934:	a0400000 	sb	zero,0(v0)
b8003938:	8fc40024 	lw	a0,36(s8)
b800393c:	00000000 	nop
b8003940:	0e000daa 	jal	b80036a8 <reverse>
b8003944:	00000000 	nop
b8003948:	03c0e821 	move	sp,s8
b800394c:	8fbf001c 	lw	ra,28(sp)
b8003950:	00000000 	nop
b8003954:	8fbe0018 	lw	s8,24(sp)
b8003958:	00000000 	nop
b800395c:	27bd0020 	addiu	sp,sp,32
b8003960:	03e00008 	jr	ra
b8003964:	00000000 	nop

b8003968 <itox>:
b8003968:	27bdfff0 	addiu	sp,sp,-16
b800396c:	afbe000c 	sw	s8,12(sp)
b8003970:	03a0f021 	move	s8,sp
b8003974:	afc40010 	sw	a0,16(s8)
b8003978:	afc50014 	sw	a1,20(s8)
b800397c:	8fc20014 	lw	v0,20(s8)
	...
b8003988:	24420008 	addiu	v0,v0,8
b800398c:	afc20014 	sw	v0,20(s8)
b8003990:	8fc20014 	lw	v0,20(s8)
	...
b800399c:	a0400000 	sb	zero,0(v0)
b80039a0:	24020008 	li	v0,8
b80039a4:	a3c20000 	sb	v0,0(s8)
b80039a8:	0a000e88 	j	b8003a20 <itox+0xb8>
b80039ac:	00000000 	nop
b80039b0:	8fc20014 	lw	v0,20(s8)
	...
b80039bc:	2442ffff 	addiu	v0,v0,-1
b80039c0:	afc20014 	sw	v0,20(s8)
b80039c4:	8fc20010 	lw	v0,16(s8)
	...
b80039d0:	3043000f 	andi	v1,v0,0xf
b80039d4:	3c02b801 	lui	v0,0xb801
b80039d8:	2442d35c 	addiu	v0,v0,-11428
b80039dc:	00621021 	addu	v0,v1,v0
b80039e0:	80430000 	lb	v1,0(v0)
b80039e4:	00000000 	nop
b80039e8:	8fc20014 	lw	v0,20(s8)
	...
b80039f4:	a0430000 	sb	v1,0(v0)
b80039f8:	8fc20010 	lw	v0,16(s8)
	...
b8003a04:	00021102 	srl	v0,v0,0x4
b8003a08:	afc20010 	sw	v0,16(s8)
b8003a0c:	93c20000 	lbu	v0,0(s8)
	...
b8003a18:	2442ffff 	addiu	v0,v0,-1
b8003a1c:	a3c20000 	sb	v0,0(s8)
b8003a20:	93c20000 	lbu	v0,0(s8)
	...
b8003a2c:	1440ffe0 	bnez	v0,b80039b0 <itox+0x48>
b8003a30:	00000000 	nop
b8003a34:	03c0e821 	move	sp,s8
b8003a38:	8fbe000c 	lw	s8,12(sp)
b8003a3c:	00000000 	nop
b8003a40:	27bd0010 	addiu	sp,sp,16
b8003a44:	03e00008 	jr	ra
b8003a48:	00000000 	nop

b8003a4c <UART1_conf>:
b8003a4c:	27bdfff0 	addiu	sp,sp,-16
b8003a50:	afbe000c 	sw	s8,12(sp)
b8003a54:	03a0f021 	move	s8,sp
b8003a58:	afc40010 	sw	a0,16(s8)
b8003a5c:	afc50014 	sw	a1,20(s8)
b8003a60:	8fc20010 	lw	v0,16(s8)
	...
b8003a6c:	00021100 	sll	v0,v0,0x4
b8003a70:	8fc30014 	lw	v1,20(s8)
	...
b8003a7c:	0062001a 	div	zero,v1,v0
b8003a80:	004001f4 	teq	v0,zero,0x7
b8003a84:	00001810 	mfhi	v1
b8003a88:	00001012 	mflo	v0
b8003a8c:	afc20000 	sw	v0,0(s8)
b8003a90:	3c02b82f 	lui	v0,0xb82f
b8003a94:	3442340c 	ori	v0,v0,0x340c
b8003a98:	24030080 	li	v1,128
b8003a9c:	ac430000 	sw	v1,0(v0)
b8003aa0:	3c02b82f 	lui	v0,0xb82f
b8003aa4:	34423414 	ori	v0,v0,0x3414
b8003aa8:	ac400000 	sw	zero,0(v0)
b8003aac:	3c02b82f 	lui	v0,0xb82f
b8003ab0:	34423400 	ori	v0,v0,0x3400
b8003ab4:	8fc30000 	lw	v1,0(s8)
	...
b8003ac0:	306300ff 	andi	v1,v1,0xff
b8003ac4:	ac430000 	sw	v1,0(v0)
b8003ac8:	3c02b82f 	lui	v0,0xb82f
b8003acc:	34423404 	ori	v0,v0,0x3404
b8003ad0:	8fc30000 	lw	v1,0(s8)
	...
b8003adc:	00031a03 	sra	v1,v1,0x8
b8003ae0:	ac430000 	sw	v1,0(v0)
b8003ae4:	3c02b82f 	lui	v0,0xb82f
b8003ae8:	3442340c 	ori	v0,v0,0x340c
b8003aec:	24030003 	li	v1,3
b8003af0:	ac430000 	sw	v1,0(v0)
b8003af4:	03c0e821 	move	sp,s8
b8003af8:	8fbe000c 	lw	s8,12(sp)
b8003afc:	00000000 	nop
b8003b00:	27bd0010 	addiu	sp,sp,16
b8003b04:	03e00008 	jr	ra
b8003b08:	00000000 	nop

b8003b0c <UART0_conf>:
b8003b0c:	27bdfff0 	addiu	sp,sp,-16
b8003b10:	afbe000c 	sw	s8,12(sp)
b8003b14:	03a0f021 	move	s8,sp
b8003b18:	afc40010 	sw	a0,16(s8)
b8003b1c:	afc50014 	sw	a1,20(s8)
b8003b20:	8fc20010 	lw	v0,16(s8)
	...
b8003b2c:	00021100 	sll	v0,v0,0x4
b8003b30:	8fc30014 	lw	v1,20(s8)
	...
b8003b3c:	0062001a 	div	zero,v1,v0
b8003b40:	004001f4 	teq	v0,zero,0x7
b8003b44:	00001810 	mfhi	v1
b8003b48:	00001012 	mflo	v0
b8003b4c:	afc20000 	sw	v0,0(s8)
b8003b50:	3c02b82f 	lui	v0,0xb82f
b8003b54:	3442300c 	ori	v0,v0,0x300c
b8003b58:	24030080 	li	v1,128
b8003b5c:	ac430000 	sw	v1,0(v0)
b8003b60:	3c02b82f 	lui	v0,0xb82f
b8003b64:	34423014 	ori	v0,v0,0x3014
b8003b68:	ac400000 	sw	zero,0(v0)
b8003b6c:	3c02b82f 	lui	v0,0xb82f
b8003b70:	34423000 	ori	v0,v0,0x3000
b8003b74:	8fc30000 	lw	v1,0(s8)
	...
b8003b80:	306300ff 	andi	v1,v1,0xff
b8003b84:	ac430000 	sw	v1,0(v0)
b8003b88:	3c02b82f 	lui	v0,0xb82f
b8003b8c:	34423004 	ori	v0,v0,0x3004
b8003b90:	8fc30000 	lw	v1,0(s8)
	...
b8003b9c:	00031a03 	sra	v1,v1,0x8
b8003ba0:	ac430000 	sw	v1,0(v0)
b8003ba4:	3c02b82f 	lui	v0,0xb82f
b8003ba8:	3442300c 	ori	v0,v0,0x300c
b8003bac:	24030003 	li	v1,3
b8003bb0:	ac430000 	sw	v1,0(v0)
b8003bb4:	03c0e821 	move	sp,s8
b8003bb8:	8fbe000c 	lw	s8,12(sp)
b8003bbc:	00000000 	nop
b8003bc0:	27bd0010 	addiu	sp,sp,16
b8003bc4:	03e00008 	jr	ra
b8003bc8:	00000000 	nop

b8003bcc <UART_sendByte>:
b8003bcc:	27bdfff8 	addiu	sp,sp,-8
b8003bd0:	afbe0004 	sw	s8,4(sp)
b8003bd4:	03a0f021 	move	s8,sp
b8003bd8:	00801021 	move	v0,a0
b8003bdc:	a3c20008 	sb	v0,8(s8)
b8003be0:	3c02b82f 	lui	v0,0xb82f
b8003be4:	34423400 	ori	v0,v0,0x3400
b8003be8:	83c30008 	lb	v1,8(s8)
	...
b8003bf4:	ac430000 	sw	v1,0(v0)
b8003bf8:	00000000 	nop
b8003bfc:	3c02b82f 	lui	v0,0xb82f
b8003c00:	34423414 	ori	v0,v0,0x3414
b8003c04:	8c420000 	lw	v0,0(v0)
	...
b8003c10:	30430060 	andi	v1,v0,0x60
b8003c14:	24020060 	li	v0,96
b8003c18:	1462fff8 	bne	v1,v0,b8003bfc <UART_sendByte+0x30>
b8003c1c:	00000000 	nop
b8003c20:	03c0e821 	move	sp,s8
b8003c24:	8fbe0004 	lw	s8,4(sp)
b8003c28:	00000000 	nop
b8003c2c:	27bd0008 	addiu	sp,sp,8
b8003c30:	03e00008 	jr	ra
b8003c34:	00000000 	nop

b8003c38 <UART_receiveByte>:
b8003c38:	27bdfff0 	addiu	sp,sp,-16
b8003c3c:	afbe000c 	sw	s8,12(sp)
b8003c40:	03a0f021 	move	s8,sp
b8003c44:	00000000 	nop
b8003c48:	3c02b82f 	lui	v0,0xb82f
b8003c4c:	34423414 	ori	v0,v0,0x3414
b8003c50:	8c420000 	lw	v0,0(v0)
	...
b8003c5c:	30420001 	andi	v0,v0,0x1
b8003c60:	1040fff9 	beqz	v0,b8003c48 <UART_receiveByte+0x10>
b8003c64:	00000000 	nop
b8003c68:	3c02b82f 	lui	v0,0xb82f
b8003c6c:	34423400 	ori	v0,v0,0x3400
b8003c70:	8c420000 	lw	v0,0(v0)
	...
b8003c7c:	a3c20000 	sb	v0,0(s8)
b8003c80:	83c20000 	lb	v0,0(s8)
b8003c84:	00000000 	nop
b8003c88:	03c0e821 	move	sp,s8
b8003c8c:	8fbe000c 	lw	s8,12(sp)
b8003c90:	00000000 	nop
b8003c94:	27bd0010 	addiu	sp,sp,16
b8003c98:	03e00008 	jr	ra
b8003c9c:	00000000 	nop

b8003ca0 <Transf>:
b8003ca0:	27bdffe8 	addiu	sp,sp,-24
b8003ca4:	afbf0014 	sw	ra,20(sp)
b8003ca8:	afbe0010 	sw	s8,16(sp)
b8003cac:	03a0f021 	move	s8,sp
b8003cb0:	afc40018 	sw	a0,24(s8)
b8003cb4:	0a000f3a 	j	b8003ce8 <Transf+0x48>
b8003cb8:	00000000 	nop
b8003cbc:	8fc20018 	lw	v0,24(s8)
	...
b8003cc8:	24430001 	addiu	v1,v0,1
b8003ccc:	afc30018 	sw	v1,24(s8)
b8003cd0:	80420000 	lb	v0,0(v0)
	...
b8003cdc:	00402021 	move	a0,v0
b8003ce0:	0e000ef3 	jal	b8003bcc <UART_sendByte>
b8003ce4:	00000000 	nop
b8003ce8:	8fc20018 	lw	v0,24(s8)
	...
b8003cf4:	80420000 	lb	v0,0(v0)
	...
b8003d00:	1440ffee 	bnez	v0,b8003cbc <Transf+0x1c>
b8003d04:	00000000 	nop
b8003d08:	0e001036 	jal	b80040d8 <UART_conrol>
b8003d0c:	00000000 	nop
b8003d10:	03c0e821 	move	sp,s8
b8003d14:	8fbf0014 	lw	ra,20(sp)
b8003d18:	00000000 	nop
b8003d1c:	8fbe0010 	lw	s8,16(sp)
b8003d20:	00000000 	nop
b8003d24:	27bd0018 	addiu	sp,sp,24
b8003d28:	03e00008 	jr	ra
b8003d2c:	00000000 	nop

b8003d30 <tx_uart>:
b8003d30:	27bdffe0 	addiu	sp,sp,-32
b8003d34:	afbf001c 	sw	ra,28(sp)
b8003d38:	afbe0018 	sw	s8,24(sp)
b8003d3c:	03a0f021 	move	s8,sp
b8003d40:	afc40020 	sw	a0,32(s8)
b8003d44:	00a01021 	move	v0,a1
b8003d48:	a7c20024 	sh	v0,36(s8)
b8003d4c:	a7c00010 	sh	zero,16(s8)
b8003d50:	a7c00010 	sh	zero,16(s8)
b8003d54:	0a000f67 	j	b8003d9c <tx_uart+0x6c>
b8003d58:	00000000 	nop
b8003d5c:	8fc20020 	lw	v0,32(s8)
	...
b8003d68:	24430001 	addiu	v1,v0,1
b8003d6c:	afc30020 	sw	v1,32(s8)
b8003d70:	80420000 	lb	v0,0(v0)
	...
b8003d7c:	00402021 	move	a0,v0
b8003d80:	0e000ef3 	jal	b8003bcc <UART_sendByte>
b8003d84:	00000000 	nop
b8003d88:	97c20010 	lhu	v0,16(s8)
	...
b8003d94:	24420001 	addiu	v0,v0,1
b8003d98:	a7c20010 	sh	v0,16(s8)
b8003d9c:	97c30010 	lhu	v1,16(s8)
b8003da0:	00000000 	nop
b8003da4:	97c20024 	lhu	v0,36(s8)
	...
b8003db0:	0062102b 	sltu	v0,v1,v0
b8003db4:	1440ffe9 	bnez	v0,b8003d5c <tx_uart+0x2c>
b8003db8:	00000000 	nop
b8003dbc:	03c0e821 	move	sp,s8
b8003dc0:	8fbf001c 	lw	ra,28(sp)
b8003dc4:	00000000 	nop
b8003dc8:	8fbe0018 	lw	s8,24(sp)
b8003dcc:	00000000 	nop
b8003dd0:	27bd0020 	addiu	sp,sp,32
b8003dd4:	03e00008 	jr	ra
b8003dd8:	00000000 	nop

b8003ddc <u_out>:
b8003ddc:	27bdffe8 	addiu	sp,sp,-24
b8003de0:	afbf0014 	sw	ra,20(sp)
b8003de4:	afbe0010 	sw	s8,16(sp)
b8003de8:	03a0f021 	move	s8,sp
b8003dec:	afc40018 	sw	a0,24(s8)
b8003df0:	afc5001c 	sw	a1,28(s8)
b8003df4:	8fc40018 	lw	a0,24(s8)
b8003df8:	00000000 	nop
b8003dfc:	0e000f28 	jal	b8003ca0 <Transf>
b8003e00:	00000000 	nop
b8003e04:	8fc2001c 	lw	v0,28(s8)
	...
b8003e10:	00402021 	move	a0,v0
b8003e14:	3c02b801 	lui	v0,0xb801
b8003e18:	2445eb58 	addiu	a1,v0,-5288
b8003e1c:	0e000df6 	jal	b80037d8 <itoa>
b8003e20:	00000000 	nop
b8003e24:	3c02b801 	lui	v0,0xb801
b8003e28:	2444eb58 	addiu	a0,v0,-5288
b8003e2c:	0e000f28 	jal	b8003ca0 <Transf>
b8003e30:	00000000 	nop
b8003e34:	3c02b801 	lui	v0,0xb801
b8003e38:	2444d370 	addiu	a0,v0,-11408
b8003e3c:	0e000f28 	jal	b8003ca0 <Transf>
b8003e40:	00000000 	nop
b8003e44:	03c0e821 	move	sp,s8
b8003e48:	8fbf0014 	lw	ra,20(sp)
b8003e4c:	00000000 	nop
b8003e50:	8fbe0010 	lw	s8,16(sp)
b8003e54:	00000000 	nop
b8003e58:	27bd0018 	addiu	sp,sp,24
b8003e5c:	03e00008 	jr	ra
b8003e60:	00000000 	nop

b8003e64 <x_out>:
b8003e64:	27bdffe8 	addiu	sp,sp,-24
b8003e68:	afbf0014 	sw	ra,20(sp)
b8003e6c:	afbe0010 	sw	s8,16(sp)
b8003e70:	03a0f021 	move	s8,sp
b8003e74:	afc40018 	sw	a0,24(s8)
b8003e78:	afc5001c 	sw	a1,28(s8)
b8003e7c:	8fc40018 	lw	a0,24(s8)
b8003e80:	00000000 	nop
b8003e84:	0e000f28 	jal	b8003ca0 <Transf>
b8003e88:	00000000 	nop
b8003e8c:	8fc4001c 	lw	a0,28(s8)
b8003e90:	00000000 	nop
b8003e94:	3c02b801 	lui	v0,0xb801
b8003e98:	2445eb58 	addiu	a1,v0,-5288
b8003e9c:	0e000e5a 	jal	b8003968 <itox>
b8003ea0:	00000000 	nop
b8003ea4:	3c02b801 	lui	v0,0xb801
b8003ea8:	2444eb58 	addiu	a0,v0,-5288
b8003eac:	0e000f28 	jal	b8003ca0 <Transf>
b8003eb0:	00000000 	nop
b8003eb4:	3c02b801 	lui	v0,0xb801
b8003eb8:	2444d370 	addiu	a0,v0,-11408
b8003ebc:	0e000f28 	jal	b8003ca0 <Transf>
b8003ec0:	00000000 	nop
b8003ec4:	03c0e821 	move	sp,s8
b8003ec8:	8fbf0014 	lw	ra,20(sp)
b8003ecc:	00000000 	nop
b8003ed0:	8fbe0010 	lw	s8,16(sp)
b8003ed4:	00000000 	nop
b8003ed8:	27bd0018 	addiu	sp,sp,24
b8003edc:	03e00008 	jr	ra
b8003ee0:	00000000 	nop

b8003ee4 <xn_out>:
b8003ee4:	27bdffe8 	addiu	sp,sp,-24
b8003ee8:	afbf0014 	sw	ra,20(sp)
b8003eec:	afbe0010 	sw	s8,16(sp)
b8003ef0:	03a0f021 	move	s8,sp
b8003ef4:	afc40018 	sw	a0,24(s8)
b8003ef8:	afc5001c 	sw	a1,28(s8)
b8003efc:	8fc40018 	lw	a0,24(s8)
b8003f00:	00000000 	nop
b8003f04:	0e000f28 	jal	b8003ca0 <Transf>
b8003f08:	00000000 	nop
b8003f0c:	8fc4001c 	lw	a0,28(s8)
b8003f10:	00000000 	nop
b8003f14:	3c02b801 	lui	v0,0xb801
b8003f18:	2445eb58 	addiu	a1,v0,-5288
b8003f1c:	0e000e5a 	jal	b8003968 <itox>
b8003f20:	00000000 	nop
b8003f24:	3c02b801 	lui	v0,0xb801
b8003f28:	2444eb58 	addiu	a0,v0,-5288
b8003f2c:	0e000f28 	jal	b8003ca0 <Transf>
b8003f30:	00000000 	nop
b8003f34:	03c0e821 	move	sp,s8
b8003f38:	8fbf0014 	lw	ra,20(sp)
b8003f3c:	00000000 	nop
b8003f40:	8fbe0010 	lw	s8,16(sp)
b8003f44:	00000000 	nop
b8003f48:	27bd0018 	addiu	sp,sp,24
b8003f4c:	03e00008 	jr	ra
b8003f50:	00000000 	nop

b8003f54 <un_out>:
b8003f54:	27bdffe8 	addiu	sp,sp,-24
b8003f58:	afbf0014 	sw	ra,20(sp)
b8003f5c:	afbe0010 	sw	s8,16(sp)
b8003f60:	03a0f021 	move	s8,sp
b8003f64:	afc40018 	sw	a0,24(s8)
b8003f68:	afc5001c 	sw	a1,28(s8)
b8003f6c:	8fc40018 	lw	a0,24(s8)
b8003f70:	00000000 	nop
b8003f74:	0e000f28 	jal	b8003ca0 <Transf>
b8003f78:	00000000 	nop
b8003f7c:	8fc2001c 	lw	v0,28(s8)
	...
b8003f88:	00402021 	move	a0,v0
b8003f8c:	3c02b801 	lui	v0,0xb801
b8003f90:	2445eb58 	addiu	a1,v0,-5288
b8003f94:	0e000df6 	jal	b80037d8 <itoa>
b8003f98:	00000000 	nop
b8003f9c:	3c02b801 	lui	v0,0xb801
b8003fa0:	2444eb58 	addiu	a0,v0,-5288
b8003fa4:	0e000f28 	jal	b8003ca0 <Transf>
b8003fa8:	00000000 	nop
b8003fac:	03c0e821 	move	sp,s8
b8003fb0:	8fbf0014 	lw	ra,20(sp)
b8003fb4:	00000000 	nop
b8003fb8:	8fbe0010 	lw	s8,16(sp)
b8003fbc:	00000000 	nop
b8003fc0:	27bd0018 	addiu	sp,sp,24
b8003fc4:	03e00008 	jr	ra
b8003fc8:	00000000 	nop

b8003fcc <IER_UART>:
b8003fcc:	27bdfff8 	addiu	sp,sp,-8
b8003fd0:	afbe0004 	sw	s8,4(sp)
b8003fd4:	03a0f021 	move	s8,sp
b8003fd8:	3c02b82f 	lui	v0,0xb82f
b8003fdc:	34423404 	ori	v0,v0,0x3404
b8003fe0:	3c03b82f 	lui	v1,0xb82f
b8003fe4:	34633404 	ori	v1,v1,0x3404
b8003fe8:	8c630000 	lw	v1,0(v1)
	...
b8003ff4:	34630001 	ori	v1,v1,0x1
b8003ff8:	ac430000 	sw	v1,0(v0)
b8003ffc:	03c0e821 	move	sp,s8
b8004000:	8fbe0004 	lw	s8,4(sp)
b8004004:	00000000 	nop
b8004008:	27bd0008 	addiu	sp,sp,8
b800400c:	03e00008 	jr	ra
b8004010:	00000000 	nop

b8004014 <getchar0>:
b8004014:	27bdfff0 	addiu	sp,sp,-16
b8004018:	afbe000c 	sw	s8,12(sp)
b800401c:	03a0f021 	move	s8,sp
b8004020:	00000000 	nop
b8004024:	3c02b801 	lui	v0,0xb801
b8004028:	8c42db8c 	lw	v0,-9332(v0)
	...
b8004034:	1040fffb 	beqz	v0,b8004024 <getchar0+0x10>
b8004038:	00000000 	nop
b800403c:	3c02b801 	lui	v0,0xb801
b8004040:	8c42db84 	lw	v0,-9340(v0)
	...
b800404c:	24440001 	addiu	a0,v0,1
b8004050:	3c03b801 	lui	v1,0xb801
b8004054:	ac64db84 	sw	a0,-9340(v1)
b8004058:	3c03b801 	lui	v1,0xb801
b800405c:	2463e9c8 	addiu	v1,v1,-5688
b8004060:	00431021 	addu	v0,v0,v1
b8004064:	90420000 	lbu	v0,0(v0)
	...
b8004070:	00021600 	sll	v0,v0,0x18
b8004074:	00021603 	sra	v0,v0,0x18
b8004078:	a3c20000 	sb	v0,0(s8)
b800407c:	3c02b801 	lui	v0,0xb801
b8004080:	8c43db84 	lw	v1,-9340(v0)
b8004084:	00000000 	nop
b8004088:	24020040 	li	v0,64
b800408c:	14620003 	bne	v1,v0,b800409c <getchar0+0x88>
b8004090:	00000000 	nop
b8004094:	3c02b801 	lui	v0,0xb801
b8004098:	ac40db84 	sw	zero,-9340(v0)
b800409c:	3c02b801 	lui	v0,0xb801
b80040a0:	8c42db8c 	lw	v0,-9332(v0)
	...
b80040ac:	2443ffff 	addiu	v1,v0,-1
b80040b0:	3c02b801 	lui	v0,0xb801
b80040b4:	ac43db8c 	sw	v1,-9332(v0)
b80040b8:	83c20000 	lb	v0,0(s8)
b80040bc:	00000000 	nop
b80040c0:	03c0e821 	move	sp,s8
b80040c4:	8fbe000c 	lw	s8,12(sp)
b80040c8:	00000000 	nop
b80040cc:	27bd0010 	addiu	sp,sp,16
b80040d0:	03e00008 	jr	ra
b80040d4:	00000000 	nop

b80040d8 <UART_conrol>:
b80040d8:	27bdffd8 	addiu	sp,sp,-40
b80040dc:	afbf0024 	sw	ra,36(sp)
b80040e0:	afbe0020 	sw	s8,32(sp)
b80040e4:	afb0001c 	sw	s0,28(sp)
b80040e8:	03a0f021 	move	s8,sp
b80040ec:	a7c00010 	sh	zero,16(s8)
b80040f0:	a7c00012 	sh	zero,18(s8)
b80040f4:	3c02b801 	lui	v0,0xb801
b80040f8:	8c42db8c 	lw	v0,-9332(v0)
	...
b8004104:	1040004a 	beqz	v0,b8004230 <UART_conrol+0x158>
b8004108:	00000000 	nop
b800410c:	3c02b801 	lui	v0,0xb801
b8004110:	8c42db8c 	lw	v0,-9332(v0)
	...
b800411c:	2c420040 	sltiu	v0,v0,64
b8004120:	10400008 	beqz	v0,b8004144 <UART_conrol+0x6c>
b8004124:	00000000 	nop
b8004128:	3c02b801 	lui	v0,0xb801
b800412c:	8c42db8c 	lw	v0,-9332(v0)
	...
b8004138:	a7c20012 	sh	v0,18(s8)
b800413c:	0a001053 	j	b800414c <UART_conrol+0x74>
b8004140:	00000000 	nop
b8004144:	24020040 	li	v0,64
b8004148:	a7c20012 	sh	v0,18(s8)
b800414c:	a7c00010 	sh	zero,16(s8)
b8004150:	0a001077 	j	b80041dc <UART_conrol+0x104>
b8004154:	00000000 	nop
b8004158:	97d00010 	lhu	s0,16(s8)
b800415c:	00000000 	nop
b8004160:	0e001005 	jal	b8004014 <getchar0>
b8004164:	00000000 	nop
b8004168:	00401821 	move	v1,v0
b800416c:	3c02b801 	lui	v0,0xb801
b8004170:	2442eb14 	addiu	v0,v0,-5356
b8004174:	02021021 	addu	v0,s0,v0
b8004178:	a0430000 	sb	v1,0(v0)
b800417c:	97c20010 	lhu	v0,16(s8)
	...
b8004188:	24420001 	addiu	v0,v0,1
b800418c:	3043ffff 	andi	v1,v0,0xffff
b8004190:	3c02b801 	lui	v0,0xb801
b8004194:	a443dbba 	sh	v1,-9286(v0)
b8004198:	97c30010 	lhu	v1,16(s8)
b800419c:	00000000 	nop
b80041a0:	3c02b801 	lui	v0,0xb801
b80041a4:	2442eb14 	addiu	v0,v0,-5356
b80041a8:	00621021 	addu	v0,v1,v0
b80041ac:	80430000 	lb	v1,0(v0)
b80041b0:	00000000 	nop
b80041b4:	2402003b 	li	v0,59
b80041b8:	14620003 	bne	v1,v0,b80041c8 <UART_conrol+0xf0>
b80041bc:	00000000 	nop
b80041c0:	0a00107f 	j	b80041fc <UART_conrol+0x124>
b80041c4:	00000000 	nop
b80041c8:	97c20010 	lhu	v0,16(s8)
	...
b80041d4:	24420001 	addiu	v0,v0,1
b80041d8:	a7c20010 	sh	v0,16(s8)
b80041dc:	97c30010 	lhu	v1,16(s8)
b80041e0:	00000000 	nop
b80041e4:	97c20012 	lhu	v0,18(s8)
	...
b80041f0:	0062102b 	sltu	v0,v1,v0
b80041f4:	1440ffd8 	bnez	v0,b8004158 <UART_conrol+0x80>
b80041f8:	00000000 	nop
b80041fc:	3c02b801 	lui	v0,0xb801
b8004200:	9442dbba 	lhu	v0,-9286(v0)
	...
b800420c:	00401821 	move	v1,v0
b8004210:	3c02b801 	lui	v0,0xb801
b8004214:	2442eb14 	addiu	v0,v0,-5356
b8004218:	00621021 	addu	v0,v1,v0
b800421c:	a0400000 	sb	zero,0(v0)
b8004220:	3c02b801 	lui	v0,0xb801
b8004224:	2444eb14 	addiu	a0,v0,-5356
b8004228:	0e001565 	jal	b8005594 <IO>
b800422c:	00000000 	nop
b8004230:	03c0e821 	move	sp,s8
b8004234:	8fbf0024 	lw	ra,36(sp)
b8004238:	00000000 	nop
b800423c:	8fbe0020 	lw	s8,32(sp)
b8004240:	00000000 	nop
b8004244:	8fb0001c 	lw	s0,28(sp)
b8004248:	00000000 	nop
b800424c:	27bd0028 	addiu	sp,sp,40
b8004250:	03e00008 	jr	ra
b8004254:	00000000 	nop

b8004258 <leng>:
b8004258:	27bdfff0 	addiu	sp,sp,-16
b800425c:	afbe000c 	sw	s8,12(sp)
b8004260:	03a0f021 	move	s8,sp
b8004264:	afc40010 	sw	a0,16(s8)
b8004268:	a3c00000 	sb	zero,0(s8)
b800426c:	0a0010a2 	j	b8004288 <leng+0x30>
b8004270:	00000000 	nop
b8004274:	93c20000 	lbu	v0,0(s8)
	...
b8004280:	24420001 	addiu	v0,v0,1
b8004284:	a3c20000 	sb	v0,0(s8)
b8004288:	93c20000 	lbu	v0,0(s8)
b800428c:	00000000 	nop
b8004290:	8fc30010 	lw	v1,16(s8)
	...
b800429c:	00621021 	addu	v0,v1,v0
b80042a0:	80420000 	lb	v0,0(v0)
	...
b80042ac:	10400007 	beqz	v0,b80042cc <leng+0x74>
b80042b0:	00000000 	nop
b80042b4:	93c20000 	lbu	v0,0(s8)
	...
b80042c0:	2c420078 	sltiu	v0,v0,120
b80042c4:	1440ffeb 	bnez	v0,b8004274 <leng+0x1c>
b80042c8:	00000000 	nop
b80042cc:	93c20000 	lbu	v0,0(s8)
b80042d0:	00000000 	nop
b80042d4:	03c0e821 	move	sp,s8
b80042d8:	8fbe000c 	lw	s8,12(sp)
b80042dc:	00000000 	nop
b80042e0:	27bd0010 	addiu	sp,sp,16
b80042e4:	03e00008 	jr	ra
b80042e8:	00000000 	nop

b80042ec <AT1>:
b80042ec:	27bdfff8 	addiu	sp,sp,-8
b80042f0:	afbe0004 	sw	s8,4(sp)
b80042f4:	03a0f021 	move	s8,sp
b80042f8:	00801021 	move	v0,a0
b80042fc:	a3c20008 	sb	v0,8(s8)
b8004300:	93c20008 	lbu	v0,8(s8)
	...
b800430c:	30420001 	andi	v0,v0,0x1
b8004310:	1040000c 	beqz	v0,b8004344 <AT1+0x58>
b8004314:	00000000 	nop
b8004318:	3c02b82f 	lui	v0,0xb82f
b800431c:	3442700c 	ori	v0,v0,0x700c
b8004320:	3c03b82f 	lui	v1,0xb82f
b8004324:	3463700c 	ori	v1,v1,0x700c
b8004328:	8c630000 	lw	v1,0(v1)
	...
b8004334:	34630100 	ori	v1,v1,0x100
b8004338:	ac430000 	sw	v1,0(v0)
b800433c:	0a0010da 	j	b8004368 <AT1+0x7c>
b8004340:	00000000 	nop
b8004344:	3c02b82f 	lui	v0,0xb82f
b8004348:	3442700c 	ori	v0,v0,0x700c
b800434c:	3c03b82f 	lui	v1,0xb82f
b8004350:	3463700c 	ori	v1,v1,0x700c
b8004354:	8c640000 	lw	a0,0(v1)
b8004358:	00000000 	nop
b800435c:	2403feff 	li	v1,-257
b8004360:	00831824 	and	v1,a0,v1
b8004364:	ac430000 	sw	v1,0(v0)
b8004368:	93c20008 	lbu	v0,8(s8)
	...
b8004374:	30420002 	andi	v0,v0,0x2
b8004378:	1040000c 	beqz	v0,b80043ac <AT1+0xc0>
b800437c:	00000000 	nop
b8004380:	3c02b82f 	lui	v0,0xb82f
b8004384:	3442700c 	ori	v0,v0,0x700c
b8004388:	3c03b82f 	lui	v1,0xb82f
b800438c:	3463700c 	ori	v1,v1,0x700c
b8004390:	8c630000 	lw	v1,0(v1)
	...
b800439c:	34630200 	ori	v1,v1,0x200
b80043a0:	ac430000 	sw	v1,0(v0)
b80043a4:	0a0010f4 	j	b80043d0 <AT1+0xe4>
b80043a8:	00000000 	nop
b80043ac:	3c02b82f 	lui	v0,0xb82f
b80043b0:	3442700c 	ori	v0,v0,0x700c
b80043b4:	3c03b82f 	lui	v1,0xb82f
b80043b8:	3463700c 	ori	v1,v1,0x700c
b80043bc:	8c640000 	lw	a0,0(v1)
b80043c0:	00000000 	nop
b80043c4:	2403fdff 	li	v1,-513
b80043c8:	00831824 	and	v1,a0,v1
b80043cc:	ac430000 	sw	v1,0(v0)
b80043d0:	93c20008 	lbu	v0,8(s8)
	...
b80043dc:	30420004 	andi	v0,v0,0x4
b80043e0:	1040000c 	beqz	v0,b8004414 <AT1+0x128>
b80043e4:	00000000 	nop
b80043e8:	3c02b82f 	lui	v0,0xb82f
b80043ec:	3442700c 	ori	v0,v0,0x700c
b80043f0:	3c03b82f 	lui	v1,0xb82f
b80043f4:	3463700c 	ori	v1,v1,0x700c
b80043f8:	8c630000 	lw	v1,0(v1)
	...
b8004404:	34630001 	ori	v1,v1,0x1
b8004408:	ac430000 	sw	v1,0(v0)
b800440c:	0a00110e 	j	b8004438 <AT1+0x14c>
b8004410:	00000000 	nop
b8004414:	3c02b82f 	lui	v0,0xb82f
b8004418:	3442700c 	ori	v0,v0,0x700c
b800441c:	3c03b82f 	lui	v1,0xb82f
b8004420:	3463700c 	ori	v1,v1,0x700c
b8004424:	8c640000 	lw	a0,0(v1)
b8004428:	00000000 	nop
b800442c:	2403fffe 	li	v1,-2
b8004430:	00831824 	and	v1,a0,v1
b8004434:	ac430000 	sw	v1,0(v0)
b8004438:	93c20008 	lbu	v0,8(s8)
	...
b8004444:	30420008 	andi	v0,v0,0x8
b8004448:	1040000c 	beqz	v0,b800447c <AT1+0x190>
b800444c:	00000000 	nop
b8004450:	3c02b82f 	lui	v0,0xb82f
b8004454:	3442700c 	ori	v0,v0,0x700c
b8004458:	3c03b82f 	lui	v1,0xb82f
b800445c:	3463700c 	ori	v1,v1,0x700c
b8004460:	8c630000 	lw	v1,0(v1)
	...
b800446c:	34630002 	ori	v1,v1,0x2
b8004470:	ac430000 	sw	v1,0(v0)
b8004474:	0a001128 	j	b80044a0 <AT1+0x1b4>
b8004478:	00000000 	nop
b800447c:	3c02b82f 	lui	v0,0xb82f
b8004480:	3442700c 	ori	v0,v0,0x700c
b8004484:	3c03b82f 	lui	v1,0xb82f
b8004488:	3463700c 	ori	v1,v1,0x700c
b800448c:	8c640000 	lw	a0,0(v1)
b8004490:	00000000 	nop
b8004494:	2403fffd 	li	v1,-3
b8004498:	00831824 	and	v1,a0,v1
b800449c:	ac430000 	sw	v1,0(v0)
b80044a0:	93c20008 	lbu	v0,8(s8)
	...
b80044ac:	30420010 	andi	v0,v0,0x10
b80044b0:	1040000c 	beqz	v0,b80044e4 <AT1+0x1f8>
b80044b4:	00000000 	nop
b80044b8:	3c02b82f 	lui	v0,0xb82f
b80044bc:	3442720c 	ori	v0,v0,0x720c
b80044c0:	3c03b82f 	lui	v1,0xb82f
b80044c4:	3463720c 	ori	v1,v1,0x720c
b80044c8:	8c630000 	lw	v1,0(v1)
	...
b80044d4:	34630080 	ori	v1,v1,0x80
b80044d8:	ac430000 	sw	v1,0(v0)
b80044dc:	0a001142 	j	b8004508 <AT1+0x21c>
b80044e0:	00000000 	nop
b80044e4:	3c02b82f 	lui	v0,0xb82f
b80044e8:	3442720c 	ori	v0,v0,0x720c
b80044ec:	3c03b82f 	lui	v1,0xb82f
b80044f0:	3463720c 	ori	v1,v1,0x720c
b80044f4:	8c640000 	lw	a0,0(v1)
b80044f8:	00000000 	nop
b80044fc:	2403ff7f 	li	v1,-129
b8004500:	00831824 	and	v1,a0,v1
b8004504:	ac430000 	sw	v1,0(v0)
b8004508:	93c20008 	lbu	v0,8(s8)
	...
b8004514:	30420020 	andi	v0,v0,0x20
b8004518:	1040000c 	beqz	v0,b800454c <AT1+0x260>
b800451c:	00000000 	nop
b8004520:	3c02b82f 	lui	v0,0xb82f
b8004524:	3442720c 	ori	v0,v0,0x720c
b8004528:	3c03b82f 	lui	v1,0xb82f
b800452c:	3463720c 	ori	v1,v1,0x720c
b8004530:	8c630000 	lw	v1,0(v1)
	...
b800453c:	34630100 	ori	v1,v1,0x100
b8004540:	ac430000 	sw	v1,0(v0)
b8004544:	0a00115c 	j	b8004570 <AT1+0x284>
b8004548:	00000000 	nop
b800454c:	3c02b82f 	lui	v0,0xb82f
b8004550:	3442720c 	ori	v0,v0,0x720c
b8004554:	3c03b82f 	lui	v1,0xb82f
b8004558:	3463720c 	ori	v1,v1,0x720c
b800455c:	8c640000 	lw	a0,0(v1)
b8004560:	00000000 	nop
b8004564:	2403feff 	li	v1,-257
b8004568:	00831824 	and	v1,a0,v1
b800456c:	ac430000 	sw	v1,0(v0)
b8004570:	03c0e821 	move	sp,s8
b8004574:	8fbe0004 	lw	s8,4(sp)
b8004578:	00000000 	nop
b800457c:	27bd0008 	addiu	sp,sp,8
b8004580:	03e00008 	jr	ra
b8004584:	00000000 	nop

b8004588 <AT2>:
b8004588:	27bdfff8 	addiu	sp,sp,-8
b800458c:	afbe0004 	sw	s8,4(sp)
b8004590:	03a0f021 	move	s8,sp
b8004594:	00801021 	move	v0,a0
b8004598:	a3c20008 	sb	v0,8(s8)
b800459c:	93c20008 	lbu	v0,8(s8)
	...
b80045a8:	30420001 	andi	v0,v0,0x1
b80045ac:	1040000c 	beqz	v0,b80045e0 <AT2+0x58>
b80045b0:	00000000 	nop
b80045b4:	3c02b82f 	lui	v0,0xb82f
b80045b8:	3442700c 	ori	v0,v0,0x700c
b80045bc:	3c03b82f 	lui	v1,0xb82f
b80045c0:	3463700c 	ori	v1,v1,0x700c
b80045c4:	8c630000 	lw	v1,0(v1)
	...
b80045d0:	34630004 	ori	v1,v1,0x4
b80045d4:	ac430000 	sw	v1,0(v0)
b80045d8:	0a001181 	j	b8004604 <AT2+0x7c>
b80045dc:	00000000 	nop
b80045e0:	3c02b82f 	lui	v0,0xb82f
b80045e4:	3442700c 	ori	v0,v0,0x700c
b80045e8:	3c03b82f 	lui	v1,0xb82f
b80045ec:	3463700c 	ori	v1,v1,0x700c
b80045f0:	8c640000 	lw	a0,0(v1)
b80045f4:	00000000 	nop
b80045f8:	2403fffb 	li	v1,-5
b80045fc:	00831824 	and	v1,a0,v1
b8004600:	ac430000 	sw	v1,0(v0)
b8004604:	93c20008 	lbu	v0,8(s8)
	...
b8004610:	30420002 	andi	v0,v0,0x2
b8004614:	1040000c 	beqz	v0,b8004648 <AT2+0xc0>
b8004618:	00000000 	nop
b800461c:	3c02b82f 	lui	v0,0xb82f
b8004620:	3442700c 	ori	v0,v0,0x700c
b8004624:	3c03b82f 	lui	v1,0xb82f
b8004628:	3463700c 	ori	v1,v1,0x700c
b800462c:	8c630000 	lw	v1,0(v1)
	...
b8004638:	34630008 	ori	v1,v1,0x8
b800463c:	ac430000 	sw	v1,0(v0)
b8004640:	0a00119b 	j	b800466c <AT2+0xe4>
b8004644:	00000000 	nop
b8004648:	3c02b82f 	lui	v0,0xb82f
b800464c:	3442700c 	ori	v0,v0,0x700c
b8004650:	3c03b82f 	lui	v1,0xb82f
b8004654:	3463700c 	ori	v1,v1,0x700c
b8004658:	8c640000 	lw	a0,0(v1)
b800465c:	00000000 	nop
b8004660:	2403fff7 	li	v1,-9
b8004664:	00831824 	and	v1,a0,v1
b8004668:	ac430000 	sw	v1,0(v0)
b800466c:	93c20008 	lbu	v0,8(s8)
	...
b8004678:	30420004 	andi	v0,v0,0x4
b800467c:	1040000c 	beqz	v0,b80046b0 <AT2+0x128>
b8004680:	00000000 	nop
b8004684:	3c02b82f 	lui	v0,0xb82f
b8004688:	3442700c 	ori	v0,v0,0x700c
b800468c:	3c03b82f 	lui	v1,0xb82f
b8004690:	3463700c 	ori	v1,v1,0x700c
b8004694:	8c630000 	lw	v1,0(v1)
	...
b80046a0:	34630010 	ori	v1,v1,0x10
b80046a4:	ac430000 	sw	v1,0(v0)
b80046a8:	0a0011b5 	j	b80046d4 <AT2+0x14c>
b80046ac:	00000000 	nop
b80046b0:	3c02b82f 	lui	v0,0xb82f
b80046b4:	3442700c 	ori	v0,v0,0x700c
b80046b8:	3c03b82f 	lui	v1,0xb82f
b80046bc:	3463700c 	ori	v1,v1,0x700c
b80046c0:	8c640000 	lw	a0,0(v1)
b80046c4:	00000000 	nop
b80046c8:	2403ffef 	li	v1,-17
b80046cc:	00831824 	and	v1,a0,v1
b80046d0:	ac430000 	sw	v1,0(v0)
b80046d4:	93c20008 	lbu	v0,8(s8)
	...
b80046e0:	30420008 	andi	v0,v0,0x8
b80046e4:	1040000c 	beqz	v0,b8004718 <AT2+0x190>
b80046e8:	00000000 	nop
b80046ec:	3c02b82f 	lui	v0,0xb82f
b80046f0:	3442700c 	ori	v0,v0,0x700c
b80046f4:	3c03b82f 	lui	v1,0xb82f
b80046f8:	3463700c 	ori	v1,v1,0x700c
b80046fc:	8c630000 	lw	v1,0(v1)
	...
b8004708:	34630020 	ori	v1,v1,0x20
b800470c:	ac430000 	sw	v1,0(v0)
b8004710:	0a0011cf 	j	b800473c <AT2+0x1b4>
b8004714:	00000000 	nop
b8004718:	3c02b82f 	lui	v0,0xb82f
b800471c:	3442700c 	ori	v0,v0,0x700c
b8004720:	3c03b82f 	lui	v1,0xb82f
b8004724:	3463700c 	ori	v1,v1,0x700c
b8004728:	8c640000 	lw	a0,0(v1)
b800472c:	00000000 	nop
b8004730:	2403ffdf 	li	v1,-33
b8004734:	00831824 	and	v1,a0,v1
b8004738:	ac430000 	sw	v1,0(v0)
b800473c:	93c20008 	lbu	v0,8(s8)
	...
b8004748:	30420010 	andi	v0,v0,0x10
b800474c:	1040000c 	beqz	v0,b8004780 <AT2+0x1f8>
b8004750:	00000000 	nop
b8004754:	3c02b82f 	lui	v0,0xb82f
b8004758:	3442700c 	ori	v0,v0,0x700c
b800475c:	3c03b82f 	lui	v1,0xb82f
b8004760:	3463700c 	ori	v1,v1,0x700c
b8004764:	8c630000 	lw	v1,0(v1)
	...
b8004770:	34630040 	ori	v1,v1,0x40
b8004774:	ac430000 	sw	v1,0(v0)
b8004778:	0a0011e9 	j	b80047a4 <AT2+0x21c>
b800477c:	00000000 	nop
b8004780:	3c02b82f 	lui	v0,0xb82f
b8004784:	3442700c 	ori	v0,v0,0x700c
b8004788:	3c03b82f 	lui	v1,0xb82f
b800478c:	3463700c 	ori	v1,v1,0x700c
b8004790:	8c640000 	lw	a0,0(v1)
b8004794:	00000000 	nop
b8004798:	2403ffbf 	li	v1,-65
b800479c:	00831824 	and	v1,a0,v1
b80047a0:	ac430000 	sw	v1,0(v0)
b80047a4:	93c20008 	lbu	v0,8(s8)
	...
b80047b0:	30420020 	andi	v0,v0,0x20
b80047b4:	1040000c 	beqz	v0,b80047e8 <AT2+0x260>
b80047b8:	00000000 	nop
b80047bc:	3c02b82f 	lui	v0,0xb82f
b80047c0:	3442700c 	ori	v0,v0,0x700c
b80047c4:	3c03b82f 	lui	v1,0xb82f
b80047c8:	3463700c 	ori	v1,v1,0x700c
b80047cc:	8c630000 	lw	v1,0(v1)
	...
b80047d8:	34630080 	ori	v1,v1,0x80
b80047dc:	ac430000 	sw	v1,0(v0)
b80047e0:	0a001203 	j	b800480c <AT2+0x284>
b80047e4:	00000000 	nop
b80047e8:	3c02b82f 	lui	v0,0xb82f
b80047ec:	3442700c 	ori	v0,v0,0x700c
b80047f0:	3c03b82f 	lui	v1,0xb82f
b80047f4:	3463700c 	ori	v1,v1,0x700c
b80047f8:	8c640000 	lw	a0,0(v1)
b80047fc:	00000000 	nop
b8004800:	2403ff7f 	li	v1,-129
b8004804:	00831824 	and	v1,a0,v1
b8004808:	ac430000 	sw	v1,0(v0)
b800480c:	03c0e821 	move	sp,s8
b8004810:	8fbe0004 	lw	s8,4(sp)
b8004814:	00000000 	nop
b8004818:	27bd0008 	addiu	sp,sp,8
b800481c:	03e00008 	jr	ra
b8004820:	00000000 	nop

b8004824 <MFBSP0_init>:
b8004824:	27bdfff8 	addiu	sp,sp,-8
b8004828:	afbe0004 	sw	s8,4(sp)
b800482c:	03a0f021 	move	s8,sp
b8004830:	3c02b82f 	lui	v0,0xb82f
b8004834:	34427004 	ori	v0,v0,0x7004
b8004838:	ac400000 	sw	zero,0(v0)
b800483c:	3c02b82f 	lui	v0,0xb82f
b8004840:	34427004 	ori	v0,v0,0x7004
b8004844:	3c03b82f 	lui	v1,0xb82f
b8004848:	34637004 	ori	v1,v1,0x7004
b800484c:	8c630000 	lw	v1,0(v1)
	...
b8004858:	ac430000 	sw	v1,0(v0)
b800485c:	3c02b82f 	lui	v0,0xb82f
b8004860:	34427008 	ori	v0,v0,0x7008
b8004864:	240303ff 	li	v1,1023
b8004868:	ac430000 	sw	v1,0(v0)
b800486c:	3c02b82f 	lui	v0,0xb82f
b8004870:	3442700c 	ori	v0,v0,0x700c
b8004874:	ac400000 	sw	zero,0(v0)
b8004878:	3c02b82f 	lui	v0,0xb82f
b800487c:	34427010 	ori	v0,v0,0x7010
b8004880:	ac400000 	sw	zero,0(v0)
b8004884:	3c02b82f 	lui	v0,0xb82f
b8004888:	34427010 	ori	v0,v0,0x7010
b800488c:	3c03b82f 	lui	v1,0xb82f
b8004890:	34637010 	ori	v1,v1,0x7010
b8004894:	8c630000 	lw	v1,0(v1)
	...
b80048a0:	ac430000 	sw	v1,0(v0)
b80048a4:	3c02b82f 	lui	v0,0xb82f
b80048a8:	34427014 	ori	v0,v0,0x7014
b80048ac:	ac400000 	sw	zero,0(v0)
b80048b0:	3c02b82f 	lui	v0,0xb82f
b80048b4:	34427014 	ori	v0,v0,0x7014
b80048b8:	3c03b82f 	lui	v1,0xb82f
b80048bc:	34637014 	ori	v1,v1,0x7014
b80048c0:	8c630000 	lw	v1,0(v1)
	...
b80048cc:	ac430000 	sw	v1,0(v0)
b80048d0:	3c02b82f 	lui	v0,0xb82f
b80048d4:	34427018 	ori	v0,v0,0x7018
b80048d8:	ac400000 	sw	zero,0(v0)
b80048dc:	3c02b82f 	lui	v0,0xb82f
b80048e0:	34427018 	ori	v0,v0,0x7018
b80048e4:	3c03b82f 	lui	v1,0xb82f
b80048e8:	34637018 	ori	v1,v1,0x7018
b80048ec:	8c630000 	lw	v1,0(v1)
	...
b80048f8:	ac430000 	sw	v1,0(v0)
b80048fc:	3c02b82f 	lui	v0,0xb82f
b8004900:	3442701c 	ori	v0,v0,0x701c
b8004904:	ac400000 	sw	zero,0(v0)
b8004908:	03c0e821 	move	sp,s8
b800490c:	8fbe0004 	lw	s8,4(sp)
b8004910:	00000000 	nop
b8004914:	27bd0008 	addiu	sp,sp,8
b8004918:	03e00008 	jr	ra
b800491c:	00000000 	nop

b8004920 <SetCP0_Status>:
b8004920:	27bdfff8 	addiu	sp,sp,-8
b8004924:	afbe0004 	sw	s8,4(sp)
b8004928:	03a0f021 	move	s8,sp
b800492c:	afc40008 	sw	a0,8(s8)
b8004930:	8fc20008 	lw	v0,8(s8)
b8004934:	00000000 	nop
b8004938:	40826000 	mtc0	v0,c0_status
b800493c:	03c0e821 	move	sp,s8
b8004940:	8fbe0004 	lw	s8,4(sp)
b8004944:	00000000 	nop
b8004948:	27bd0008 	addiu	sp,sp,8
b800494c:	03e00008 	jr	ra
b8004950:	00000000 	nop

b8004954 <TR_CRAM_set>:
b8004954:	27bdfff8 	addiu	sp,sp,-8
b8004958:	afbe0004 	sw	s8,4(sp)
b800495c:	03a0f021 	move	s8,sp
b8004960:	03c0e821 	move	sp,s8
b8004964:	8fbe0004 	lw	s8,4(sp)
b8004968:	00000000 	nop
b800496c:	27bd0008 	addiu	sp,sp,8
b8004970:	03e00008 	jr	ra
b8004974:	00000000 	nop

b8004978 <MASKR2_set>:
b8004978:	27bdfff8 	addiu	sp,sp,-8
b800497c:	afbe0004 	sw	s8,4(sp)
b8004980:	03a0f021 	move	s8,sp
b8004984:	3c02b82f 	lui	v0,0xb82f
b8004988:	34424020 	ori	v0,v0,0x4020
b800498c:	3c03b82f 	lui	v1,0xb82f
b8004990:	34634020 	ori	v1,v1,0x4020
b8004994:	8c630000 	lw	v1,0(v1)
	...
b80049a0:	34630080 	ori	v1,v1,0x80
b80049a4:	ac430000 	sw	v1,0(v0)
b80049a8:	03c0e821 	move	sp,s8
b80049ac:	8fbe0004 	lw	s8,4(sp)
b80049b0:	00000000 	nop
b80049b4:	27bd0008 	addiu	sp,sp,8
b80049b8:	03e00008 	jr	ra
b80049bc:	00000000 	nop

b80049c0 <MASKR0_set>:
b80049c0:	27bdfff8 	addiu	sp,sp,-8
b80049c4:	afbe0004 	sw	s8,4(sp)
b80049c8:	03a0f021 	move	s8,sp
b80049cc:	3c02b82f 	lui	v0,0xb82f
b80049d0:	34424010 	ori	v0,v0,0x4010
b80049d4:	3c03b82f 	lui	v1,0xb82f
b80049d8:	34634010 	ori	v1,v1,0x4010
b80049dc:	8c640000 	lw	a0,0(v1)
b80049e0:	00000000 	nop
b80049e4:	3c03000c 	lui	v1,0xc
b80049e8:	00831825 	or	v1,a0,v1
b80049ec:	ac430000 	sw	v1,0(v0)
b80049f0:	03c0e821 	move	sp,s8
b80049f4:	8fbe0004 	lw	s8,4(sp)
b80049f8:	00000000 	nop
b80049fc:	27bd0008 	addiu	sp,sp,8
b8004a00:	03e00008 	jr	ra
b8004a04:	00000000 	nop

b8004a08 <ID1_LPORT_handler>:
b8004a08:	27bdfff0 	addiu	sp,sp,-16
b8004a0c:	afbe000c 	sw	s8,12(sp)
b8004a10:	03a0f021 	move	s8,sp
b8004a14:	3c02b82f 	lui	v0,0xb82f
b8004a18:	34424024 	ori	v0,v0,0x4024
b8004a1c:	8c430000 	lw	v1,0(v0)
b8004a20:	00000000 	nop
b8004a24:	3c02b82f 	lui	v0,0xb82f
b8004a28:	34424020 	ori	v0,v0,0x4020
b8004a2c:	8c420000 	lw	v0,0(v0)
	...
b8004a38:	00621024 	and	v0,v1,v0
b8004a3c:	afc20000 	sw	v0,0(s8)
b8004a40:	8fc20000 	lw	v0,0(s8)
	...
b8004a4c:	30420080 	andi	v0,v0,0x80
b8004a50:	1040000e 	beqz	v0,b8004a8c <ID1_LPORT_handler+0x84>
b8004a54:	00000000 	nop
b8004a58:	3c02b82f 	lui	v0,0xb82f
b8004a5c:	34427840 	ori	v0,v0,0x7840
b8004a60:	8c420000 	lw	v0,0(v0)
	...
b8004a6c:	afc20004 	sw	v0,4(s8)
b8004a70:	3c02b801 	lui	v0,0xb801
b8004a74:	8c42de28 	lw	v0,-8664(v0)
	...
b8004a80:	24430001 	addiu	v1,v0,1
b8004a84:	3c02b801 	lui	v0,0xb801
b8004a88:	ac43de28 	sw	v1,-8664(v0)
b8004a8c:	03c0e821 	move	sp,s8
b8004a90:	8fbe000c 	lw	s8,12(sp)
b8004a94:	00000000 	nop
b8004a98:	27bd0010 	addiu	sp,sp,16
b8004a9c:	03e00008 	jr	ra
b8004aa0:	00000000 	nop

b8004aa4 <int_handler>:
b8004aa4:	27bdfff8 	addiu	sp,sp,-8
b8004aa8:	afbe0004 	sw	s8,4(sp)
b8004aac:	03a0f021 	move	s8,sp
b8004ab0:	3c02b82f 	lui	v0,0xb82f
b8004ab4:	34423408 	ori	v0,v0,0x3408
b8004ab8:	8c420000 	lw	v0,0(v0)
	...
b8004ac4:	00401821 	move	v1,v0
b8004ac8:	3c02b801 	lui	v0,0xb801
b8004acc:	ac43db64 	sw	v1,-9372(v0)
b8004ad0:	3c02b801 	lui	v0,0xb801
b8004ad4:	8c42db6c 	lw	v0,-9364(v0)
	...
b8004ae0:	24440001 	addiu	a0,v0,1
b8004ae4:	3c03b801 	lui	v1,0xb801
b8004ae8:	ac64db6c 	sw	a0,-9364(v1)
b8004aec:	3c03b82f 	lui	v1,0xb82f
b8004af0:	34633400 	ori	v1,v1,0x3400
b8004af4:	8c630000 	lw	v1,0(v1)
	...
b8004b00:	00031e00 	sll	v1,v1,0x18
b8004b04:	00031e03 	sra	v1,v1,0x18
b8004b08:	3c04b801 	lui	a0,0xb801
b8004b0c:	2484e9c8 	addiu	a0,a0,-5688
b8004b10:	00441021 	addu	v0,v0,a0
b8004b14:	a0430000 	sb	v1,0(v0)
b8004b18:	3c02b801 	lui	v0,0xb801
b8004b1c:	8c43db6c 	lw	v1,-9364(v0)
b8004b20:	00000000 	nop
b8004b24:	24020040 	li	v0,64
b8004b28:	14620003 	bne	v1,v0,b8004b38 <int_handler+0x94>
b8004b2c:	00000000 	nop
b8004b30:	3c02b801 	lui	v0,0xb801
b8004b34:	ac40db6c 	sw	zero,-9364(v0)
b8004b38:	3c02b801 	lui	v0,0xb801
b8004b3c:	8c42db8c 	lw	v0,-9332(v0)
	...
b8004b48:	24420001 	addiu	v0,v0,1
b8004b4c:	3c03b801 	lui	v1,0xb801
b8004b50:	ac62db8c 	sw	v0,-9332(v1)
b8004b54:	24030040 	li	v1,64
b8004b58:	14430006 	bne	v0,v1,b8004b74 <int_handler+0xd0>
b8004b5c:	00000000 	nop
b8004b60:	3c02b801 	lui	v0,0xb801
b8004b64:	ac40db8c 	sw	zero,-9332(v0)
b8004b68:	3c02b801 	lui	v0,0xb801
b8004b6c:	24030001 	li	v1,1
b8004b70:	a043db78 	sb	v1,-9352(v0)
b8004b74:	03c0e821 	move	sp,s8
b8004b78:	8fbe0004 	lw	s8,4(sp)
b8004b7c:	00000000 	nop
b8004b80:	27bd0008 	addiu	sp,sp,8
b8004b84:	03e00008 	jr	ra
b8004b88:	00000000 	nop

b8004b8c <SPWR_TX_DAT_handler>:
b8004b8c:	27bdfff8 	addiu	sp,sp,-8
b8004b90:	afbe0004 	sw	s8,4(sp)
b8004b94:	03a0f021 	move	s8,sp
b8004b98:	3c02b82f 	lui	v0,0xb82f
b8004b9c:	3442a8c0 	ori	v0,v0,0xa8c0
b8004ba0:	8c420000 	lw	v0,0(v0)
b8004ba4:	00000000 	nop
b8004ba8:	3c02b82f 	lui	v0,0xb82f
b8004bac:	3442a8c0 	ori	v0,v0,0xa8c0
b8004bb0:	8c420000 	lw	v0,0(v0)
b8004bb4:	00000000 	nop
b8004bb8:	3c02b801 	lui	v0,0xb801
b8004bbc:	24030001 	li	v1,1
b8004bc0:	ac43de34 	sw	v1,-8652(v0)
b8004bc4:	03c0e821 	move	sp,s8
b8004bc8:	8fbe0004 	lw	s8,4(sp)
b8004bcc:	00000000 	nop
b8004bd0:	27bd0008 	addiu	sp,sp,8
b8004bd4:	03e00008 	jr	ra
b8004bd8:	00000000 	nop

b8004bdc <SPWR_TX_DES_handler>:
b8004bdc:	27bdfff8 	addiu	sp,sp,-8
b8004be0:	afbe0004 	sw	s8,4(sp)
b8004be4:	03a0f021 	move	s8,sp
b8004be8:	3c02b82f 	lui	v0,0xb82f
b8004bec:	3442a880 	ori	v0,v0,0xa880
b8004bf0:	8c420000 	lw	v0,0(v0)
b8004bf4:	00000000 	nop
b8004bf8:	3c02b82f 	lui	v0,0xb82f
b8004bfc:	3442a880 	ori	v0,v0,0xa880
b8004c00:	8c420000 	lw	v0,0(v0)
b8004c04:	00000000 	nop
b8004c08:	3c02b801 	lui	v0,0xb801
b8004c0c:	24030001 	li	v1,1
b8004c10:	ac43de30 	sw	v1,-8656(v0)
b8004c14:	03c0e821 	move	sp,s8
b8004c18:	8fbe0004 	lw	s8,4(sp)
b8004c1c:	00000000 	nop
b8004c20:	27bd0008 	addiu	sp,sp,8
b8004c24:	03e00008 	jr	ra
b8004c28:	00000000 	nop

b8004c2c <MFBSP1_init>:
b8004c2c:	27bdfff0 	addiu	sp,sp,-16
b8004c30:	afbe000c 	sw	s8,12(sp)
b8004c34:	03a0f021 	move	s8,sp
b8004c38:	afc00000 	sw	zero,0(s8)
b8004c3c:	3c02b82f 	lui	v0,0xb82f
b8004c40:	34427104 	ori	v0,v0,0x7104
b8004c44:	3c03b82f 	lui	v1,0xb82f
b8004c48:	34637104 	ori	v1,v1,0x7104
b8004c4c:	8c630000 	lw	v1,0(v1)
	...
b8004c58:	00602021 	move	a0,v1
b8004c5c:	8fc30000 	lw	v1,0(s8)
	...
b8004c68:	30630001 	andi	v1,v1,0x1
b8004c6c:	00032880 	sll	a1,v1,0x2
b8004c70:	8fc30000 	lw	v1,0(s8)
	...
b8004c7c:	00031842 	srl	v1,v1,0x1
b8004c80:	00031ac0 	sll	v1,v1,0xb
b8004c84:	00a31825 	or	v1,a1,v1
b8004c88:	00831825 	or	v1,a0,v1
b8004c8c:	34630041 	ori	v1,v1,0x41
b8004c90:	ac430000 	sw	v1,0(v0)
b8004c94:	3c02b82f 	lui	v0,0xb82f
b8004c98:	34427108 	ori	v0,v0,0x7108
b8004c9c:	24030001 	li	v1,1
b8004ca0:	ac430000 	sw	v1,0(v0)
b8004ca4:	3c02b82f 	lui	v0,0xb82f
b8004ca8:	3442710c 	ori	v0,v0,0x710c
b8004cac:	ac400000 	sw	zero,0(v0)
b8004cb0:	3c02b82f 	lui	v0,0xb82f
b8004cb4:	34427110 	ori	v0,v0,0x7110
b8004cb8:	ac400000 	sw	zero,0(v0)
b8004cbc:	3c02b82f 	lui	v0,0xb82f
b8004cc0:	34427110 	ori	v0,v0,0x7110
b8004cc4:	3c03b82f 	lui	v1,0xb82f
b8004cc8:	34637110 	ori	v1,v1,0x7110
b8004ccc:	8c630000 	lw	v1,0(v1)
	...
b8004cd8:	ac430000 	sw	v1,0(v0)
b8004cdc:	3c02b82f 	lui	v0,0xb82f
b8004ce0:	34427114 	ori	v0,v0,0x7114
b8004ce4:	ac400000 	sw	zero,0(v0)
b8004ce8:	3c02b82f 	lui	v0,0xb82f
b8004cec:	34427114 	ori	v0,v0,0x7114
b8004cf0:	3c03b82f 	lui	v1,0xb82f
b8004cf4:	34637114 	ori	v1,v1,0x7114
b8004cf8:	8c630000 	lw	v1,0(v1)
	...
b8004d04:	ac430000 	sw	v1,0(v0)
b8004d08:	3c02b82f 	lui	v0,0xb82f
b8004d0c:	34427118 	ori	v0,v0,0x7118
b8004d10:	ac400000 	sw	zero,0(v0)
b8004d14:	3c02b82f 	lui	v0,0xb82f
b8004d18:	34427118 	ori	v0,v0,0x7118
b8004d1c:	3c03b82f 	lui	v1,0xb82f
b8004d20:	34637118 	ori	v1,v1,0x7118
b8004d24:	8c630000 	lw	v1,0(v1)
	...
b8004d30:	ac430000 	sw	v1,0(v0)
b8004d34:	3c02b82f 	lui	v0,0xb82f
b8004d38:	3442711c 	ori	v0,v0,0x711c
b8004d3c:	ac400000 	sw	zero,0(v0)
b8004d40:	03c0e821 	move	sp,s8
b8004d44:	8fbe000c 	lw	s8,12(sp)
b8004d48:	00000000 	nop
b8004d4c:	27bd0010 	addiu	sp,sp,16
b8004d50:	03e00008 	jr	ra
b8004d54:	00000000 	nop

b8004d58 <MFBSP2_init>:
b8004d58:	27bdfff8 	addiu	sp,sp,-8
b8004d5c:	afbe0004 	sw	s8,4(sp)
b8004d60:	03a0f021 	move	s8,sp
b8004d64:	3c02b82f 	lui	v0,0xb82f
b8004d68:	34427208 	ori	v0,v0,0x7208
b8004d6c:	ac400000 	sw	zero,0(v0)
b8004d70:	3c02b82f 	lui	v0,0xb82f
b8004d74:	34427208 	ori	v0,v0,0x7208
b8004d78:	3c03b82f 	lui	v1,0xb82f
b8004d7c:	34637208 	ori	v1,v1,0x7208
b8004d80:	8c630000 	lw	v1,0(v1)
	...
b8004d8c:	346303ef 	ori	v1,v1,0x3ef
b8004d90:	ac430000 	sw	v1,0(v0)
b8004d94:	3c02b82f 	lui	v0,0xb82f
b8004d98:	3442720c 	ori	v0,v0,0x720c
b8004d9c:	24030fff 	li	v1,4095
b8004da0:	ac430000 	sw	v1,0(v0)
b8004da4:	3c02b82f 	lui	v0,0xb82f
b8004da8:	34427204 	ori	v0,v0,0x7204
b8004dac:	ac400000 	sw	zero,0(v0)
b8004db0:	03c0e821 	move	sp,s8
b8004db4:	8fbe0004 	lw	s8,4(sp)
b8004db8:	00000000 	nop
b8004dbc:	27bd0008 	addiu	sp,sp,8
b8004dc0:	03e00008 	jr	ra
b8004dc4:	00000000 	nop

b8004dc8 <MFBSP3_init>:
b8004dc8:	27bdfff0 	addiu	sp,sp,-16
b8004dcc:	afbe000c 	sw	s8,12(sp)
b8004dd0:	03a0f021 	move	s8,sp
b8004dd4:	a7c00000 	sh	zero,0(s8)
b8004dd8:	3c02b82f 	lui	v0,0xb82f
b8004ddc:	34427304 	ori	v0,v0,0x7304
b8004de0:	ac400000 	sw	zero,0(v0)
b8004de4:	3c02b82f 	lui	v0,0xb82f
b8004de8:	34427308 	ori	v0,v0,0x7308
b8004dec:	ac400000 	sw	zero,0(v0)
b8004df0:	3c02b82f 	lui	v0,0xb82f
b8004df4:	34427308 	ori	v0,v0,0x7308
b8004df8:	3c03b82f 	lui	v1,0xb82f
b8004dfc:	34637308 	ori	v1,v1,0x7308
b8004e00:	8c630000 	lw	v1,0(v1)
	...
b8004e0c:	3463026f 	ori	v1,v1,0x26f
b8004e10:	ac430000 	sw	v1,0(v0)
b8004e14:	3c02b82f 	lui	v0,0xb82f
b8004e18:	3442730c 	ori	v0,v0,0x730c
b8004e1c:	24030fff 	li	v1,4095
b8004e20:	ac430000 	sw	v1,0(v0)
b8004e24:	03c0e821 	move	sp,s8
b8004e28:	8fbe000c 	lw	s8,12(sp)
b8004e2c:	00000000 	nop
b8004e30:	27bd0010 	addiu	sp,sp,16
b8004e34:	03e00008 	jr	ra
b8004e38:	00000000 	nop

b8004e3c <init_GPIO_DR2>:
b8004e3c:	27bdfff8 	addiu	sp,sp,-8
b8004e40:	afbe0004 	sw	s8,4(sp)
b8004e44:	03a0f021 	move	s8,sp
b8004e48:	00801821 	move	v1,a0
b8004e4c:	00a01021 	move	v0,a1
b8004e50:	a7c30008 	sh	v1,8(s8)
b8004e54:	a3c2000c 	sb	v0,12(s8)
b8004e58:	93c2000c 	lbu	v0,12(s8)
	...
b8004e64:	14400010 	bnez	v0,b8004ea8 <init_GPIO_DR2+0x6c>
b8004e68:	00000000 	nop
b8004e6c:	3c02b82f 	lui	v0,0xb82f
b8004e70:	3442720c 	ori	v0,v0,0x720c
b8004e74:	3c03b82f 	lui	v1,0xb82f
b8004e78:	3463720c 	ori	v1,v1,0x720c
b8004e7c:	8c640000 	lw	a0,0(v1)
b8004e80:	00000000 	nop
b8004e84:	97c30008 	lhu	v1,8(s8)
	...
b8004e90:	00031880 	sll	v1,v1,0x2
b8004e94:	00031827 	nor	v1,zero,v1
b8004e98:	00831824 	and	v1,a0,v1
b8004e9c:	ac430000 	sw	v1,0(v0)
b8004ea0:	0a0013b6 	j	b8004ed8 <init_GPIO_DR2+0x9c>
b8004ea4:	00000000 	nop
b8004ea8:	3c02b82f 	lui	v0,0xb82f
b8004eac:	3442720c 	ori	v0,v0,0x720c
b8004eb0:	3c03b82f 	lui	v1,0xb82f
b8004eb4:	3463720c 	ori	v1,v1,0x720c
b8004eb8:	8c640000 	lw	a0,0(v1)
b8004ebc:	00000000 	nop
b8004ec0:	97c30008 	lhu	v1,8(s8)
	...
b8004ecc:	00031880 	sll	v1,v1,0x2
b8004ed0:	00831825 	or	v1,a0,v1
b8004ed4:	ac430000 	sw	v1,0(v0)
b8004ed8:	03c0e821 	move	sp,s8
b8004edc:	8fbe0004 	lw	s8,4(sp)
b8004ee0:	00000000 	nop
b8004ee4:	27bd0008 	addiu	sp,sp,8
b8004ee8:	03e00008 	jr	ra
b8004eec:	00000000 	nop

b8004ef0 <init_GPIO_DR3>:
b8004ef0:	27bdfff8 	addiu	sp,sp,-8
b8004ef4:	afbe0004 	sw	s8,4(sp)
b8004ef8:	03a0f021 	move	s8,sp
b8004efc:	00801821 	move	v1,a0
b8004f00:	00a01021 	move	v0,a1
b8004f04:	a7c30008 	sh	v1,8(s8)
b8004f08:	a3c2000c 	sb	v0,12(s8)
b8004f0c:	93c2000c 	lbu	v0,12(s8)
	...
b8004f18:	14400010 	bnez	v0,b8004f5c <init_GPIO_DR3+0x6c>
b8004f1c:	00000000 	nop
b8004f20:	3c02b82f 	lui	v0,0xb82f
b8004f24:	3442730c 	ori	v0,v0,0x730c
b8004f28:	3c03b82f 	lui	v1,0xb82f
b8004f2c:	3463730c 	ori	v1,v1,0x730c
b8004f30:	8c640000 	lw	a0,0(v1)
b8004f34:	00000000 	nop
b8004f38:	97c30008 	lhu	v1,8(s8)
	...
b8004f44:	00031880 	sll	v1,v1,0x2
b8004f48:	00031827 	nor	v1,zero,v1
b8004f4c:	00831824 	and	v1,a0,v1
b8004f50:	ac430000 	sw	v1,0(v0)
b8004f54:	0a0013e3 	j	b8004f8c <init_GPIO_DR3+0x9c>
b8004f58:	00000000 	nop
b8004f5c:	3c02b82f 	lui	v0,0xb82f
b8004f60:	3442730c 	ori	v0,v0,0x730c
b8004f64:	3c03b82f 	lui	v1,0xb82f
b8004f68:	3463730c 	ori	v1,v1,0x730c
b8004f6c:	8c640000 	lw	a0,0(v1)
b8004f70:	00000000 	nop
b8004f74:	97c30008 	lhu	v1,8(s8)
	...
b8004f80:	00031880 	sll	v1,v1,0x2
b8004f84:	00831825 	or	v1,a0,v1
b8004f88:	ac430000 	sw	v1,0(v0)
b8004f8c:	03c0e821 	move	sp,s8
b8004f90:	8fbe0004 	lw	s8,4(sp)
b8004f94:	00000000 	nop
b8004f98:	27bd0008 	addiu	sp,sp,8
b8004f9c:	03e00008 	jr	ra
b8004fa0:	00000000 	nop

b8004fa4 <LED>:
b8004fa4:	27bdfff8 	addiu	sp,sp,-8
b8004fa8:	afbe0004 	sw	s8,4(sp)
b8004fac:	03a0f021 	move	s8,sp
b8004fb0:	00801021 	move	v0,a0
b8004fb4:	a3c20008 	sb	v0,8(s8)
b8004fb8:	03c0e821 	move	sp,s8
b8004fbc:	8fbe0004 	lw	s8,4(sp)
b8004fc0:	00000000 	nop
b8004fc4:	27bd0008 	addiu	sp,sp,8
b8004fc8:	03e00008 	jr	ra
b8004fcc:	00000000 	nop

b8004fd0 <adc1_init>:
b8004fd0:	27bdffe8 	addiu	sp,sp,-24
b8004fd4:	afbf0014 	sw	ra,20(sp)
b8004fd8:	afbe0010 	sw	s8,16(sp)
b8004fdc:	03a0f021 	move	s8,sp
b8004fe0:	00801021 	move	v0,a0
b8004fe4:	a3c20018 	sb	v0,24(s8)
b8004fe8:	24040002 	li	a0,2
b8004fec:	24050001 	li	a1,1
b8004ff0:	0e0013bc 	jal	b8004ef0 <init_GPIO_DR3>
b8004ff4:	00000000 	nop
b8004ff8:	24040008 	li	a0,8
b8004ffc:	00002821 	move	a1,zero
b8005000:	0e0013bc 	jal	b8004ef0 <init_GPIO_DR3>
b8005004:	00000000 	nop
b8005008:	93c30018 	lbu	v1,24(s8)
b800500c:	00000000 	nop
b8005010:	24020001 	li	v0,1
b8005014:	14620020 	bne	v1,v0,b8005098 <adc1_init+0xc8>
b8005018:	00000000 	nop
b800501c:	24040010 	li	a0,16
b8005020:	00002821 	move	a1,zero
b8005024:	0e0013bc 	jal	b8004ef0 <init_GPIO_DR3>
b8005028:	00000000 	nop
b800502c:	2404000a 	li	a0,10
b8005030:	0e000983 	jal	b800260c <Delay_ms>
b8005034:	00000000 	nop
b8005038:	24040008 	li	a0,8
b800503c:	24050001 	li	a1,1
b8005040:	0e0013bc 	jal	b8004ef0 <init_GPIO_DR3>
b8005044:	00000000 	nop
b8005048:	24040064 	li	a0,100
b800504c:	0e000983 	jal	b800260c <Delay_ms>
b8005050:	00000000 	nop
b8005054:	24040008 	li	a0,8
b8005058:	00002821 	move	a1,zero
b800505c:	0e0013bc 	jal	b8004ef0 <init_GPIO_DR3>
b8005060:	00000000 	nop
b8005064:	24040002 	li	a0,2
b8005068:	00002821 	move	a1,zero
b800506c:	0e0013bc 	jal	b8004ef0 <init_GPIO_DR3>
b8005070:	00000000 	nop
b8005074:	24040064 	li	a0,100
b8005078:	0e000983 	jal	b800260c <Delay_ms>
b800507c:	00000000 	nop
b8005080:	24040002 	li	a0,2
b8005084:	24050001 	li	a1,1
b8005088:	0e0013bc 	jal	b8004ef0 <init_GPIO_DR3>
b800508c:	00000000 	nop
b8005090:	0a00142a 	j	b80050a8 <adc1_init+0xd8>
b8005094:	00000000 	nop
b8005098:	24040010 	li	a0,16
b800509c:	24050001 	li	a1,1
b80050a0:	0e0013bc 	jal	b8004ef0 <init_GPIO_DR3>
b80050a4:	00000000 	nop
b80050a8:	03c0e821 	move	sp,s8
b80050ac:	8fbf0014 	lw	ra,20(sp)
b80050b0:	00000000 	nop
b80050b4:	8fbe0010 	lw	s8,16(sp)
b80050b8:	00000000 	nop
b80050bc:	27bd0018 	addiu	sp,sp,24
b80050c0:	03e00008 	jr	ra
b80050c4:	00000000 	nop

b80050c8 <adc2_init>:
b80050c8:	27bdffe8 	addiu	sp,sp,-24
b80050cc:	afbf0014 	sw	ra,20(sp)
b80050d0:	afbe0010 	sw	s8,16(sp)
b80050d4:	03a0f021 	move	s8,sp
b80050d8:	00801021 	move	v0,a0
b80050dc:	a3c20018 	sb	v0,24(s8)
b80050e0:	24040002 	li	a0,2
b80050e4:	24050001 	li	a1,1
b80050e8:	0e00138f 	jal	b8004e3c <init_GPIO_DR2>
b80050ec:	00000000 	nop
b80050f0:	24040008 	li	a0,8
b80050f4:	00002821 	move	a1,zero
b80050f8:	0e00138f 	jal	b8004e3c <init_GPIO_DR2>
b80050fc:	00000000 	nop
b8005100:	93c30018 	lbu	v1,24(s8)
b8005104:	00000000 	nop
b8005108:	24020001 	li	v0,1
b800510c:	14620020 	bne	v1,v0,b8005190 <adc2_init+0xc8>
b8005110:	00000000 	nop
b8005114:	24040010 	li	a0,16
b8005118:	00002821 	move	a1,zero
b800511c:	0e00138f 	jal	b8004e3c <init_GPIO_DR2>
b8005120:	00000000 	nop
b8005124:	2404000a 	li	a0,10
b8005128:	0e000983 	jal	b800260c <Delay_ms>
b800512c:	00000000 	nop
b8005130:	24040008 	li	a0,8
b8005134:	24050001 	li	a1,1
b8005138:	0e00138f 	jal	b8004e3c <init_GPIO_DR2>
b800513c:	00000000 	nop
b8005140:	24040064 	li	a0,100
b8005144:	0e000983 	jal	b800260c <Delay_ms>
b8005148:	00000000 	nop
b800514c:	24040008 	li	a0,8
b8005150:	00002821 	move	a1,zero
b8005154:	0e00138f 	jal	b8004e3c <init_GPIO_DR2>
b8005158:	00000000 	nop
b800515c:	24040002 	li	a0,2
b8005160:	00002821 	move	a1,zero
b8005164:	0e00138f 	jal	b8004e3c <init_GPIO_DR2>
b8005168:	00000000 	nop
b800516c:	24040064 	li	a0,100
b8005170:	0e000983 	jal	b800260c <Delay_ms>
b8005174:	00000000 	nop
b8005178:	24040002 	li	a0,2
b800517c:	24050001 	li	a1,1
b8005180:	0e00138f 	jal	b8004e3c <init_GPIO_DR2>
b8005184:	00000000 	nop
b8005188:	0a001468 	j	b80051a0 <adc2_init+0xd8>
b800518c:	00000000 	nop
b8005190:	24040010 	li	a0,16
b8005194:	24050001 	li	a1,1
b8005198:	0e00138f 	jal	b8004e3c <init_GPIO_DR2>
b800519c:	00000000 	nop
b80051a0:	03c0e821 	move	sp,s8
b80051a4:	8fbf0014 	lw	ra,20(sp)
b80051a8:	00000000 	nop
b80051ac:	8fbe0010 	lw	s8,16(sp)
b80051b0:	00000000 	nop
b80051b4:	27bd0018 	addiu	sp,sp,24
b80051b8:	03e00008 	jr	ra
b80051bc:	00000000 	nop

b80051c0 <freq_func>:
b80051c0:	27bdffb8 	addiu	sp,sp,-72
b80051c4:	afbf0044 	sw	ra,68(sp)
b80051c8:	afbe0040 	sw	s8,64(sp)
b80051cc:	afb7003c 	sw	s7,60(sp)
b80051d0:	afb60038 	sw	s6,56(sp)
b80051d4:	afb50034 	sw	s5,52(sp)
b80051d8:	afb40030 	sw	s4,48(sp)
b80051dc:	afb3002c 	sw	s3,44(sp)
b80051e0:	afb20028 	sw	s2,40(sp)
b80051e4:	afb10024 	sw	s1,36(sp)
b80051e8:	afb00020 	sw	s0,32(sp)
b80051ec:	03a0f021 	move	s8,sp
b80051f0:	afc40048 	sw	a0,72(s8)
b80051f4:	afc5004c 	sw	a1,76(s8)
b80051f8:	afc00010 	sw	zero,16(s8)
b80051fc:	00001021 	move	v0,zero
b8005200:	00001821 	move	v1,zero
b8005204:	afc20018 	sw	v0,24(s8)
b8005208:	afc3001c 	sw	v1,28(s8)
b800520c:	8fc5004c 	lw	a1,76(s8)
b8005210:	00000000 	nop
b8005214:	3c04ea8a 	lui	a0,0xea8a
b8005218:	3484d600 	ori	a0,a0,0xd600
b800521c:	00a42021 	addu	a0,a1,a0
b8005220:	afc40010 	sw	a0,16(s8)
b8005224:	3c0405f5 	lui	a0,0x5f5
b8005228:	3485e100 	ori	a1,a0,0xe100
b800522c:	8fc40010 	lw	a0,16(s8)
	...
b8005238:	00a42023 	subu	a0,a1,a0
b800523c:	afc40010 	sw	a0,16(s8)
b8005240:	8fc40010 	lw	a0,16(s8)
	...
b800524c:	00803021 	move	a2,a0
b8005250:	00003821 	move	a3,zero
b8005254:	00061800 	sll	v1,a2,0x0
b8005258:	00001021 	move	v0,zero
b800525c:	00402021 	move	a0,v0
b8005260:	00602821 	move	a1,v1
b8005264:	3c0605f5 	lui	a2,0x5f5
b8005268:	34c6e100 	ori	a2,a2,0xe100
b800526c:	00003821 	move	a3,zero
b8005270:	0e002fec 	jal	b800bfb0 <__divdi3>
b8005274:	00000000 	nop
b8005278:	afc20018 	sw	v0,24(s8)
b800527c:	afc3001c 	sw	v1,28(s8)
b8005280:	97c30018 	lhu	v1,24(s8)
b8005284:	00000000 	nop
b8005288:	8fc20048 	lw	v0,72(s8)
	...
b8005294:	a443022e 	sh	v1,558(v0)
b8005298:	8fc2001c 	lw	v0,28(s8)
	...
b80052a4:	00021400 	sll	v0,v0,0x10
b80052a8:	8fc30018 	lw	v1,24(s8)
	...
b80052b4:	0003b402 	srl	s6,v1,0x10
b80052b8:	0056b025 	or	s6,v0,s6
b80052bc:	8fc2001c 	lw	v0,28(s8)
	...
b80052c8:	0002bc03 	sra	s7,v0,0x10
b80052cc:	32c3ffff 	andi	v1,s6,0xffff
b80052d0:	8fc20048 	lw	v0,72(s8)
	...
b80052dc:	a4430230 	sh	v1,560(v0)
b80052e0:	97c30018 	lhu	v1,24(s8)
b80052e4:	00000000 	nop
b80052e8:	8fc20048 	lw	v0,72(s8)
	...
b80052f4:	a443034a 	sh	v1,842(v0)
b80052f8:	8fc2001c 	lw	v0,28(s8)
	...
b8005304:	00021400 	sll	v0,v0,0x10
b8005308:	8fc30018 	lw	v1,24(s8)
	...
b8005314:	0003a402 	srl	s4,v1,0x10
b8005318:	0054a025 	or	s4,v0,s4
b800531c:	8fc2001c 	lw	v0,28(s8)
	...
b8005328:	0002ac03 	sra	s5,v0,0x10
b800532c:	3283ffff 	andi	v1,s4,0xffff
b8005330:	8fc20048 	lw	v0,72(s8)
	...
b800533c:	a443034c 	sh	v1,844(v0)
b8005340:	97c30018 	lhu	v1,24(s8)
b8005344:	00000000 	nop
b8005348:	8fc20048 	lw	v0,72(s8)
	...
b8005354:	a4430466 	sh	v1,1126(v0)
b8005358:	8fc2001c 	lw	v0,28(s8)
	...
b8005364:	00021400 	sll	v0,v0,0x10
b8005368:	8fc30018 	lw	v1,24(s8)
	...
b8005374:	00039402 	srl	s2,v1,0x10
b8005378:	00529025 	or	s2,v0,s2
b800537c:	8fc2001c 	lw	v0,28(s8)
	...
b8005388:	00029c03 	sra	s3,v0,0x10
b800538c:	3243ffff 	andi	v1,s2,0xffff
b8005390:	8fc20048 	lw	v0,72(s8)
	...
b800539c:	a4430468 	sh	v1,1128(v0)
b80053a0:	97c30018 	lhu	v1,24(s8)
b80053a4:	00000000 	nop
b80053a8:	8fc20048 	lw	v0,72(s8)
	...
b80053b4:	a4430582 	sh	v1,1410(v0)
b80053b8:	8fc2001c 	lw	v0,28(s8)
	...
b80053c4:	00021400 	sll	v0,v0,0x10
b80053c8:	8fc30018 	lw	v1,24(s8)
	...
b80053d4:	00038402 	srl	s0,v1,0x10
b80053d8:	00508025 	or	s0,v0,s0
b80053dc:	8fc2001c 	lw	v0,28(s8)
	...
b80053e8:	00028c03 	sra	s1,v0,0x10
b80053ec:	3203ffff 	andi	v1,s0,0xffff
b80053f0:	8fc20048 	lw	v0,72(s8)
	...
b80053fc:	a4430584 	sh	v1,1412(v0)
b8005400:	3c02b801 	lui	v0,0xb801
b8005404:	2442e340 	addiu	v0,v0,-7360
b8005408:	9442022e 	lhu	v0,558(v0)
b800540c:	00000000 	nop
b8005410:	2404002e 	li	a0,46
b8005414:	00402821 	move	a1,v0
b8005418:	0e001a42 	jal	b8006908 <spi_1288_wr>
b800541c:	00000000 	nop
b8005420:	3c02b801 	lui	v0,0xb801
b8005424:	2442e340 	addiu	v0,v0,-7360
b8005428:	94420230 	lhu	v0,560(v0)
b800542c:	00000000 	nop
b8005430:	2404002f 	li	a0,47
b8005434:	00402821 	move	a1,v0
b8005438:	0e001a42 	jal	b8006908 <spi_1288_wr>
b800543c:	00000000 	nop
b8005440:	3c02b801 	lui	v0,0xb801
b8005444:	2442e340 	addiu	v0,v0,-7360
b8005448:	9442034a 	lhu	v0,842(v0)
b800544c:	00000000 	nop
b8005450:	2404012e 	li	a0,302
b8005454:	00402821 	move	a1,v0
b8005458:	0e001a42 	jal	b8006908 <spi_1288_wr>
b800545c:	00000000 	nop
b8005460:	3c02b801 	lui	v0,0xb801
b8005464:	2442e340 	addiu	v0,v0,-7360
b8005468:	9442034c 	lhu	v0,844(v0)
b800546c:	00000000 	nop
b8005470:	2404012f 	li	a0,303
b8005474:	00402821 	move	a1,v0
b8005478:	0e001a42 	jal	b8006908 <spi_1288_wr>
b800547c:	00000000 	nop
b8005480:	3c02b801 	lui	v0,0xb801
b8005484:	2442e340 	addiu	v0,v0,-7360
b8005488:	94420466 	lhu	v0,1126(v0)
b800548c:	00000000 	nop
b8005490:	2404022e 	li	a0,558
b8005494:	00402821 	move	a1,v0
b8005498:	0e001a42 	jal	b8006908 <spi_1288_wr>
b800549c:	00000000 	nop
b80054a0:	3c02b801 	lui	v0,0xb801
b80054a4:	2442e340 	addiu	v0,v0,-7360
b80054a8:	94420468 	lhu	v0,1128(v0)
b80054ac:	00000000 	nop
b80054b0:	2404022f 	li	a0,559
b80054b4:	00402821 	move	a1,v0
b80054b8:	0e001a42 	jal	b8006908 <spi_1288_wr>
b80054bc:	00000000 	nop
b80054c0:	3c02b801 	lui	v0,0xb801
b80054c4:	2442e340 	addiu	v0,v0,-7360
b80054c8:	94420582 	lhu	v0,1410(v0)
b80054cc:	00000000 	nop
b80054d0:	2404032e 	li	a0,814
b80054d4:	00402821 	move	a1,v0
b80054d8:	0e001a42 	jal	b8006908 <spi_1288_wr>
b80054dc:	00000000 	nop
b80054e0:	3c02b801 	lui	v0,0xb801
b80054e4:	2442e340 	addiu	v0,v0,-7360
b80054e8:	94420584 	lhu	v0,1412(v0)
b80054ec:	00000000 	nop
b80054f0:	2404032f 	li	a0,815
b80054f4:	00402821 	move	a1,v0
b80054f8:	0e001a42 	jal	b8006908 <spi_1288_wr>
b80054fc:	00000000 	nop
b8005500:	24040005 	li	a0,5
b8005504:	34058003 	li	a1,0x8003
b8005508:	0e001a42 	jal	b8006908 <spi_1288_wr>
b800550c:	00000000 	nop
b8005510:	03c0e821 	move	sp,s8
b8005514:	8fbf0044 	lw	ra,68(sp)
b8005518:	00000000 	nop
b800551c:	8fbe0040 	lw	s8,64(sp)
b8005520:	00000000 	nop
b8005524:	8fb7003c 	lw	s7,60(sp)
b8005528:	00000000 	nop
b800552c:	8fb60038 	lw	s6,56(sp)
b8005530:	00000000 	nop
b8005534:	8fb50034 	lw	s5,52(sp)
b8005538:	00000000 	nop
b800553c:	8fb40030 	lw	s4,48(sp)
b8005540:	00000000 	nop
b8005544:	8fb3002c 	lw	s3,44(sp)
b8005548:	00000000 	nop
b800554c:	8fb20028 	lw	s2,40(sp)
b8005550:	00000000 	nop
b8005554:	8fb10024 	lw	s1,36(sp)
b8005558:	00000000 	nop
b800555c:	8fb00020 	lw	s0,32(sp)
b8005560:	00000000 	nop
b8005564:	27bd0048 	addiu	sp,sp,72
b8005568:	03e00008 	jr	ra
b800556c:	00000000 	nop

b8005570 <Menu1>:
b8005570:	27bdfff8 	addiu	sp,sp,-8
b8005574:	afbe0004 	sw	s8,4(sp)
b8005578:	03a0f021 	move	s8,sp
b800557c:	03c0e821 	move	sp,s8
b8005580:	8fbe0004 	lw	s8,4(sp)
b8005584:	00000000 	nop
b8005588:	27bd0008 	addiu	sp,sp,8
b800558c:	03e00008 	jr	ra
b8005590:	00000000 	nop

b8005594 <IO>:
b8005594:	27bdffd0 	addiu	sp,sp,-48
b8005598:	afbf002c 	sw	ra,44(sp)
b800559c:	afbe0028 	sw	s8,40(sp)
b80055a0:	03a0f021 	move	s8,sp
b80055a4:	afc40030 	sw	a0,48(s8)
b80055a8:	afc00010 	sw	zero,16(s8)
b80055ac:	3c02b801 	lui	v0,0xb801
b80055b0:	9442dbba 	lhu	v0,-9286(v0)
	...
b80055bc:	afc20010 	sw	v0,16(s8)
b80055c0:	3c02b801 	lui	v0,0xb801
b80055c4:	9442dbba 	lhu	v0,-9286(v0)
	...
b80055d0:	14400006 	bnez	v0,b80055ec <IO+0x58>
b80055d4:	00000000 	nop
b80055d8:	8fc40030 	lw	a0,48(s8)
b80055dc:	00000000 	nop
b80055e0:	0e001096 	jal	b8004258 <leng>
b80055e4:	00000000 	nop
b80055e8:	afc20010 	sw	v0,16(s8)
b80055ec:	3c02b801 	lui	v0,0xb801
b80055f0:	a440dbba 	sh	zero,-9286(v0)
b80055f4:	3c02b801 	lui	v0,0xb801
b80055f8:	ac40dbc8 	sw	zero,-9272(v0)
b80055fc:	0a001756 	j	b8005d58 <IO+0x7c4>
b8005600:	00000000 	nop
b8005604:	3c02b801 	lui	v0,0xb801
b8005608:	8c42dbc8 	lw	v0,-9272(v0)
b800560c:	00000000 	nop
b8005610:	8fc30030 	lw	v1,48(s8)
	...
b800561c:	00621021 	addu	v0,v1,v0
b8005620:	80430000 	lb	v1,0(v0)
b8005624:	00000000 	nop
b8005628:	2402007e 	li	v0,126
b800562c:	14620030 	bne	v1,v0,b80056f0 <IO+0x15c>
b8005630:	00000000 	nop
b8005634:	3c02b801 	lui	v0,0xb801
b8005638:	9042dbc6 	lbu	v0,-9274(v0)
	...
b8005644:	1440002a 	bnez	v0,b80056f0 <IO+0x15c>
b8005648:	00000000 	nop
b800564c:	3c02b801 	lui	v0,0xb801
b8005650:	24030001 	li	v1,1
b8005654:	a043dbc6 	sb	v1,-9274(v0)
b8005658:	3c02b801 	lui	v0,0xb801
b800565c:	ac40dbe8 	sw	zero,-9240(v0)
b8005660:	3c02b801 	lui	v0,0xb801
b8005664:	ac40dbc0 	sw	zero,-9280(v0)
b8005668:	3c02b801 	lui	v0,0xb801
b800566c:	a040dbc4 	sb	zero,-9276(v0)
b8005670:	3c02b801 	lui	v0,0xb801
b8005674:	a040dbc5 	sb	zero,-9275(v0)
b8005678:	3c02b801 	lui	v0,0xb801
b800567c:	ac40dbcc 	sw	zero,-9268(v0)
b8005680:	3c02b801 	lui	v0,0xb801
b8005684:	24030001 	li	v1,1
b8005688:	ac43dbd0 	sw	v1,-9264(v0)
b800568c:	3c02b801 	lui	v0,0xb801
b8005690:	24030001 	li	v1,1
b8005694:	ac43dbd4 	sw	v1,-9260(v0)
b8005698:	3c02b801 	lui	v0,0xb801
b800569c:	a040dbdc 	sb	zero,-9252(v0)
b80056a0:	3c02b801 	lui	v0,0xb801
b80056a4:	a040dbdd 	sb	zero,-9251(v0)
b80056a8:	3c02b801 	lui	v0,0xb801
b80056ac:	a040dbde 	sb	zero,-9250(v0)
b80056b0:	3c02b801 	lui	v0,0xb801
b80056b4:	ac40dbd8 	sw	zero,-9256(v0)
b80056b8:	3c02b801 	lui	v0,0xb801
b80056bc:	ac40dbe0 	sw	zero,-9248(v0)
b80056c0:	3c02b801 	lui	v0,0xb801
b80056c4:	24030020 	li	v1,32
b80056c8:	a043de58 	sb	v1,-8616(v0)
b80056cc:	3c02b801 	lui	v0,0xb801
b80056d0:	24030020 	li	v1,32
b80056d4:	a043ea08 	sb	v1,-5624(v0)
b80056d8:	3c02b801 	lui	v0,0xb801
b80056dc:	a040dbe5 	sb	zero,-9243(v0)
b80056e0:	3c02b801 	lui	v0,0xb801
b80056e4:	a040dbe4 	sb	zero,-9244(v0)
b80056e8:	3c02b801 	lui	v0,0xb801
b80056ec:	a440dbbc 	sh	zero,-9284(v0)
b80056f0:	3c02b801 	lui	v0,0xb801
b80056f4:	8c44dbc0 	lw	a0,-9280(v0)
b80056f8:	00000000 	nop
b80056fc:	3c02b801 	lui	v0,0xb801
b8005700:	8c42dbc8 	lw	v0,-9272(v0)
b8005704:	00000000 	nop
b8005708:	8fc30030 	lw	v1,48(s8)
	...
b8005714:	00621021 	addu	v0,v1,v0
b8005718:	80430000 	lb	v1,0(v0)
b800571c:	00000000 	nop
b8005720:	3c02b801 	lui	v0,0xb801
b8005724:	2442ead0 	addiu	v0,v0,-5424
b8005728:	00821021 	addu	v0,a0,v0
b800572c:	a0430000 	sb	v1,0(v0)
b8005730:	3c02b801 	lui	v0,0xb801
b8005734:	9442dbbc 	lhu	v0,-9284(v0)
	...
b8005740:	24420001 	addiu	v0,v0,1
b8005744:	3043ffff 	andi	v1,v0,0xffff
b8005748:	3c02b801 	lui	v0,0xb801
b800574c:	a443dbbc 	sh	v1,-9284(v0)
b8005750:	3c02b801 	lui	v0,0xb801
b8005754:	8c43dbc0 	lw	v1,-9280(v0)
b8005758:	00000000 	nop
b800575c:	3c02b801 	lui	v0,0xb801
b8005760:	2442ead0 	addiu	v0,v0,-5424
b8005764:	00621021 	addu	v0,v1,v0
b8005768:	80430000 	lb	v1,0(v0)
b800576c:	00000000 	nop
b8005770:	2402003b 	li	v0,59
b8005774:	14620015 	bne	v1,v0,b80057cc <IO+0x238>
b8005778:	00000000 	nop
b800577c:	3c02b801 	lui	v0,0xb801
b8005780:	9042dbe4 	lbu	v0,-9244(v0)
	...
b800578c:	1440000f 	bnez	v0,b80057cc <IO+0x238>
b8005790:	00000000 	nop
b8005794:	3c02b801 	lui	v0,0xb801
b8005798:	9043dbc6 	lbu	v1,-9274(v0)
b800579c:	00000000 	nop
b80057a0:	24020001 	li	v0,1
b80057a4:	14620009 	bne	v1,v0,b80057cc <IO+0x238>
b80057a8:	00000000 	nop
b80057ac:	3c02b801 	lui	v0,0xb801
b80057b0:	a040dbc6 	sb	zero,-9274(v0)
b80057b4:	3c02b801 	lui	v0,0xb801
b80057b8:	24030001 	li	v1,1
b80057bc:	a043dbc5 	sb	v1,-9275(v0)
b80057c0:	3c02b801 	lui	v0,0xb801
b80057c4:	24030001 	li	v1,1
b80057c8:	a043dbe5 	sb	v1,-9243(v0)
b80057cc:	3c02b801 	lui	v0,0xb801
b80057d0:	8c43dbc0 	lw	v1,-9280(v0)
b80057d4:	00000000 	nop
b80057d8:	3c02b801 	lui	v0,0xb801
b80057dc:	2442ead0 	addiu	v0,v0,-5424
b80057e0:	00621021 	addu	v0,v1,v0
b80057e4:	80430000 	lb	v1,0(v0)
b80057e8:	00000000 	nop
b80057ec:	2402003d 	li	v0,61
b80057f0:	1062000c 	beq	v1,v0,b8005824 <IO+0x290>
b80057f4:	00000000 	nop
b80057f8:	3c02b801 	lui	v0,0xb801
b80057fc:	8c43dbc0 	lw	v1,-9280(v0)
b8005800:	00000000 	nop
b8005804:	3c02b801 	lui	v0,0xb801
b8005808:	2442ead0 	addiu	v0,v0,-5424
b800580c:	00621021 	addu	v0,v1,v0
b8005810:	80430000 	lb	v1,0(v0)
b8005814:	00000000 	nop
b8005818:	2402003a 	li	v0,58
b800581c:	1462000d 	bne	v1,v0,b8005854 <IO+0x2c0>
b8005820:	00000000 	nop
b8005824:	3c02b801 	lui	v0,0xb801
b8005828:	9042dbdc 	lbu	v0,-9252(v0)
	...
b8005834:	14400007 	bnez	v0,b8005854 <IO+0x2c0>
b8005838:	00000000 	nop
b800583c:	3c02b801 	lui	v0,0xb801
b8005840:	24030001 	li	v1,1
b8005844:	a043dbdc 	sb	v1,-9252(v0)
b8005848:	3c02b801 	lui	v0,0xb801
b800584c:	24030001 	li	v1,1
b8005850:	a043dbe5 	sb	v1,-9243(v0)
b8005854:	3c02b801 	lui	v0,0xb801
b8005858:	8c43dbc0 	lw	v1,-9280(v0)
b800585c:	00000000 	nop
b8005860:	3c02b801 	lui	v0,0xb801
b8005864:	2442ead0 	addiu	v0,v0,-5424
b8005868:	00621021 	addu	v0,v1,v0
b800586c:	80430000 	lb	v1,0(v0)
b8005870:	00000000 	nop
b8005874:	2402002e 	li	v0,46
b8005878:	14620013 	bne	v1,v0,b80058c8 <IO+0x334>
b800587c:	00000000 	nop
b8005880:	3c02b801 	lui	v0,0xb801
b8005884:	9042dbdd 	lbu	v0,-9251(v0)
	...
b8005890:	1440000d 	bnez	v0,b80058c8 <IO+0x334>
b8005894:	00000000 	nop
b8005898:	3c02b801 	lui	v0,0xb801
b800589c:	9042dbe4 	lbu	v0,-9244(v0)
	...
b80058a8:	14400007 	bnez	v0,b80058c8 <IO+0x334>
b80058ac:	00000000 	nop
b80058b0:	3c02b801 	lui	v0,0xb801
b80058b4:	24030001 	li	v1,1
b80058b8:	a043dbdd 	sb	v1,-9251(v0)
b80058bc:	3c02b801 	lui	v0,0xb801
b80058c0:	24030001 	li	v1,1
b80058c4:	a043dbe5 	sb	v1,-9243(v0)
b80058c8:	3c02b801 	lui	v0,0xb801
b80058cc:	8c43dbc0 	lw	v1,-9280(v0)
b80058d0:	00000000 	nop
b80058d4:	3c02b801 	lui	v0,0xb801
b80058d8:	2442ead0 	addiu	v0,v0,-5424
b80058dc:	00621021 	addu	v0,v1,v0
b80058e0:	80430000 	lb	v1,0(v0)
b80058e4:	00000000 	nop
b80058e8:	24020024 	li	v0,36
b80058ec:	1462000d 	bne	v1,v0,b8005924 <IO+0x390>
b80058f0:	00000000 	nop
b80058f4:	3c02b801 	lui	v0,0xb801
b80058f8:	9042dbde 	lbu	v0,-9250(v0)
	...
b8005904:	14400007 	bnez	v0,b8005924 <IO+0x390>
b8005908:	00000000 	nop
b800590c:	3c02b801 	lui	v0,0xb801
b8005910:	24030002 	li	v1,2
b8005914:	a043dbde 	sb	v1,-9250(v0)
b8005918:	3c02b801 	lui	v0,0xb801
b800591c:	24030001 	li	v1,1
b8005920:	a043dbe5 	sb	v1,-9243(v0)
b8005924:	3c02b801 	lui	v0,0xb801
b8005928:	8c42dbc0 	lw	v0,-9280(v0)
	...
b8005934:	2c420003 	sltiu	v0,v0,3
b8005938:	144000b1 	bnez	v0,b8005c00 <IO+0x66c>
b800593c:	00000000 	nop
b8005940:	3c02b801 	lui	v0,0xb801
b8005944:	2442ead0 	addiu	v0,v0,-5424
b8005948:	80430002 	lb	v1,2(v0)
b800594c:	00000000 	nop
b8005950:	24020020 	li	v0,32
b8005954:	146200aa 	bne	v1,v0,b8005c00 <IO+0x66c>
b8005958:	00000000 	nop
b800595c:	3c02b801 	lui	v0,0xb801
b8005960:	9042dbe5 	lbu	v0,-9243(v0)
	...
b800596c:	144000a4 	bnez	v0,b8005c00 <IO+0x66c>
b8005970:	00000000 	nop
b8005974:	3c02b801 	lui	v0,0xb801
b8005978:	9042dbde 	lbu	v0,-9250(v0)
	...
b8005984:	2c420002 	sltiu	v0,v0,2
b8005988:	1040009d 	beqz	v0,b8005c00 <IO+0x66c>
b800598c:	00000000 	nop
b8005990:	3c02b801 	lui	v0,0xb801
b8005994:	9043dbdc 	lbu	v1,-9252(v0)
b8005998:	00000000 	nop
b800599c:	24020001 	li	v0,1
b80059a0:	10620010 	beq	v1,v0,b80059e4 <IO+0x450>
b80059a4:	00000000 	nop
b80059a8:	3c02b801 	lui	v0,0xb801
b80059ac:	8c44dbcc 	lw	a0,-9268(v0)
b80059b0:	00000000 	nop
b80059b4:	3c02b801 	lui	v0,0xb801
b80059b8:	8c43dbc0 	lw	v1,-9280(v0)
b80059bc:	00000000 	nop
b80059c0:	3c02b801 	lui	v0,0xb801
b80059c4:	2442ead0 	addiu	v0,v0,-5424
b80059c8:	00621021 	addu	v0,v1,v0
b80059cc:	80430000 	lb	v1,0(v0)
b80059d0:	00000000 	nop
b80059d4:	3c02b801 	lui	v0,0xb801
b80059d8:	2442df20 	addiu	v0,v0,-8416
b80059dc:	00821021 	addu	v0,a0,v0
b80059e0:	a0430000 	sb	v1,0(v0)
b80059e4:	3c02b801 	lui	v0,0xb801
b80059e8:	9043dbdc 	lbu	v1,-9252(v0)
b80059ec:	00000000 	nop
b80059f0:	24020001 	li	v0,1
b80059f4:	14620016 	bne	v1,v0,b8005a50 <IO+0x4bc>
b80059f8:	00000000 	nop
b80059fc:	3c02b801 	lui	v0,0xb801
b8005a00:	9042dbdd 	lbu	v0,-9251(v0)
	...
b8005a0c:	14400010 	bnez	v0,b8005a50 <IO+0x4bc>
b8005a10:	00000000 	nop
b8005a14:	3c02b801 	lui	v0,0xb801
b8005a18:	8c44dbd0 	lw	a0,-9264(v0)
b8005a1c:	00000000 	nop
b8005a20:	3c02b801 	lui	v0,0xb801
b8005a24:	8c43dbc0 	lw	v1,-9280(v0)
b8005a28:	00000000 	nop
b8005a2c:	3c02b801 	lui	v0,0xb801
b8005a30:	2442ead0 	addiu	v0,v0,-5424
b8005a34:	00621021 	addu	v0,v1,v0
b8005a38:	80430000 	lb	v1,0(v0)
b8005a3c:	00000000 	nop
b8005a40:	3c02b801 	lui	v0,0xb801
b8005a44:	2442de58 	addiu	v0,v0,-8616
b8005a48:	00821021 	addu	v0,a0,v0
b8005a4c:	a0430000 	sb	v1,0(v0)
b8005a50:	3c02b801 	lui	v0,0xb801
b8005a54:	9043dbdc 	lbu	v1,-9252(v0)
b8005a58:	00000000 	nop
b8005a5c:	24020001 	li	v0,1
b8005a60:	14620016 	bne	v1,v0,b8005abc <IO+0x528>
b8005a64:	00000000 	nop
b8005a68:	3c02b801 	lui	v0,0xb801
b8005a6c:	9043dbdd 	lbu	v1,-9251(v0)
b8005a70:	00000000 	nop
b8005a74:	24020001 	li	v0,1
b8005a78:	14620010 	bne	v1,v0,b8005abc <IO+0x528>
b8005a7c:	00000000 	nop
b8005a80:	3c02b801 	lui	v0,0xb801
b8005a84:	8c44dbd4 	lw	a0,-9260(v0)
b8005a88:	00000000 	nop
b8005a8c:	3c02b801 	lui	v0,0xb801
b8005a90:	8c43dbc0 	lw	v1,-9280(v0)
b8005a94:	00000000 	nop
b8005a98:	3c02b801 	lui	v0,0xb801
b8005a9c:	2442ead0 	addiu	v0,v0,-5424
b8005aa0:	00621021 	addu	v0,v1,v0
b8005aa4:	80430000 	lb	v1,0(v0)
b8005aa8:	00000000 	nop
b8005aac:	3c02b801 	lui	v0,0xb801
b8005ab0:	2442ea08 	addiu	v0,v0,-5624
b8005ab4:	00821021 	addu	v0,a0,v0
b8005ab8:	a0430000 	sb	v1,0(v0)
b8005abc:	3c02b801 	lui	v0,0xb801
b8005ac0:	9043dbdc 	lbu	v1,-9252(v0)
b8005ac4:	00000000 	nop
b8005ac8:	24020001 	li	v0,1
b8005acc:	10620011 	beq	v1,v0,b8005b14 <IO+0x580>
b8005ad0:	00000000 	nop
b8005ad4:	3c02b801 	lui	v0,0xb801
b8005ad8:	8c42dbcc 	lw	v0,-9268(v0)
	...
b8005ae4:	2c420020 	sltiu	v0,v0,32
b8005ae8:	10400045 	beqz	v0,b8005c00 <IO+0x66c>
b8005aec:	00000000 	nop
b8005af0:	3c02b801 	lui	v0,0xb801
b8005af4:	8c42dbcc 	lw	v0,-9268(v0)
	...
b8005b00:	24430001 	addiu	v1,v0,1
b8005b04:	3c02b801 	lui	v0,0xb801
b8005b08:	ac43dbcc 	sw	v1,-9268(v0)
b8005b0c:	0a001700 	j	b8005c00 <IO+0x66c>
b8005b10:	00000000 	nop
b8005b14:	3c02b801 	lui	v0,0xb801
b8005b18:	9043dbdc 	lbu	v1,-9252(v0)
b8005b1c:	00000000 	nop
b8005b20:	24020001 	li	v0,1
b8005b24:	1462001c 	bne	v1,v0,b8005b98 <IO+0x604>
b8005b28:	00000000 	nop
b8005b2c:	3c02b801 	lui	v0,0xb801
b8005b30:	9042dbdd 	lbu	v0,-9251(v0)
	...
b8005b3c:	14400016 	bnez	v0,b8005b98 <IO+0x604>
b8005b40:	00000000 	nop
b8005b44:	3c02b801 	lui	v0,0xb801
b8005b48:	8c42dbd0 	lw	v0,-9264(v0)
	...
b8005b54:	2c4200c8 	sltiu	v0,v0,200
b8005b58:	1040000f 	beqz	v0,b8005b98 <IO+0x604>
b8005b5c:	00000000 	nop
b8005b60:	3c02b801 	lui	v0,0xb801
b8005b64:	8c42dbd0 	lw	v0,-9264(v0)
	...
b8005b70:	24430001 	addiu	v1,v0,1
b8005b74:	3c02b801 	lui	v0,0xb801
b8005b78:	ac43dbd0 	sw	v1,-9264(v0)
b8005b7c:	3c02b801 	lui	v0,0xb801
b8005b80:	8c42dbe0 	lw	v0,-9248(v0)
	...
b8005b8c:	24430001 	addiu	v1,v0,1
b8005b90:	3c02b801 	lui	v0,0xb801
b8005b94:	ac43dbe0 	sw	v1,-9248(v0)
b8005b98:	3c02b801 	lui	v0,0xb801
b8005b9c:	9043dbdc 	lbu	v1,-9252(v0)
b8005ba0:	00000000 	nop
b8005ba4:	24020001 	li	v0,1
b8005ba8:	14620015 	bne	v1,v0,b8005c00 <IO+0x66c>
b8005bac:	00000000 	nop
b8005bb0:	3c02b801 	lui	v0,0xb801
b8005bb4:	9043dbdd 	lbu	v1,-9251(v0)
b8005bb8:	00000000 	nop
b8005bbc:	24020001 	li	v0,1
b8005bc0:	1462000f 	bne	v1,v0,b8005c00 <IO+0x66c>
b8005bc4:	00000000 	nop
b8005bc8:	3c02b801 	lui	v0,0xb801
b8005bcc:	8c42dbd4 	lw	v0,-9260(v0)
	...
b8005bd8:	2c4200c8 	sltiu	v0,v0,200
b8005bdc:	10400008 	beqz	v0,b8005c00 <IO+0x66c>
b8005be0:	00000000 	nop
b8005be4:	3c02b801 	lui	v0,0xb801
b8005be8:	8c42dbd4 	lw	v0,-9260(v0)
	...
b8005bf4:	24430001 	addiu	v1,v0,1
b8005bf8:	3c02b801 	lui	v0,0xb801
b8005bfc:	ac43dbd4 	sw	v1,-9260(v0)
b8005c00:	3c02b801 	lui	v0,0xb801
b8005c04:	9043dbde 	lbu	v1,-9250(v0)
b8005c08:	00000000 	nop
b8005c0c:	24020002 	li	v0,2
b8005c10:	14620017 	bne	v1,v0,b8005c70 <IO+0x6dc>
b8005c14:	00000000 	nop
b8005c18:	3c02b801 	lui	v0,0xb801
b8005c1c:	9042dbe5 	lbu	v0,-9243(v0)
	...
b8005c28:	14400011 	bnez	v0,b8005c70 <IO+0x6dc>
b8005c2c:	00000000 	nop
b8005c30:	3c02b801 	lui	v0,0xb801
b8005c34:	8c43dbc0 	lw	v1,-9280(v0)
b8005c38:	00000000 	nop
b8005c3c:	3c02b801 	lui	v0,0xb801
b8005c40:	2442ead0 	addiu	v0,v0,-5424
b8005c44:	00621021 	addu	v0,v1,v0
b8005c48:	80420000 	lb	v0,0(v0)
	...
b8005c54:	304200ff 	andi	v0,v0,0xff
b8005c58:	00401821 	move	v1,v0
b8005c5c:	3c02b801 	lui	v0,0xb801
b8005c60:	ac43dbd8 	sw	v1,-9256(v0)
b8005c64:	3c02b801 	lui	v0,0xb801
b8005c68:	24030001 	li	v1,1
b8005c6c:	a043dbde 	sb	v1,-9250(v0)
b8005c70:	3c02b801 	lui	v0,0xb801
b8005c74:	8c43dbe0 	lw	v1,-9248(v0)
b8005c78:	00000000 	nop
b8005c7c:	3c02b801 	lui	v0,0xb801
b8005c80:	8c42dbd8 	lw	v0,-9256(v0)
	...
b8005c8c:	0062102b 	sltu	v0,v1,v0
b8005c90:	1040000c 	beqz	v0,b8005cc4 <IO+0x730>
b8005c94:	00000000 	nop
b8005c98:	3c02b801 	lui	v0,0xb801
b8005c9c:	9043dbde 	lbu	v1,-9250(v0)
b8005ca0:	00000000 	nop
b8005ca4:	24020001 	li	v0,1
b8005ca8:	14620006 	bne	v1,v0,b8005cc4 <IO+0x730>
b8005cac:	00000000 	nop
b8005cb0:	3c02b801 	lui	v0,0xb801
b8005cb4:	24030001 	li	v1,1
b8005cb8:	a043dbe4 	sb	v1,-9244(v0)
b8005cbc:	0a001733 	j	b8005ccc <IO+0x738>
b8005cc0:	00000000 	nop
b8005cc4:	3c02b801 	lui	v0,0xb801
b8005cc8:	a040dbe4 	sb	zero,-9244(v0)
b8005ccc:	3c02b801 	lui	v0,0xb801
b8005cd0:	8c42dbc0 	lw	v0,-9280(v0)
	...
b8005cdc:	2c420040 	sltiu	v0,v0,64
b8005ce0:	10400008 	beqz	v0,b8005d04 <IO+0x770>
b8005ce4:	00000000 	nop
b8005ce8:	3c02b801 	lui	v0,0xb801
b8005cec:	8c42dbc0 	lw	v0,-9280(v0)
	...
b8005cf8:	24430001 	addiu	v1,v0,1
b8005cfc:	3c02b801 	lui	v0,0xb801
b8005d00:	ac43dbc0 	sw	v1,-9280(v0)
b8005d04:	3c02b801 	lui	v0,0xb801
b8005d08:	8c42dbc8 	lw	v0,-9272(v0)
	...
b8005d14:	2c420040 	sltiu	v0,v0,64
b8005d18:	10400008 	beqz	v0,b8005d3c <IO+0x7a8>
b8005d1c:	00000000 	nop
b8005d20:	3c02b801 	lui	v0,0xb801
b8005d24:	8c42dbc8 	lw	v0,-9272(v0)
	...
b8005d30:	24430001 	addiu	v1,v0,1
b8005d34:	3c02b801 	lui	v0,0xb801
b8005d38:	ac43dbc8 	sw	v1,-9272(v0)
b8005d3c:	8fc20010 	lw	v0,16(s8)
	...
b8005d48:	2442ffff 	addiu	v0,v0,-1
b8005d4c:	afc20010 	sw	v0,16(s8)
b8005d50:	3c02b801 	lui	v0,0xb801
b8005d54:	a040dbe5 	sb	zero,-9243(v0)
b8005d58:	8fc20010 	lw	v0,16(s8)
	...
b8005d64:	1440fe27 	bnez	v0,b8005604 <IO+0x70>
b8005d68:	00000000 	nop
b8005d6c:	3c02b801 	lui	v0,0xb801
b8005d70:	9043dbc5 	lbu	v1,-9275(v0)
b8005d74:	00000000 	nop
b8005d78:	24020001 	li	v0,1
b8005d7c:	1462025a 	bne	v1,v0,b80066e8 <IO+0x1154>
b8005d80:	00000000 	nop
b8005d84:	3c02b801 	lui	v0,0xb801
b8005d88:	8043ead0 	lb	v1,-5424(v0)
b8005d8c:	00000000 	nop
b8005d90:	2402007e 	li	v0,126
b8005d94:	14620009 	bne	v1,v0,b8005dbc <IO+0x828>
b8005d98:	00000000 	nop
b8005d9c:	3c02b801 	lui	v0,0xb801
b8005da0:	9042dbc4 	lbu	v0,-9276(v0)
	...
b8005dac:	34420001 	ori	v0,v0,0x1
b8005db0:	304300ff 	andi	v1,v0,0xff
b8005db4:	3c02b801 	lui	v0,0xb801
b8005db8:	a043dbc4 	sb	v1,-9276(v0)
b8005dbc:	3c02b801 	lui	v0,0xb801
b8005dc0:	2442ead0 	addiu	v0,v0,-5424
b8005dc4:	80430001 	lb	v1,1(v0)
b8005dc8:	00000000 	nop
b8005dcc:	3c02b801 	lui	v0,0xb801
b8005dd0:	8042dbb9 	lb	v0,-9287(v0)
	...
b8005ddc:	14620009 	bne	v1,v0,b8005e04 <IO+0x870>
b8005de0:	00000000 	nop
b8005de4:	3c02b801 	lui	v0,0xb801
b8005de8:	9042dbc4 	lbu	v0,-9276(v0)
	...
b8005df4:	34420002 	ori	v0,v0,0x2
b8005df8:	304300ff 	andi	v1,v0,0xff
b8005dfc:	3c02b801 	lui	v0,0xb801
b8005e00:	a043dbc4 	sb	v1,-9276(v0)
b8005e04:	3c02b801 	lui	v0,0xb801
b8005e08:	9043dbc4 	lbu	v1,-9276(v0)
b8005e0c:	00000000 	nop
b8005e10:	24020003 	li	v0,3
b8005e14:	146201b7 	bne	v1,v0,b80064f4 <IO+0xf60>
b8005e18:	00000000 	nop
b8005e1c:	3c02b801 	lui	v0,0xb801
b8005e20:	2444df20 	addiu	a0,v0,-8416
b8005e24:	3c02b801 	lui	v0,0xb801
b8005e28:	2445d374 	addiu	a1,v0,-11404
b8005e2c:	0e003166 	jal	b800c598 <strcmp>
b8005e30:	00000000 	nop
b8005e34:	14400014 	bnez	v0,b8005e88 <IO+0x8f4>
b8005e38:	00000000 	nop
b8005e3c:	3c02b801 	lui	v0,0xb801
b8005e40:	2444de58 	addiu	a0,v0,-8616
b8005e44:	0e003141 	jal	b800c504 <atoi>
b8005e48:	00000000 	nop
b8005e4c:	00401821 	move	v1,v0
b8005e50:	3c02b801 	lui	v0,0xb801
b8005e54:	ac43de3c 	sw	v1,-8644(v0)
b8005e58:	3c02b801 	lui	v0,0xb801
b8005e5c:	8c42de3c 	lw	v0,-8644(v0)
b8005e60:	00000000 	nop
b8005e64:	3c03b801 	lui	v1,0xb801
b8005e68:	2464d37c 	addiu	a0,v1,-11396
b8005e6c:	00402821 	move	a1,v0
b8005e70:	0e000f77 	jal	b8003ddc <u_out>
b8005e74:	00000000 	nop
b8005e78:	0e00202e 	jal	b80080b8 <SETUP>
b8005e7c:	00000000 	nop
b8005e80:	0a00193d 	j	b80064f4 <IO+0xf60>
b8005e84:	00000000 	nop
b8005e88:	3c02b801 	lui	v0,0xb801
b8005e8c:	2444df20 	addiu	a0,v0,-8416
b8005e90:	3c02b801 	lui	v0,0xb801
b8005e94:	2445d38c 	addiu	a1,v0,-11380
b8005e98:	0e003166 	jal	b800c598 <strcmp>
b8005e9c:	00000000 	nop
b8005ea0:	1440001d 	bnez	v0,b8005f18 <IO+0x984>
b8005ea4:	00000000 	nop
b8005ea8:	3c02b801 	lui	v0,0xb801
b8005eac:	2444de58 	addiu	a0,v0,-8616
b8005eb0:	0e003141 	jal	b800c504 <atoi>
b8005eb4:	00000000 	nop
b8005eb8:	00401821 	move	v1,v0
b8005ebc:	3c02b801 	lui	v0,0xb801
b8005ec0:	ac43de3c 	sw	v1,-8644(v0)
b8005ec4:	3c02b801 	lui	v0,0xb801
b8005ec8:	8c42de3c 	lw	v0,-8644(v0)
b8005ecc:	00000000 	nop
b8005ed0:	3c03b801 	lui	v1,0xb801
b8005ed4:	2464d394 	addiu	a0,v1,-11372
b8005ed8:	00402821 	move	a1,v0
b8005edc:	0e000f77 	jal	b8003ddc <u_out>
b8005ee0:	00000000 	nop
b8005ee4:	3c02b801 	lui	v0,0xb801
b8005ee8:	24030001 	li	v1,1
b8005eec:	ac43dc14 	sw	v1,-9196(v0)
b8005ef0:	3c02b801 	lui	v0,0xb801
b8005ef4:	ac40dc08 	sw	zero,-9208(v0)
b8005ef8:	3c02b801 	lui	v0,0xb801
b8005efc:	ac40dc10 	sw	zero,-9200(v0)
b8005f00:	3c02b801 	lui	v0,0xb801
b8005f04:	ac40dbf0 	sw	zero,-9232(v0)
b8005f08:	0e001dcf 	jal	b800773c <SW_init>
b8005f0c:	00000000 	nop
b8005f10:	0a00193d 	j	b80064f4 <IO+0xf60>
b8005f14:	00000000 	nop
b8005f18:	3c02b801 	lui	v0,0xb801
b8005f1c:	2444df20 	addiu	a0,v0,-8416
b8005f20:	3c02b801 	lui	v0,0xb801
b8005f24:	2445d3a4 	addiu	a1,v0,-11356
b8005f28:	0e003166 	jal	b800c598 <strcmp>
b8005f2c:	00000000 	nop
b8005f30:	1440001a 	bnez	v0,b8005f9c <IO+0xa08>
b8005f34:	00000000 	nop
b8005f38:	3c02b801 	lui	v0,0xb801
b8005f3c:	2444de58 	addiu	a0,v0,-8616
b8005f40:	0e003141 	jal	b800c504 <atoi>
b8005f44:	00000000 	nop
b8005f48:	00401821 	move	v1,v0
b8005f4c:	3c02b801 	lui	v0,0xb801
b8005f50:	ac43de3c 	sw	v1,-8644(v0)
b8005f54:	3c02b801 	lui	v0,0xb801
b8005f58:	8c42de3c 	lw	v0,-8644(v0)
b8005f5c:	00000000 	nop
b8005f60:	3c03b801 	lui	v1,0xb801
b8005f64:	2464d3ac 	addiu	a0,v1,-11348
b8005f68:	00402821 	move	a1,v0
b8005f6c:	0e000f77 	jal	b8003ddc <u_out>
b8005f70:	00000000 	nop
b8005f74:	3c02b801 	lui	v0,0xb801
b8005f78:	8c42de3c 	lw	v0,-8644(v0)
b8005f7c:	00000000 	nop
b8005f80:	3c03b801 	lui	v1,0xb801
b8005f84:	2464e340 	addiu	a0,v1,-7360
b8005f88:	00402821 	move	a1,v0
b8005f8c:	0e001470 	jal	b80051c0 <freq_func>
b8005f90:	00000000 	nop
b8005f94:	0a00193d 	j	b80064f4 <IO+0xf60>
b8005f98:	00000000 	nop
b8005f9c:	3c02b801 	lui	v0,0xb801
b8005fa0:	2444df20 	addiu	a0,v0,-8416
b8005fa4:	3c02b801 	lui	v0,0xb801
b8005fa8:	2445d3bc 	addiu	a1,v0,-11332
b8005fac:	0e003166 	jal	b800c598 <strcmp>
b8005fb0:	00000000 	nop
b8005fb4:	14400020 	bnez	v0,b8006038 <IO+0xaa4>
b8005fb8:	00000000 	nop
b8005fbc:	3c02b801 	lui	v0,0xb801
b8005fc0:	2444de58 	addiu	a0,v0,-8616
b8005fc4:	0e003141 	jal	b800c504 <atoi>
b8005fc8:	00000000 	nop
b8005fcc:	00401821 	move	v1,v0
b8005fd0:	3c02b801 	lui	v0,0xb801
b8005fd4:	ac43de3c 	sw	v1,-8644(v0)
b8005fd8:	3c02b801 	lui	v0,0xb801
b8005fdc:	8c42de3c 	lw	v0,-8644(v0)
b8005fe0:	00000000 	nop
b8005fe4:	3c03b801 	lui	v1,0xb801
b8005fe8:	2464d3c8 	addiu	a0,v1,-11320
b8005fec:	00402821 	move	a1,v0
b8005ff0:	0e000f77 	jal	b8003ddc <u_out>
b8005ff4:	00000000 	nop
b8005ff8:	24040080 	li	a0,128
b8005ffc:	00002821 	move	a1,zero
b8006000:	0e00138f 	jal	b8004e3c <init_GPIO_DR2>
b8006004:	00000000 	nop
b8006008:	24040005 	li	a0,5
b800600c:	24050307 	li	a1,775
b8006010:	0e001a42 	jal	b8006908 <spi_1288_wr>
b8006014:	00000000 	nop
b8006018:	24040080 	li	a0,128
b800601c:	24050001 	li	a1,1
b8006020:	0e00138f 	jal	b8004e3c <init_GPIO_DR2>
b8006024:	00000000 	nop
b8006028:	0e001f6d 	jal	b8007db4 <lPORT_DMA>
b800602c:	00000000 	nop
b8006030:	0a00193d 	j	b80064f4 <IO+0xf60>
b8006034:	00000000 	nop
b8006038:	3c02b801 	lui	v0,0xb801
b800603c:	2444df20 	addiu	a0,v0,-8416
b8006040:	3c02b801 	lui	v0,0xb801
b8006044:	2445d3dc 	addiu	a1,v0,-11300
b8006048:	0e003166 	jal	b800c598 <strcmp>
b800604c:	00000000 	nop
b8006050:	14400022 	bnez	v0,b80060dc <IO+0xb48>
b8006054:	00000000 	nop
b8006058:	3c02b801 	lui	v0,0xb801
b800605c:	2444de58 	addiu	a0,v0,-8616
b8006060:	0e003141 	jal	b800c504 <atoi>
b8006064:	00000000 	nop
b8006068:	00401821 	move	v1,v0
b800606c:	3c02b801 	lui	v0,0xb801
b8006070:	ac43de3c 	sw	v1,-8644(v0)
b8006074:	3c02b801 	lui	v0,0xb801
b8006078:	8c42de3c 	lw	v0,-8644(v0)
b800607c:	00000000 	nop
b8006080:	3c03b801 	lui	v1,0xb801
b8006084:	2464d3e8 	addiu	a0,v1,-11288
b8006088:	00402821 	move	a1,v0
b800608c:	0e000f77 	jal	b8003ddc <u_out>
b8006090:	00000000 	nop
b8006094:	3c02b801 	lui	v0,0xb801
b8006098:	8c43de3c 	lw	v1,-8644(v0)
b800609c:	00000000 	nop
b80060a0:	24020001 	li	v0,1
b80060a4:	14620007 	bne	v1,v0,b80060c4 <IO+0xb30>
b80060a8:	00000000 	nop
b80060ac:	24040080 	li	a0,128
b80060b0:	24050001 	li	a1,1
b80060b4:	0e0013bc 	jal	b8004ef0 <init_GPIO_DR3>
b80060b8:	00000000 	nop
b80060bc:	0a00193d 	j	b80064f4 <IO+0xf60>
b80060c0:	00000000 	nop
b80060c4:	24040080 	li	a0,128
b80060c8:	00002821 	move	a1,zero
b80060cc:	0e0013bc 	jal	b8004ef0 <init_GPIO_DR3>
b80060d0:	00000000 	nop
b80060d4:	0a00193d 	j	b80064f4 <IO+0xf60>
b80060d8:	00000000 	nop
b80060dc:	3c02b801 	lui	v0,0xb801
b80060e0:	2444df20 	addiu	a0,v0,-8416
b80060e4:	3c02b801 	lui	v0,0xb801
b80060e8:	2445d3fc 	addiu	a1,v0,-11268
b80060ec:	0e003166 	jal	b800c598 <strcmp>
b80060f0:	00000000 	nop
b80060f4:	1440000e 	bnez	v0,b8006130 <IO+0xb9c>
b80060f8:	00000000 	nop
b80060fc:	3c02b801 	lui	v0,0xb801
b8006100:	2444d404 	addiu	a0,v0,-11260
b8006104:	0e000f28 	jal	b8003ca0 <Transf>
b8006108:	00000000 	nop
b800610c:	3c02b801 	lui	v0,0xb801
b8006110:	2444d370 	addiu	a0,v0,-11408
b8006114:	0e000f28 	jal	b8003ca0 <Transf>
b8006118:	00000000 	nop
b800611c:	00002021 	move	a0,zero
b8006120:	0e00155c 	jal	b8005570 <Menu1>
b8006124:	00000000 	nop
b8006128:	0a00193d 	j	b80064f4 <IO+0xf60>
b800612c:	00000000 	nop
b8006130:	3c02b801 	lui	v0,0xb801
b8006134:	2444df20 	addiu	a0,v0,-8416
b8006138:	3c02b801 	lui	v0,0xb801
b800613c:	2445d414 	addiu	a1,v0,-11244
b8006140:	0e003166 	jal	b800c598 <strcmp>
b8006144:	00000000 	nop
b8006148:	14400019 	bnez	v0,b80061b0 <IO+0xc1c>
b800614c:	00000000 	nop
b8006150:	3c02b801 	lui	v0,0xb801
b8006154:	2444de58 	addiu	a0,v0,-8616
b8006158:	0e003141 	jal	b800c504 <atoi>
b800615c:	00000000 	nop
b8006160:	00401821 	move	v1,v0
b8006164:	3c02b801 	lui	v0,0xb801
b8006168:	ac43de3c 	sw	v1,-8644(v0)
b800616c:	3c02b801 	lui	v0,0xb801
b8006170:	8c42de3c 	lw	v0,-8644(v0)
b8006174:	00000000 	nop
b8006178:	3c03b801 	lui	v1,0xb801
b800617c:	2464d41c 	addiu	a0,v1,-11236
b8006180:	00402821 	move	a1,v0
b8006184:	0e000f77 	jal	b8003ddc <u_out>
b8006188:	00000000 	nop
b800618c:	3c02b801 	lui	v0,0xb801
b8006190:	8c42de3c 	lw	v0,-8644(v0)
	...
b800619c:	00401821 	move	v1,v0
b80061a0:	3c02b801 	lui	v0,0xb801
b80061a4:	ac43dc0c 	sw	v1,-9204(v0)
b80061a8:	0a00193d 	j	b80064f4 <IO+0xf60>
b80061ac:	00000000 	nop
b80061b0:	3c02b801 	lui	v0,0xb801
b80061b4:	2444df20 	addiu	a0,v0,-8416
b80061b8:	3c02b801 	lui	v0,0xb801
b80061bc:	2445d42c 	addiu	a1,v0,-11220
b80061c0:	0e003166 	jal	b800c598 <strcmp>
b80061c4:	00000000 	nop
b80061c8:	14400026 	bnez	v0,b8006264 <IO+0xcd0>
b80061cc:	00000000 	nop
b80061d0:	3c02b801 	lui	v0,0xb801
b80061d4:	2444d430 	addiu	a0,v0,-11216
b80061d8:	0e000f28 	jal	b8003ca0 <Transf>
b80061dc:	00000000 	nop
b80061e0:	3c02b801 	lui	v0,0xb801
b80061e4:	2444de58 	addiu	a0,v0,-8616
b80061e8:	0e003141 	jal	b800c504 <atoi>
b80061ec:	00000000 	nop
b80061f0:	00401821 	move	v1,v0
b80061f4:	3c02b801 	lui	v0,0xb801
b80061f8:	ac43de3c 	sw	v1,-8644(v0)
b80061fc:	3c02b801 	lui	v0,0xb801
b8006200:	8c42de3c 	lw	v0,-8644(v0)
b8006204:	00000000 	nop
b8006208:	3c03b801 	lui	v1,0xb801
b800620c:	2464d43c 	addiu	a0,v1,-11204
b8006210:	00402821 	move	a1,v0
b8006214:	0e000f77 	jal	b8003ddc <u_out>
b8006218:	00000000 	nop
b800621c:	3c02b801 	lui	v0,0xb801
b8006220:	8c42de3c 	lw	v0,-8644(v0)
	...
b800622c:	304200ff 	andi	v0,v0,0xff
b8006230:	00402021 	move	a0,v0
b8006234:	0e0013f4 	jal	b8004fd0 <adc1_init>
b8006238:	00000000 	nop
b800623c:	3c02b801 	lui	v0,0xb801
b8006240:	8c42de3c 	lw	v0,-8644(v0)
	...
b800624c:	304200ff 	andi	v0,v0,0xff
b8006250:	00402021 	move	a0,v0
b8006254:	0e001432 	jal	b80050c8 <adc2_init>
b8006258:	00000000 	nop
b800625c:	0a00193d 	j	b80064f4 <IO+0xf60>
b8006260:	00000000 	nop
b8006264:	3c02b801 	lui	v0,0xb801
b8006268:	2444df20 	addiu	a0,v0,-8416
b800626c:	3c02b801 	lui	v0,0xb801
b8006270:	2445d448 	addiu	a1,v0,-11192
b8006274:	0e003166 	jal	b800c598 <strcmp>
b8006278:	00000000 	nop
b800627c:	1440001a 	bnez	v0,b80062e8 <IO+0xd54>
b8006280:	00000000 	nop
b8006284:	3c02b801 	lui	v0,0xb801
b8006288:	2444de58 	addiu	a0,v0,-8616
b800628c:	0e003141 	jal	b800c504 <atoi>
b8006290:	00000000 	nop
b8006294:	00401821 	move	v1,v0
b8006298:	3c02b801 	lui	v0,0xb801
b800629c:	ac43de3c 	sw	v1,-8644(v0)
b80062a0:	3c02b801 	lui	v0,0xb801
b80062a4:	8c42de3c 	lw	v0,-8644(v0)
b80062a8:	00000000 	nop
b80062ac:	3c03b801 	lui	v1,0xb801
b80062b0:	2464d450 	addiu	a0,v1,-11184
b80062b4:	00402821 	move	a1,v0
b80062b8:	0e000f77 	jal	b8003ddc <u_out>
b80062bc:	00000000 	nop
b80062c0:	3c02b801 	lui	v0,0xb801
b80062c4:	8c42de3c 	lw	v0,-8644(v0)
	...
b80062d0:	304200ff 	andi	v0,v0,0xff
b80062d4:	00402021 	move	a0,v0
b80062d8:	0e0010bb 	jal	b80042ec <AT1>
b80062dc:	00000000 	nop
b80062e0:	0a00193d 	j	b80064f4 <IO+0xf60>
b80062e4:	00000000 	nop
b80062e8:	3c02b801 	lui	v0,0xb801
b80062ec:	2444df20 	addiu	a0,v0,-8416
b80062f0:	3c02b801 	lui	v0,0xb801
b80062f4:	2445d460 	addiu	a1,v0,-11168
b80062f8:	0e003166 	jal	b800c598 <strcmp>
b80062fc:	00000000 	nop
b8006300:	1440001a 	bnez	v0,b800636c <IO+0xdd8>
b8006304:	00000000 	nop
b8006308:	3c02b801 	lui	v0,0xb801
b800630c:	2444de58 	addiu	a0,v0,-8616
b8006310:	0e003141 	jal	b800c504 <atoi>
b8006314:	00000000 	nop
b8006318:	00401821 	move	v1,v0
b800631c:	3c02b801 	lui	v0,0xb801
b8006320:	ac43de3c 	sw	v1,-8644(v0)
b8006324:	3c02b801 	lui	v0,0xb801
b8006328:	8c42de3c 	lw	v0,-8644(v0)
b800632c:	00000000 	nop
b8006330:	3c03b801 	lui	v1,0xb801
b8006334:	2464d468 	addiu	a0,v1,-11160
b8006338:	00402821 	move	a1,v0
b800633c:	0e000f77 	jal	b8003ddc <u_out>
b8006340:	00000000 	nop
b8006344:	3c02b801 	lui	v0,0xb801
b8006348:	8c42de3c 	lw	v0,-8644(v0)
	...
b8006354:	304200ff 	andi	v0,v0,0xff
b8006358:	00402021 	move	a0,v0
b800635c:	0e001162 	jal	b8004588 <AT2>
b8006360:	00000000 	nop
b8006364:	0a00193d 	j	b80064f4 <IO+0xf60>
b8006368:	00000000 	nop
b800636c:	3c02b801 	lui	v0,0xb801
b8006370:	2444df20 	addiu	a0,v0,-8416
b8006374:	3c02b801 	lui	v0,0xb801
b8006378:	2445d478 	addiu	a1,v0,-11144
b800637c:	0e003166 	jal	b800c598 <strcmp>
b8006380:	00000000 	nop
b8006384:	14400030 	bnez	v0,b8006448 <IO+0xeb4>
b8006388:	00000000 	nop
b800638c:	3c02b801 	lui	v0,0xb801
b8006390:	2444de58 	addiu	a0,v0,-8616
b8006394:	0e003141 	jal	b800c504 <atoi>
b8006398:	00000000 	nop
b800639c:	00401821 	move	v1,v0
b80063a0:	3c02b801 	lui	v0,0xb801
b80063a4:	ac43de3c 	sw	v1,-8644(v0)
b80063a8:	3c02b801 	lui	v0,0xb801
b80063ac:	2444ea08 	addiu	a0,v0,-5624
b80063b0:	0e003141 	jal	b800c504 <atoi>
b80063b4:	00000000 	nop
b80063b8:	00401821 	move	v1,v0
b80063bc:	3c02b801 	lui	v0,0xb801
b80063c0:	ac43de38 	sw	v1,-8648(v0)
b80063c4:	3c02b801 	lui	v0,0xb801
b80063c8:	8c42de3c 	lw	v0,-8644(v0)
b80063cc:	00000000 	nop
b80063d0:	3c03b801 	lui	v1,0xb801
b80063d4:	2464d480 	addiu	a0,v1,-11136
b80063d8:	00402821 	move	a1,v0
b80063dc:	0e000fd5 	jal	b8003f54 <un_out>
b80063e0:	00000000 	nop
b80063e4:	3c02b801 	lui	v0,0xb801
b80063e8:	8c42de38 	lw	v0,-8648(v0)
b80063ec:	00000000 	nop
b80063f0:	3c03b801 	lui	v1,0xb801
b80063f4:	2464d490 	addiu	a0,v1,-11120
b80063f8:	00402821 	move	a1,v0
b80063fc:	0e000f77 	jal	b8003ddc <u_out>
b8006400:	00000000 	nop
b8006404:	3c02b801 	lui	v0,0xb801
b8006408:	8c42de3c 	lw	v0,-8644(v0)
	...
b8006414:	3042ffff 	andi	v0,v0,0xffff
b8006418:	00401821 	move	v1,v0
b800641c:	3c02b801 	lui	v0,0xb801
b8006420:	8c42de38 	lw	v0,-8648(v0)
	...
b800642c:	3042ffff 	andi	v0,v0,0xffff
b8006430:	00602021 	move	a0,v1
b8006434:	00402821 	move	a1,v0
b8006438:	0e001a42 	jal	b8006908 <spi_1288_wr>
b800643c:	00000000 	nop
b8006440:	0a00193d 	j	b80064f4 <IO+0xf60>
b8006444:	00000000 	nop
b8006448:	3c02b801 	lui	v0,0xb801
b800644c:	2444df20 	addiu	a0,v0,-8416
b8006450:	3c02b801 	lui	v0,0xb801
b8006454:	2445d494 	addiu	a1,v0,-11116
b8006458:	0e003166 	jal	b800c598 <strcmp>
b800645c:	00000000 	nop
b8006460:	14400024 	bnez	v0,b80064f4 <IO+0xf60>
b8006464:	00000000 	nop
b8006468:	3c02b801 	lui	v0,0xb801
b800646c:	2444de58 	addiu	a0,v0,-8616
b8006470:	0e003141 	jal	b800c504 <atoi>
b8006474:	00000000 	nop
b8006478:	00401821 	move	v1,v0
b800647c:	3c02b801 	lui	v0,0xb801
b8006480:	ac43de3c 	sw	v1,-8644(v0)
b8006484:	3c02b801 	lui	v0,0xb801
b8006488:	2444ea08 	addiu	a0,v0,-5624
b800648c:	0e003141 	jal	b800c504 <atoi>
b8006490:	00000000 	nop
b8006494:	00401821 	move	v1,v0
b8006498:	3c02b801 	lui	v0,0xb801
b800649c:	ac43de38 	sw	v1,-8648(v0)
b80064a0:	3c02b801 	lui	v0,0xb801
b80064a4:	8c42de3c 	lw	v0,-8644(v0)
b80064a8:	00000000 	nop
b80064ac:	3c03b801 	lui	v1,0xb801
b80064b0:	2464d49c 	addiu	a0,v1,-11108
b80064b4:	00402821 	move	a1,v0
b80064b8:	0e000f77 	jal	b8003ddc <u_out>
b80064bc:	00000000 	nop
b80064c0:	3c02b801 	lui	v0,0xb801
b80064c4:	8c42de3c 	lw	v0,-8644(v0)
	...
b80064d0:	3042ffff 	andi	v0,v0,0xffff
b80064d4:	00402021 	move	a0,v0
b80064d8:	0e001a66 	jal	b8006998 <spi_1288_rd>
b80064dc:	00000000 	nop
b80064e0:	3c03b801 	lui	v1,0xb801
b80064e4:	2464d4ac 	addiu	a0,v1,-11092
b80064e8:	00402821 	move	a1,v0
b80064ec:	0e000f99 	jal	b8003e64 <x_out>
b80064f0:	00000000 	nop
b80064f4:	afc00010 	sw	zero,16(s8)
b80064f8:	0a00194c 	j	b8006530 <IO+0xf9c>
b80064fc:	00000000 	nop
b8006500:	3c02b801 	lui	v0,0xb801
b8006504:	2443df20 	addiu	v1,v0,-8416
b8006508:	8fc20010 	lw	v0,16(s8)
	...
b8006514:	00621021 	addu	v0,v1,v0
b8006518:	a0400000 	sb	zero,0(v0)
b800651c:	8fc20010 	lw	v0,16(s8)
	...
b8006528:	24420001 	addiu	v0,v0,1
b800652c:	afc20010 	sw	v0,16(s8)
b8006530:	8fc20010 	lw	v0,16(s8)
	...
b800653c:	2c420020 	sltiu	v0,v0,32
b8006540:	1440ffef 	bnez	v0,b8006500 <IO+0xf6c>
b8006544:	00000000 	nop
b8006548:	afc00010 	sw	zero,16(s8)
b800654c:	0a001961 	j	b8006584 <IO+0xff0>
b8006550:	00000000 	nop
b8006554:	3c02b801 	lui	v0,0xb801
b8006558:	2443de58 	addiu	v1,v0,-8616
b800655c:	8fc20010 	lw	v0,16(s8)
	...
b8006568:	00621021 	addu	v0,v1,v0
b800656c:	a0400000 	sb	zero,0(v0)
b8006570:	8fc20010 	lw	v0,16(s8)
	...
b800657c:	24420001 	addiu	v0,v0,1
b8006580:	afc20010 	sw	v0,16(s8)
b8006584:	8fc20010 	lw	v0,16(s8)
	...
b8006590:	2c4200c8 	sltiu	v0,v0,200
b8006594:	1440ffef 	bnez	v0,b8006554 <IO+0xfc0>
b8006598:	00000000 	nop
b800659c:	afc00010 	sw	zero,16(s8)
b80065a0:	0a001976 	j	b80065d8 <IO+0x1044>
b80065a4:	00000000 	nop
b80065a8:	3c02b801 	lui	v0,0xb801
b80065ac:	2443ea08 	addiu	v1,v0,-5624
b80065b0:	8fc20010 	lw	v0,16(s8)
	...
b80065bc:	00621021 	addu	v0,v1,v0
b80065c0:	a0400000 	sb	zero,0(v0)
b80065c4:	8fc20010 	lw	v0,16(s8)
	...
b80065d0:	24420001 	addiu	v0,v0,1
b80065d4:	afc20010 	sw	v0,16(s8)
b80065d8:	8fc20010 	lw	v0,16(s8)
	...
b80065e4:	2c4200c8 	sltiu	v0,v0,200
b80065e8:	1440ffef 	bnez	v0,b80065a8 <IO+0x1014>
b80065ec:	00000000 	nop
b80065f0:	afc00010 	sw	zero,16(s8)
b80065f4:	0a00198b 	j	b800662c <IO+0x1098>
b80065f8:	00000000 	nop
b80065fc:	3c02b801 	lui	v0,0xb801
b8006600:	2443ead0 	addiu	v1,v0,-5424
b8006604:	8fc20010 	lw	v0,16(s8)
	...
b8006610:	00621021 	addu	v0,v1,v0
b8006614:	a0400000 	sb	zero,0(v0)
b8006618:	8fc20010 	lw	v0,16(s8)
	...
b8006624:	24420001 	addiu	v0,v0,1
b8006628:	afc20010 	sw	v0,16(s8)
b800662c:	8fc20010 	lw	v0,16(s8)
	...
b8006638:	2c420040 	sltiu	v0,v0,64
b800663c:	1440ffef 	bnez	v0,b80065fc <IO+0x1068>
b8006640:	00000000 	nop
b8006644:	3c02b801 	lui	v0,0xb801
b8006648:	ac40dbe8 	sw	zero,-9240(v0)
b800664c:	3c02b801 	lui	v0,0xb801
b8006650:	a040dbc6 	sb	zero,-9274(v0)
b8006654:	3c02b801 	lui	v0,0xb801
b8006658:	ac40dbc0 	sw	zero,-9280(v0)
b800665c:	3c02b801 	lui	v0,0xb801
b8006660:	a040dbc4 	sb	zero,-9276(v0)
b8006664:	afc00010 	sw	zero,16(s8)
b8006668:	3c02b801 	lui	v0,0xb801
b800666c:	a040dbc5 	sb	zero,-9275(v0)
b8006670:	3c02b801 	lui	v0,0xb801
b8006674:	ac40dbcc 	sw	zero,-9268(v0)
b8006678:	3c02b801 	lui	v0,0xb801
b800667c:	ac40dbd0 	sw	zero,-9264(v0)
b8006680:	3c02b801 	lui	v0,0xb801
b8006684:	a040dbdc 	sb	zero,-9252(v0)
b8006688:	3c02b801 	lui	v0,0xb801
b800668c:	ac40dbd4 	sw	zero,-9260(v0)
b8006690:	3c02b801 	lui	v0,0xb801
b8006694:	a040dbdd 	sb	zero,-9251(v0)
b8006698:	3c02b801 	lui	v0,0xb801
b800669c:	ac40dbc8 	sw	zero,-9272(v0)
b80066a0:	3c02b801 	lui	v0,0xb801
b80066a4:	a040dbde 	sb	zero,-9250(v0)
b80066a8:	3c02b801 	lui	v0,0xb801
b80066ac:	ac40dbd8 	sw	zero,-9256(v0)
b80066b0:	3c02b801 	lui	v0,0xb801
b80066b4:	ac40dbe0 	sw	zero,-9248(v0)
b80066b8:	3c02b801 	lui	v0,0xb801
b80066bc:	a040dbe5 	sb	zero,-9243(v0)
b80066c0:	3c02b801 	lui	v0,0xb801
b80066c4:	a040dbe4 	sb	zero,-9244(v0)
b80066c8:	3c02b801 	lui	v0,0xb801
b80066cc:	24030020 	li	v1,32
b80066d0:	a043de58 	sb	v1,-8616(v0)
b80066d4:	3c02b801 	lui	v0,0xb801
b80066d8:	24030020 	li	v1,32
b80066dc:	a043ea08 	sb	v1,-5624(v0)
b80066e0:	3c02b801 	lui	v0,0xb801
b80066e4:	a440dbbc 	sh	zero,-9284(v0)
b80066e8:	3c02b801 	lui	v0,0xb801
b80066ec:	9043dbc5 	lbu	v1,-9275(v0)
b80066f0:	00000000 	nop
b80066f4:	24020001 	li	v0,1
b80066f8:	00001021 	move	v0,zero
b80066fc:	03c0e821 	move	sp,s8
b8006700:	8fbf002c 	lw	ra,44(sp)
b8006704:	00000000 	nop
b8006708:	8fbe0028 	lw	s8,40(sp)
b800670c:	00000000 	nop
b8006710:	27bd0030 	addiu	sp,sp,48
b8006714:	03e00008 	jr	ra
b8006718:	00000000 	nop

b800671c <ID0_init>:
b800671c:	27bdfff8 	addiu	sp,sp,-8
b8006720:	afbe0004 	sw	s8,4(sp)
b8006724:	03a0f021 	move	s8,sp
b8006728:	3c02b82f 	lui	v0,0xb82f
b800672c:	34425020 	ori	v0,v0,0x5020
b8006730:	ac400000 	sw	zero,0(v0)
b8006734:	3c02b82f 	lui	v0,0xb82f
b8006738:	34425024 	ori	v0,v0,0x5024
b800673c:	240303e8 	li	v1,1000
b8006740:	ac430000 	sw	v1,0(v0)
b8006744:	3c02b82f 	lui	v0,0xb82f
b8006748:	3442502c 	ori	v0,v0,0x502c
b800674c:	24030064 	li	v1,100
b8006750:	ac430000 	sw	v1,0(v0)
b8006754:	3c02b82f 	lui	v0,0xb82f
b8006758:	34425020 	ori	v0,v0,0x5020
b800675c:	3c03b82f 	lui	v1,0xb82f
b8006760:	34635020 	ori	v1,v1,0x5020
b8006764:	8c630000 	lw	v1,0(v1)
	...
b8006770:	34630001 	ori	v1,v1,0x1
b8006774:	ac430000 	sw	v1,0(v0)
b8006778:	03c0e821 	move	sp,s8
b800677c:	8fbe0004 	lw	s8,4(sp)
b8006780:	00000000 	nop
b8006784:	27bd0008 	addiu	sp,sp,8
b8006788:	03e00008 	jr	ra
b800678c:	00000000 	nop

b8006790 <ID0_IT_handler>:
b8006790:	27bdfff8 	addiu	sp,sp,-8
b8006794:	afbe0004 	sw	s8,4(sp)
b8006798:	03a0f021 	move	s8,sp
b800679c:	3c02b82f 	lui	v0,0xb82f
b80067a0:	34425020 	ori	v0,v0,0x5020
b80067a4:	3c03b82f 	lui	v1,0xb82f
b80067a8:	34635020 	ori	v1,v1,0x5020
b80067ac:	8c640000 	lw	a0,0(v1)
b80067b0:	00000000 	nop
b80067b4:	2403fffd 	li	v1,-3
b80067b8:	00831824 	and	v1,a0,v1
b80067bc:	ac430000 	sw	v1,0(v0)
b80067c0:	3c02b801 	lui	v0,0xb801
b80067c4:	8c42dbfc 	lw	v0,-9220(v0)
	...
b80067d0:	10400008 	beqz	v0,b80067f4 <ID0_IT_handler+0x64>
b80067d4:	00000000 	nop
b80067d8:	3c02b801 	lui	v0,0xb801
b80067dc:	8c42dbfc 	lw	v0,-9220(v0)
	...
b80067e8:	2443ffff 	addiu	v1,v0,-1
b80067ec:	3c02b801 	lui	v0,0xb801
b80067f0:	ac43dbfc 	sw	v1,-9220(v0)
b80067f4:	3c02b801 	lui	v0,0xb801
b80067f8:	8c42dc00 	lw	v0,-9216(v0)
	...
b8006804:	10400008 	beqz	v0,b8006828 <ID0_IT_handler+0x98>
b8006808:	00000000 	nop
b800680c:	3c02b801 	lui	v0,0xb801
b8006810:	8c42dc00 	lw	v0,-9216(v0)
	...
b800681c:	2443ffff 	addiu	v1,v0,-1
b8006820:	3c02b801 	lui	v0,0xb801
b8006824:	ac43dc00 	sw	v1,-9216(v0)
b8006828:	3c02b801 	lui	v0,0xb801
b800682c:	8c42dc04 	lw	v0,-9212(v0)
	...
b8006838:	10400008 	beqz	v0,b800685c <ID0_IT_handler+0xcc>
b800683c:	00000000 	nop
b8006840:	3c02b801 	lui	v0,0xb801
b8006844:	8c42dc04 	lw	v0,-9212(v0)
	...
b8006850:	2443ffff 	addiu	v1,v0,-1
b8006854:	3c02b801 	lui	v0,0xb801
b8006858:	ac43dc04 	sw	v1,-9212(v0)
b800685c:	03c0e821 	move	sp,s8
b8006860:	8fbe0004 	lw	s8,4(sp)
b8006864:	00000000 	nop
b8006868:	27bd0008 	addiu	sp,sp,8
b800686c:	03e00008 	jr	ra
b8006870:	00000000 	nop

b8006874 <spi>:
b8006874:	27bdfff0 	addiu	sp,sp,-16
b8006878:	afbe000c 	sw	s8,12(sp)
b800687c:	03a0f021 	move	s8,sp
b8006880:	afc40010 	sw	a0,16(s8)
b8006884:	afc00000 	sw	zero,0(s8)
b8006888:	3c02b82f 	lui	v0,0xb82f
b800688c:	34426000 	ori	v0,v0,0x6000
b8006890:	8fc30010 	lw	v1,16(s8)
	...
b800689c:	ac430000 	sw	v1,0(v0)
b80068a0:	00000000 	nop
b80068a4:	3c02b82f 	lui	v0,0xb82f
b80068a8:	34426004 	ori	v0,v0,0x6004
b80068ac:	8c420000 	lw	v0,0(v0)
	...
b80068b8:	30420010 	andi	v0,v0,0x10
b80068bc:	1040fff9 	beqz	v0,b80068a4 <spi+0x30>
b80068c0:	00000000 	nop
b80068c4:	3c02b82f 	lui	v0,0xb82f
b80068c8:	34426000 	ori	v0,v0,0x6000
b80068cc:	8c420000 	lw	v0,0(v0)
	...
b80068d8:	afc20000 	sw	v0,0(s8)
b80068dc:	8fc30000 	lw	v1,0(s8)
b80068e0:	00000000 	nop
b80068e4:	3c0200ff 	lui	v0,0xff
b80068e8:	3442ffff 	ori	v0,v0,0xffff
b80068ec:	00621024 	and	v0,v1,v0
b80068f0:	03c0e821 	move	sp,s8
b80068f4:	8fbe000c 	lw	s8,12(sp)
b80068f8:	00000000 	nop
b80068fc:	27bd0010 	addiu	sp,sp,16
b8006900:	03e00008 	jr	ra
b8006904:	00000000 	nop

b8006908 <spi_1288_wr>:
b8006908:	27bdffe0 	addiu	sp,sp,-32
b800690c:	afbf001c 	sw	ra,28(sp)
b8006910:	afbe0018 	sw	s8,24(sp)
b8006914:	03a0f021 	move	s8,sp
b8006918:	00801821 	move	v1,a0
b800691c:	00a01021 	move	v0,a1
b8006920:	a7c30020 	sh	v1,32(s8)
b8006924:	a7c20024 	sh	v0,36(s8)
b8006928:	afc00010 	sw	zero,16(s8)
b800692c:	97c30020 	lhu	v1,32(s8)
b8006930:	00000000 	nop
b8006934:	3c020018 	lui	v0,0x18
b8006938:	00621025 	or	v0,v1,v0
b800693c:	afc20010 	sw	v0,16(s8)
b8006940:	8fc40010 	lw	a0,16(s8)
b8006944:	00000000 	nop
b8006948:	0e001a1d 	jal	b8006874 <spi>
b800694c:	00000000 	nop
b8006950:	97c30024 	lhu	v1,36(s8)
b8006954:	00000000 	nop
b8006958:	3c020028 	lui	v0,0x28
b800695c:	00621025 	or	v0,v1,v0
b8006960:	afc20010 	sw	v0,16(s8)
b8006964:	8fc40010 	lw	a0,16(s8)
b8006968:	00000000 	nop
b800696c:	0e001a1d 	jal	b8006874 <spi>
b8006970:	00000000 	nop
b8006974:	00001021 	move	v0,zero
b8006978:	03c0e821 	move	sp,s8
b800697c:	8fbf001c 	lw	ra,28(sp)
b8006980:	00000000 	nop
b8006984:	8fbe0018 	lw	s8,24(sp)
b8006988:	00000000 	nop
b800698c:	27bd0020 	addiu	sp,sp,32
b8006990:	03e00008 	jr	ra
b8006994:	00000000 	nop

b8006998 <spi_1288_rd>:
b8006998:	27bdffe0 	addiu	sp,sp,-32
b800699c:	afbf001c 	sw	ra,28(sp)
b80069a0:	afbe0018 	sw	s8,24(sp)
b80069a4:	03a0f021 	move	s8,sp
b80069a8:	00801021 	move	v0,a0
b80069ac:	a7c20020 	sh	v0,32(s8)
b80069b0:	afc00010 	sw	zero,16(s8)
b80069b4:	afc00014 	sw	zero,20(s8)
b80069b8:	97c30020 	lhu	v1,32(s8)
b80069bc:	00000000 	nop
b80069c0:	3c0200b8 	lui	v0,0xb8
b80069c4:	00621025 	or	v0,v1,v0
b80069c8:	afc20010 	sw	v0,16(s8)
b80069cc:	8fc40010 	lw	a0,16(s8)
b80069d0:	00000000 	nop
b80069d4:	0e001a1d 	jal	b8006874 <spi>
b80069d8:	00000000 	nop
b80069dc:	3c0200a0 	lui	v0,0xa0
b80069e0:	afc20010 	sw	v0,16(s8)
b80069e4:	8fc40010 	lw	a0,16(s8)
b80069e8:	00000000 	nop
b80069ec:	0e001a1d 	jal	b8006874 <spi>
b80069f0:	00000000 	nop
b80069f4:	afc20014 	sw	v0,20(s8)
b80069f8:	8fc20014 	lw	v0,20(s8)
	...
b8006a04:	3042ffff 	andi	v0,v0,0xffff
b8006a08:	03c0e821 	move	sp,s8
b8006a0c:	8fbf001c 	lw	ra,28(sp)
b8006a10:	00000000 	nop
b8006a14:	8fbe0018 	lw	s8,24(sp)
b8006a18:	00000000 	nop
b8006a1c:	27bd0020 	addiu	sp,sp,32
b8006a20:	03e00008 	jr	ra
b8006a24:	00000000 	nop

b8006a28 <SPI_init>:
b8006a28:	27bdfff8 	addiu	sp,sp,-8
b8006a2c:	afbe0004 	sw	s8,4(sp)
b8006a30:	03a0f021 	move	s8,sp
b8006a34:	3c02b82f 	lui	v0,0xb82f
b8006a38:	34426004 	ori	v0,v0,0x6004
b8006a3c:	ac400000 	sw	zero,0(v0)
b8006a40:	3c02b82f 	lui	v0,0xb82f
b8006a44:	34426004 	ori	v0,v0,0x6004
b8006a48:	3c03b82f 	lui	v1,0xb82f
b8006a4c:	34636004 	ori	v1,v1,0x6004
b8006a50:	8c630000 	lw	v1,0(v1)
	...
b8006a5c:	34630200 	ori	v1,v1,0x200
b8006a60:	ac430000 	sw	v1,0(v0)
b8006a64:	3c02b82f 	lui	v0,0xb82f
b8006a68:	34426008 	ori	v0,v0,0x6008
b8006a6c:	ac400000 	sw	zero,0(v0)
b8006a70:	3c02b82f 	lui	v0,0xb82f
b8006a74:	34426008 	ori	v0,v0,0x6008
b8006a78:	3c03b82f 	lui	v1,0xb82f
b8006a7c:	34636008 	ori	v1,v1,0x6008
b8006a80:	8c630000 	lw	v1,0(v1)
	...
b8006a8c:	3463002e 	ori	v1,v1,0x2e
b8006a90:	ac430000 	sw	v1,0(v0)
b8006a94:	3c02b82f 	lui	v0,0xb82f
b8006a98:	34426010 	ori	v0,v0,0x6010
b8006a9c:	ac400000 	sw	zero,0(v0)
b8006aa0:	3c02b82f 	lui	v0,0xb82f
b8006aa4:	34426010 	ori	v0,v0,0x6010
b8006aa8:	3c03b82f 	lui	v1,0xb82f
b8006aac:	34636010 	ori	v1,v1,0x6010
b8006ab0:	8c640000 	lw	a0,0(v1)
b8006ab4:	00000000 	nop
b8006ab8:	3c03c178 	lui	v1,0xc178
b8006abc:	34630de3 	ori	v1,v1,0xde3
b8006ac0:	00831825 	or	v1,a0,v1
b8006ac4:	ac430000 	sw	v1,0(v0)
b8006ac8:	3c02b82f 	lui	v0,0xb82f
b8006acc:	34426014 	ori	v0,v0,0x6014
b8006ad0:	ac400000 	sw	zero,0(v0)
b8006ad4:	3c02b82f 	lui	v0,0xb82f
b8006ad8:	34426014 	ori	v0,v0,0x6014
b8006adc:	3c03b82f 	lui	v1,0xb82f
b8006ae0:	34636014 	ori	v1,v1,0x6014
b8006ae4:	8c640000 	lw	a0,0(v1)
b8006ae8:	00000000 	nop
b8006aec:	3c030178 	lui	v1,0x178
b8006af0:	34630c0f 	ori	v1,v1,0xc0f
b8006af4:	00831825 	or	v1,a0,v1
b8006af8:	ac430000 	sw	v1,0(v0)
b8006afc:	3c02b82f 	lui	v0,0xb82f
b8006b00:	34426018 	ori	v0,v0,0x6018
b8006b04:	ac400000 	sw	zero,0(v0)
b8006b08:	3c02b82f 	lui	v0,0xb82f
b8006b0c:	34426018 	ori	v0,v0,0x6018
b8006b10:	3c03b82f 	lui	v1,0xb82f
b8006b14:	34636018 	ori	v1,v1,0x6018
b8006b18:	8c630000 	lw	v1,0(v1)
	...
b8006b24:	ac430000 	sw	v1,0(v0)
b8006b28:	3c02b82f 	lui	v0,0xb82f
b8006b2c:	3442601c 	ori	v0,v0,0x601c
b8006b30:	ac400000 	sw	zero,0(v0)
b8006b34:	03c0e821 	move	sp,s8
b8006b38:	8fbe0004 	lw	s8,4(sp)
b8006b3c:	00000000 	nop
b8006b40:	27bd0008 	addiu	sp,sp,8
b8006b44:	03e00008 	jr	ra
b8006b48:	00000000 	nop

b8006b4c <dsp_1288hk1t_init>:
b8006b4c:	27bdffe0 	addiu	sp,sp,-32
b8006b50:	afbf001c 	sw	ra,28(sp)
b8006b54:	afbe0018 	sw	s8,24(sp)
b8006b58:	03a0f021 	move	s8,sp
b8006b5c:	a7c00014 	sh	zero,20(s8)
b8006b60:	a7c00010 	sh	zero,16(s8)
b8006b64:	a7c00016 	sh	zero,22(s8)
b8006b68:	a7c00012 	sh	zero,18(s8)
b8006b6c:	24040001 	li	a0,1
b8006b70:	0e001a66 	jal	b8006998 <spi_1288_rd>
b8006b74:	00000000 	nop
b8006b78:	a7c20014 	sh	v0,20(s8)
b8006b7c:	97c30014 	lhu	v1,20(s8)
b8006b80:	00000000 	nop
b8006b84:	24020101 	li	v0,257
b8006b88:	10620005 	beq	v1,v0,b8006ba0 <dsp_1288hk1t_init+0x54>
b8006b8c:	00000000 	nop
b8006b90:	3c02b801 	lui	v0,0xb801
b8006b94:	2444d4b0 	addiu	a0,v0,-11088
b8006b98:	0e000f28 	jal	b8003ca0 <Transf>
b8006b9c:	00000000 	nop
b8006ba0:	3c02b801 	lui	v0,0xb801
b8006ba4:	2442e340 	addiu	v0,v0,-7360
b8006ba8:	9442020a 	lhu	v0,522(v0)
b8006bac:	00000000 	nop
b8006bb0:	24040005 	li	a0,5
b8006bb4:	00402821 	move	a1,v0
b8006bb8:	0e001a42 	jal	b8006908 <spi_1288_wr>
b8006bbc:	00000000 	nop
b8006bc0:	24040005 	li	a0,5
b8006bc4:	0e001a66 	jal	b8006998 <spi_1288_rd>
b8006bc8:	00000000 	nop
b8006bcc:	00401821 	move	v1,v0
b8006bd0:	3c02b801 	lui	v0,0xb801
b8006bd4:	2442e340 	addiu	v0,v0,-7360
b8006bd8:	9442020a 	lhu	v0,522(v0)
	...
b8006be4:	10620006 	beq	v1,v0,b8006c00 <dsp_1288hk1t_init+0xb4>
b8006be8:	00000000 	nop
b8006bec:	97c20012 	lhu	v0,18(s8)
	...
b8006bf8:	24420001 	addiu	v0,v0,1
b8006bfc:	a7c20012 	sh	v0,18(s8)
b8006c00:	3c02b801 	lui	v0,0xb801
b8006c04:	2442e340 	addiu	v0,v0,-7360
b8006c08:	94420206 	lhu	v0,518(v0)
b8006c0c:	00000000 	nop
b8006c10:	24040003 	li	a0,3
b8006c14:	00402821 	move	a1,v0
b8006c18:	0e001a42 	jal	b8006908 <spi_1288_wr>
b8006c1c:	00000000 	nop
b8006c20:	3c02b801 	lui	v0,0xb801
b8006c24:	2442e340 	addiu	v0,v0,-7360
b8006c28:	94420208 	lhu	v0,520(v0)
b8006c2c:	00000000 	nop
b8006c30:	24040004 	li	a0,4
b8006c34:	00402821 	move	a1,v0
b8006c38:	0e001a42 	jal	b8006908 <spi_1288_wr>
b8006c3c:	00000000 	nop
b8006c40:	3c02b801 	lui	v0,0xb801
b8006c44:	2442e340 	addiu	v0,v0,-7360
b8006c48:	9442020e 	lhu	v0,526(v0)
b8006c4c:	00000000 	nop
b8006c50:	24040009 	li	a0,9
b8006c54:	00402821 	move	a1,v0
b8006c58:	0e001a42 	jal	b8006908 <spi_1288_wr>
b8006c5c:	00000000 	nop
b8006c60:	3c02b801 	lui	v0,0xb801
b8006c64:	2442e340 	addiu	v0,v0,-7360
b8006c68:	94420210 	lhu	v0,528(v0)
b8006c6c:	00000000 	nop
b8006c70:	24040010 	li	a0,16
b8006c74:	00402821 	move	a1,v0
b8006c78:	0e001a42 	jal	b8006908 <spi_1288_wr>
b8006c7c:	00000000 	nop
b8006c80:	3c02b801 	lui	v0,0xb801
b8006c84:	2442e340 	addiu	v0,v0,-7360
b8006c88:	94420212 	lhu	v0,530(v0)
b8006c8c:	00000000 	nop
b8006c90:	24040014 	li	a0,20
b8006c94:	00402821 	move	a1,v0
b8006c98:	0e001a42 	jal	b8006908 <spi_1288_wr>
b8006c9c:	00000000 	nop
b8006ca0:	3c02b801 	lui	v0,0xb801
b8006ca4:	2442e340 	addiu	v0,v0,-7360
b8006ca8:	94420214 	lhu	v0,532(v0)
b8006cac:	00000000 	nop
b8006cb0:	24040015 	li	a0,21
b8006cb4:	00402821 	move	a1,v0
b8006cb8:	0e001a42 	jal	b8006908 <spi_1288_wr>
b8006cbc:	00000000 	nop
b8006cc0:	3c02b801 	lui	v0,0xb801
b8006cc4:	2442e340 	addiu	v0,v0,-7360
b8006cc8:	9442021a 	lhu	v0,538(v0)
b8006ccc:	00000000 	nop
b8006cd0:	24040022 	li	a0,34
b8006cd4:	00402821 	move	a1,v0
b8006cd8:	0e001a42 	jal	b8006908 <spi_1288_wr>
b8006cdc:	00000000 	nop
b8006ce0:	3c02b801 	lui	v0,0xb801
b8006ce4:	2442e340 	addiu	v0,v0,-7360
b8006ce8:	9442021c 	lhu	v0,540(v0)
b8006cec:	00000000 	nop
b8006cf0:	24040024 	li	a0,36
b8006cf4:	00402821 	move	a1,v0
b8006cf8:	0e001a42 	jal	b8006908 <spi_1288_wr>
b8006cfc:	00000000 	nop
b8006d00:	3c02b801 	lui	v0,0xb801
b8006d04:	2442e340 	addiu	v0,v0,-7360
b8006d08:	9442021e 	lhu	v0,542(v0)
b8006d0c:	00000000 	nop
b8006d10:	24040025 	li	a0,37
b8006d14:	00402821 	move	a1,v0
b8006d18:	0e001a42 	jal	b8006908 <spi_1288_wr>
b8006d1c:	00000000 	nop
b8006d20:	3c02b801 	lui	v0,0xb801
b8006d24:	2442e340 	addiu	v0,v0,-7360
b8006d28:	94420220 	lhu	v0,544(v0)
b8006d2c:	00000000 	nop
b8006d30:	24040026 	li	a0,38
b8006d34:	00402821 	move	a1,v0
b8006d38:	0e001a42 	jal	b8006908 <spi_1288_wr>
b8006d3c:	00000000 	nop
b8006d40:	3c02b801 	lui	v0,0xb801
b8006d44:	2442e340 	addiu	v0,v0,-7360
b8006d48:	94420222 	lhu	v0,546(v0)
b8006d4c:	00000000 	nop
b8006d50:	24040027 	li	a0,39
b8006d54:	00402821 	move	a1,v0
b8006d58:	0e001a42 	jal	b8006908 <spi_1288_wr>
b8006d5c:	00000000 	nop
b8006d60:	3c02b801 	lui	v0,0xb801
b8006d64:	2442e340 	addiu	v0,v0,-7360
b8006d68:	94420224 	lhu	v0,548(v0)
b8006d6c:	00000000 	nop
b8006d70:	24040028 	li	a0,40
b8006d74:	00402821 	move	a1,v0
b8006d78:	0e001a42 	jal	b8006908 <spi_1288_wr>
b8006d7c:	00000000 	nop
b8006d80:	3c02b801 	lui	v0,0xb801
b8006d84:	2442e340 	addiu	v0,v0,-7360
b8006d88:	94420226 	lhu	v0,550(v0)
b8006d8c:	00000000 	nop
b8006d90:	24040029 	li	a0,41
b8006d94:	00402821 	move	a1,v0
b8006d98:	0e001a42 	jal	b8006908 <spi_1288_wr>
b8006d9c:	00000000 	nop
b8006da0:	3c02b801 	lui	v0,0xb801
b8006da4:	2442e340 	addiu	v0,v0,-7360
b8006da8:	94420228 	lhu	v0,552(v0)
b8006dac:	00000000 	nop
b8006db0:	2404002a 	li	a0,42
b8006db4:	00402821 	move	a1,v0
b8006db8:	0e001a42 	jal	b8006908 <spi_1288_wr>
b8006dbc:	00000000 	nop
b8006dc0:	3c02b801 	lui	v0,0xb801
b8006dc4:	2442e340 	addiu	v0,v0,-7360
b8006dc8:	9442022a 	lhu	v0,554(v0)
b8006dcc:	00000000 	nop
b8006dd0:	2404002b 	li	a0,43
b8006dd4:	00402821 	move	a1,v0
b8006dd8:	0e001a42 	jal	b8006908 <spi_1288_wr>
b8006ddc:	00000000 	nop
b8006de0:	3c02b801 	lui	v0,0xb801
b8006de4:	2442e340 	addiu	v0,v0,-7360
b8006de8:	9442022c 	lhu	v0,556(v0)
b8006dec:	00000000 	nop
b8006df0:	2404002d 	li	a0,45
b8006df4:	00402821 	move	a1,v0
b8006df8:	0e001a42 	jal	b8006908 <spi_1288_wr>
b8006dfc:	00000000 	nop
b8006e00:	3c02b801 	lui	v0,0xb801
b8006e04:	2442e340 	addiu	v0,v0,-7360
b8006e08:	9442022e 	lhu	v0,558(v0)
b8006e0c:	00000000 	nop
b8006e10:	2404002e 	li	a0,46
b8006e14:	00402821 	move	a1,v0
b8006e18:	0e001a42 	jal	b8006908 <spi_1288_wr>
b8006e1c:	00000000 	nop
b8006e20:	3c02b801 	lui	v0,0xb801
b8006e24:	2442e340 	addiu	v0,v0,-7360
b8006e28:	94420230 	lhu	v0,560(v0)
b8006e2c:	00000000 	nop
b8006e30:	2404002f 	li	a0,47
b8006e34:	00402821 	move	a1,v0
b8006e38:	0e001a42 	jal	b8006908 <spi_1288_wr>
b8006e3c:	00000000 	nop
b8006e40:	a7c00010 	sh	zero,16(s8)
b8006e44:	0a001bac 	j	b8006eb0 <dsp_1288hk1t_init+0x364>
b8006e48:	00000000 	nop
b8006e4c:	97c20010 	lhu	v0,16(s8)
	...
b8006e58:	24420040 	addiu	v0,v0,64
b8006e5c:	a7c20016 	sh	v0,22(s8)
b8006e60:	97c30016 	lhu	v1,22(s8)
b8006e64:	00000000 	nop
b8006e68:	97c40010 	lhu	a0,16(s8)
b8006e6c:	00000000 	nop
b8006e70:	3c02b801 	lui	v0,0xb801
b8006e74:	24840118 	addiu	a0,a0,280
b8006e78:	00042040 	sll	a0,a0,0x1
b8006e7c:	2442e340 	addiu	v0,v0,-7360
b8006e80:	00821021 	addu	v0,a0,v0
b8006e84:	94420002 	lhu	v0,2(v0)
b8006e88:	00000000 	nop
b8006e8c:	00602021 	move	a0,v1
b8006e90:	00402821 	move	a1,v0
b8006e94:	0e001a42 	jal	b8006908 <spi_1288_wr>
b8006e98:	00000000 	nop
b8006e9c:	97c20010 	lhu	v0,16(s8)
	...
b8006ea8:	24420001 	addiu	v0,v0,1
b8006eac:	a7c20010 	sh	v0,16(s8)
b8006eb0:	97c20010 	lhu	v0,16(s8)
	...
b8006ebc:	2c420040 	sltiu	v0,v0,64
b8006ec0:	1440ffe2 	bnez	v0,b8006e4c <dsp_1288hk1t_init+0x300>
b8006ec4:	00000000 	nop
b8006ec8:	a7c00010 	sh	zero,16(s8)
b8006ecc:	0a001bce 	j	b8006f38 <dsp_1288hk1t_init+0x3ec>
b8006ed0:	00000000 	nop
b8006ed4:	97c20010 	lhu	v0,16(s8)
	...
b8006ee0:	24420080 	addiu	v0,v0,128
b8006ee4:	a7c20016 	sh	v0,22(s8)
b8006ee8:	97c30016 	lhu	v1,22(s8)
b8006eec:	00000000 	nop
b8006ef0:	97c40010 	lhu	a0,16(s8)
b8006ef4:	00000000 	nop
b8006ef8:	3c02b801 	lui	v0,0xb801
b8006efc:	24840158 	addiu	a0,a0,344
b8006f00:	00042040 	sll	a0,a0,0x1
b8006f04:	2442e340 	addiu	v0,v0,-7360
b8006f08:	00821021 	addu	v0,a0,v0
b8006f0c:	94420002 	lhu	v0,2(v0)
b8006f10:	00000000 	nop
b8006f14:	00602021 	move	a0,v1
b8006f18:	00402821 	move	a1,v0
b8006f1c:	0e001a42 	jal	b8006908 <spi_1288_wr>
b8006f20:	00000000 	nop
b8006f24:	97c20010 	lhu	v0,16(s8)
	...
b8006f30:	24420001 	addiu	v0,v0,1
b8006f34:	a7c20010 	sh	v0,16(s8)
b8006f38:	97c20010 	lhu	v0,16(s8)
	...
b8006f44:	2c420040 	sltiu	v0,v0,64
b8006f48:	1440ffe2 	bnez	v0,b8006ed4 <dsp_1288hk1t_init+0x388>
b8006f4c:	00000000 	nop
b8006f50:	3c02b801 	lui	v0,0xb801
b8006f54:	2442e340 	addiu	v0,v0,-7360
b8006f58:	94420336 	lhu	v0,822(v0)
b8006f5c:	00000000 	nop
b8006f60:	24040122 	li	a0,290
b8006f64:	00402821 	move	a1,v0
b8006f68:	0e001a42 	jal	b8006908 <spi_1288_wr>
b8006f6c:	00000000 	nop
b8006f70:	3c02b801 	lui	v0,0xb801
b8006f74:	2442e340 	addiu	v0,v0,-7360
b8006f78:	94420338 	lhu	v0,824(v0)
b8006f7c:	00000000 	nop
b8006f80:	24040124 	li	a0,292
b8006f84:	00402821 	move	a1,v0
b8006f88:	0e001a42 	jal	b8006908 <spi_1288_wr>
b8006f8c:	00000000 	nop
b8006f90:	3c02b801 	lui	v0,0xb801
b8006f94:	2442e340 	addiu	v0,v0,-7360
b8006f98:	9442033a 	lhu	v0,826(v0)
b8006f9c:	00000000 	nop
b8006fa0:	24040125 	li	a0,293
b8006fa4:	00402821 	move	a1,v0
b8006fa8:	0e001a42 	jal	b8006908 <spi_1288_wr>
b8006fac:	00000000 	nop
b8006fb0:	3c02b801 	lui	v0,0xb801
b8006fb4:	2442e340 	addiu	v0,v0,-7360
b8006fb8:	9442033c 	lhu	v0,828(v0)
b8006fbc:	00000000 	nop
b8006fc0:	24040126 	li	a0,294
b8006fc4:	00402821 	move	a1,v0
b8006fc8:	0e001a42 	jal	b8006908 <spi_1288_wr>
b8006fcc:	00000000 	nop
b8006fd0:	3c02b801 	lui	v0,0xb801
b8006fd4:	2442e340 	addiu	v0,v0,-7360
b8006fd8:	9442033e 	lhu	v0,830(v0)
b8006fdc:	00000000 	nop
b8006fe0:	24040127 	li	a0,295
b8006fe4:	00402821 	move	a1,v0
b8006fe8:	0e001a42 	jal	b8006908 <spi_1288_wr>
b8006fec:	00000000 	nop
b8006ff0:	3c02b801 	lui	v0,0xb801
b8006ff4:	2442e340 	addiu	v0,v0,-7360
b8006ff8:	94420340 	lhu	v0,832(v0)
b8006ffc:	00000000 	nop
b8007000:	24040128 	li	a0,296
b8007004:	00402821 	move	a1,v0
b8007008:	0e001a42 	jal	b8006908 <spi_1288_wr>
b800700c:	00000000 	nop
b8007010:	3c02b801 	lui	v0,0xb801
b8007014:	2442e340 	addiu	v0,v0,-7360
b8007018:	94420342 	lhu	v0,834(v0)
b800701c:	00000000 	nop
b8007020:	24040129 	li	a0,297
b8007024:	00402821 	move	a1,v0
b8007028:	0e001a42 	jal	b8006908 <spi_1288_wr>
b800702c:	00000000 	nop
b8007030:	3c02b801 	lui	v0,0xb801
b8007034:	2442e340 	addiu	v0,v0,-7360
b8007038:	94420344 	lhu	v0,836(v0)
b800703c:	00000000 	nop
b8007040:	2404012a 	li	a0,298
b8007044:	00402821 	move	a1,v0
b8007048:	0e001a42 	jal	b8006908 <spi_1288_wr>
b800704c:	00000000 	nop
b8007050:	3c02b801 	lui	v0,0xb801
b8007054:	2442e340 	addiu	v0,v0,-7360
b8007058:	94420346 	lhu	v0,838(v0)
b800705c:	00000000 	nop
b8007060:	2404012b 	li	a0,299
b8007064:	00402821 	move	a1,v0
b8007068:	0e001a42 	jal	b8006908 <spi_1288_wr>
b800706c:	00000000 	nop
b8007070:	3c02b801 	lui	v0,0xb801
b8007074:	2442e340 	addiu	v0,v0,-7360
b8007078:	94420348 	lhu	v0,840(v0)
b800707c:	00000000 	nop
b8007080:	2404012d 	li	a0,301
b8007084:	00402821 	move	a1,v0
b8007088:	0e001a42 	jal	b8006908 <spi_1288_wr>
b800708c:	00000000 	nop
b8007090:	3c02b801 	lui	v0,0xb801
b8007094:	2442e340 	addiu	v0,v0,-7360
b8007098:	9442034a 	lhu	v0,842(v0)
b800709c:	00000000 	nop
b80070a0:	2404012e 	li	a0,302
b80070a4:	00402821 	move	a1,v0
b80070a8:	0e001a42 	jal	b8006908 <spi_1288_wr>
b80070ac:	00000000 	nop
b80070b0:	3c02b801 	lui	v0,0xb801
b80070b4:	2442e340 	addiu	v0,v0,-7360
b80070b8:	9442034c 	lhu	v0,844(v0)
b80070bc:	00000000 	nop
b80070c0:	2404012f 	li	a0,303
b80070c4:	00402821 	move	a1,v0
b80070c8:	0e001a42 	jal	b8006908 <spi_1288_wr>
b80070cc:	00000000 	nop
b80070d0:	a7c00010 	sh	zero,16(s8)
b80070d4:	0a001c50 	j	b8007140 <dsp_1288hk1t_init+0x5f4>
b80070d8:	00000000 	nop
b80070dc:	97c20010 	lhu	v0,16(s8)
	...
b80070e8:	24420140 	addiu	v0,v0,320
b80070ec:	a7c20016 	sh	v0,22(s8)
b80070f0:	97c30016 	lhu	v1,22(s8)
b80070f4:	00000000 	nop
b80070f8:	97c40010 	lhu	a0,16(s8)
b80070fc:	00000000 	nop
b8007100:	3c02b801 	lui	v0,0xb801
b8007104:	248401a4 	addiu	a0,a0,420
b8007108:	00042040 	sll	a0,a0,0x1
b800710c:	2442e340 	addiu	v0,v0,-7360
b8007110:	00821021 	addu	v0,a0,v0
b8007114:	94420006 	lhu	v0,6(v0)
b8007118:	00000000 	nop
b800711c:	00602021 	move	a0,v1
b8007120:	00402821 	move	a1,v0
b8007124:	0e001a42 	jal	b8006908 <spi_1288_wr>
b8007128:	00000000 	nop
b800712c:	97c20010 	lhu	v0,16(s8)
	...
b8007138:	24420001 	addiu	v0,v0,1
b800713c:	a7c20010 	sh	v0,16(s8)
b8007140:	97c20010 	lhu	v0,16(s8)
	...
b800714c:	2c420040 	sltiu	v0,v0,64
b8007150:	1440ffe2 	bnez	v0,b80070dc <dsp_1288hk1t_init+0x590>
b8007154:	00000000 	nop
b8007158:	a7c00010 	sh	zero,16(s8)
b800715c:	0a001c72 	j	b80071c8 <dsp_1288hk1t_init+0x67c>
b8007160:	00000000 	nop
b8007164:	97c20010 	lhu	v0,16(s8)
	...
b8007170:	24420180 	addiu	v0,v0,384
b8007174:	a7c20016 	sh	v0,22(s8)
b8007178:	97c30016 	lhu	v1,22(s8)
b800717c:	00000000 	nop
b8007180:	97c40010 	lhu	a0,16(s8)
b8007184:	00000000 	nop
b8007188:	3c02b801 	lui	v0,0xb801
b800718c:	248401e4 	addiu	a0,a0,484
b8007190:	00042040 	sll	a0,a0,0x1
b8007194:	2442e340 	addiu	v0,v0,-7360
b8007198:	00821021 	addu	v0,a0,v0
b800719c:	94420006 	lhu	v0,6(v0)
b80071a0:	00000000 	nop
b80071a4:	00602021 	move	a0,v1
b80071a8:	00402821 	move	a1,v0
b80071ac:	0e001a42 	jal	b8006908 <spi_1288_wr>
b80071b0:	00000000 	nop
b80071b4:	97c20010 	lhu	v0,16(s8)
	...
b80071c0:	24420001 	addiu	v0,v0,1
b80071c4:	a7c20010 	sh	v0,16(s8)
b80071c8:	97c20010 	lhu	v0,16(s8)
	...
b80071d4:	2c420040 	sltiu	v0,v0,64
b80071d8:	1440ffe2 	bnez	v0,b8007164 <dsp_1288hk1t_init+0x618>
b80071dc:	00000000 	nop
b80071e0:	3c02b801 	lui	v0,0xb801
b80071e4:	2442e340 	addiu	v0,v0,-7360
b80071e8:	94420452 	lhu	v0,1106(v0)
b80071ec:	00000000 	nop
b80071f0:	24040222 	li	a0,546
b80071f4:	00402821 	move	a1,v0
b80071f8:	0e001a42 	jal	b8006908 <spi_1288_wr>
b80071fc:	00000000 	nop
b8007200:	3c02b801 	lui	v0,0xb801
b8007204:	2442e340 	addiu	v0,v0,-7360
b8007208:	94420454 	lhu	v0,1108(v0)
b800720c:	00000000 	nop
b8007210:	24040224 	li	a0,548
b8007214:	00402821 	move	a1,v0
b8007218:	0e001a42 	jal	b8006908 <spi_1288_wr>
b800721c:	00000000 	nop
b8007220:	3c02b801 	lui	v0,0xb801
b8007224:	2442e340 	addiu	v0,v0,-7360
b8007228:	94420456 	lhu	v0,1110(v0)
b800722c:	00000000 	nop
b8007230:	24040225 	li	a0,549
b8007234:	00402821 	move	a1,v0
b8007238:	0e001a42 	jal	b8006908 <spi_1288_wr>
b800723c:	00000000 	nop
b8007240:	3c02b801 	lui	v0,0xb801
b8007244:	2442e340 	addiu	v0,v0,-7360
b8007248:	94420458 	lhu	v0,1112(v0)
b800724c:	00000000 	nop
b8007250:	24040226 	li	a0,550
b8007254:	00402821 	move	a1,v0
b8007258:	0e001a42 	jal	b8006908 <spi_1288_wr>
b800725c:	00000000 	nop
b8007260:	3c02b801 	lui	v0,0xb801
b8007264:	2442e340 	addiu	v0,v0,-7360
b8007268:	9442045a 	lhu	v0,1114(v0)
b800726c:	00000000 	nop
b8007270:	24040227 	li	a0,551
b8007274:	00402821 	move	a1,v0
b8007278:	0e001a42 	jal	b8006908 <spi_1288_wr>
b800727c:	00000000 	nop
b8007280:	3c02b801 	lui	v0,0xb801
b8007284:	2442e340 	addiu	v0,v0,-7360
b8007288:	9442045c 	lhu	v0,1116(v0)
b800728c:	00000000 	nop
b8007290:	24040228 	li	a0,552
b8007294:	00402821 	move	a1,v0
b8007298:	0e001a42 	jal	b8006908 <spi_1288_wr>
b800729c:	00000000 	nop
b80072a0:	3c02b801 	lui	v0,0xb801
b80072a4:	2442e340 	addiu	v0,v0,-7360
b80072a8:	9442045e 	lhu	v0,1118(v0)
b80072ac:	00000000 	nop
b80072b0:	24040229 	li	a0,553
b80072b4:	00402821 	move	a1,v0
b80072b8:	0e001a42 	jal	b8006908 <spi_1288_wr>
b80072bc:	00000000 	nop
b80072c0:	3c02b801 	lui	v0,0xb801
b80072c4:	2442e340 	addiu	v0,v0,-7360
b80072c8:	94420460 	lhu	v0,1120(v0)
b80072cc:	00000000 	nop
b80072d0:	2404022a 	li	a0,554
b80072d4:	00402821 	move	a1,v0
b80072d8:	0e001a42 	jal	b8006908 <spi_1288_wr>
b80072dc:	00000000 	nop
b80072e0:	3c02b801 	lui	v0,0xb801
b80072e4:	2442e340 	addiu	v0,v0,-7360
b80072e8:	94420462 	lhu	v0,1122(v0)
b80072ec:	00000000 	nop
b80072f0:	2404022b 	li	a0,555
b80072f4:	00402821 	move	a1,v0
b80072f8:	0e001a42 	jal	b8006908 <spi_1288_wr>
b80072fc:	00000000 	nop
b8007300:	3c02b801 	lui	v0,0xb801
b8007304:	2442e340 	addiu	v0,v0,-7360
b8007308:	94420464 	lhu	v0,1124(v0)
b800730c:	00000000 	nop
b8007310:	2404022d 	li	a0,557
b8007314:	00402821 	move	a1,v0
b8007318:	0e001a42 	jal	b8006908 <spi_1288_wr>
b800731c:	00000000 	nop
b8007320:	3c02b801 	lui	v0,0xb801
b8007324:	2442e340 	addiu	v0,v0,-7360
b8007328:	94420466 	lhu	v0,1126(v0)
b800732c:	00000000 	nop
b8007330:	2404022e 	li	a0,558
b8007334:	00402821 	move	a1,v0
b8007338:	0e001a42 	jal	b8006908 <spi_1288_wr>
b800733c:	00000000 	nop
b8007340:	3c02b801 	lui	v0,0xb801
b8007344:	2442e340 	addiu	v0,v0,-7360
b8007348:	94420468 	lhu	v0,1128(v0)
b800734c:	00000000 	nop
b8007350:	2404022f 	li	a0,559
b8007354:	00402821 	move	a1,v0
b8007358:	0e001a42 	jal	b8006908 <spi_1288_wr>
b800735c:	00000000 	nop
b8007360:	a7c00010 	sh	zero,16(s8)
b8007364:	0a001cf4 	j	b80073d0 <dsp_1288hk1t_init+0x884>
b8007368:	00000000 	nop
b800736c:	97c20010 	lhu	v0,16(s8)
	...
b8007378:	24420240 	addiu	v0,v0,576
b800737c:	a7c20016 	sh	v0,22(s8)
b8007380:	97c30016 	lhu	v1,22(s8)
b8007384:	00000000 	nop
b8007388:	97c40010 	lhu	a0,16(s8)
b800738c:	00000000 	nop
b8007390:	3c02b801 	lui	v0,0xb801
b8007394:	24840234 	addiu	a0,a0,564
b8007398:	00042040 	sll	a0,a0,0x1
b800739c:	2442e340 	addiu	v0,v0,-7360
b80073a0:	00821021 	addu	v0,a0,v0
b80073a4:	94420002 	lhu	v0,2(v0)
b80073a8:	00000000 	nop
b80073ac:	00602021 	move	a0,v1
b80073b0:	00402821 	move	a1,v0
b80073b4:	0e001a42 	jal	b8006908 <spi_1288_wr>
b80073b8:	00000000 	nop
b80073bc:	97c20010 	lhu	v0,16(s8)
	...
b80073c8:	24420001 	addiu	v0,v0,1
b80073cc:	a7c20010 	sh	v0,16(s8)
b80073d0:	97c20010 	lhu	v0,16(s8)
	...
b80073dc:	2c420040 	sltiu	v0,v0,64
b80073e0:	1440ffe2 	bnez	v0,b800736c <dsp_1288hk1t_init+0x820>
b80073e4:	00000000 	nop
b80073e8:	a7c00010 	sh	zero,16(s8)
b80073ec:	0a001d16 	j	b8007458 <dsp_1288hk1t_init+0x90c>
b80073f0:	00000000 	nop
b80073f4:	97c20010 	lhu	v0,16(s8)
	...
b8007400:	24420280 	addiu	v0,v0,640
b8007404:	a7c20016 	sh	v0,22(s8)
b8007408:	97c30016 	lhu	v1,22(s8)
b800740c:	00000000 	nop
b8007410:	97c40010 	lhu	a0,16(s8)
b8007414:	00000000 	nop
b8007418:	3c02b801 	lui	v0,0xb801
b800741c:	24840274 	addiu	a0,a0,628
b8007420:	00042040 	sll	a0,a0,0x1
b8007424:	2442e340 	addiu	v0,v0,-7360
b8007428:	00821021 	addu	v0,a0,v0
b800742c:	94420002 	lhu	v0,2(v0)
b8007430:	00000000 	nop
b8007434:	00602021 	move	a0,v1
b8007438:	00402821 	move	a1,v0
b800743c:	0e001a42 	jal	b8006908 <spi_1288_wr>
b8007440:	00000000 	nop
b8007444:	97c20010 	lhu	v0,16(s8)
	...
b8007450:	24420001 	addiu	v0,v0,1
b8007454:	a7c20010 	sh	v0,16(s8)
b8007458:	97c20010 	lhu	v0,16(s8)
	...
b8007464:	2c420040 	sltiu	v0,v0,64
b8007468:	1440ffe2 	bnez	v0,b80073f4 <dsp_1288hk1t_init+0x8a8>
b800746c:	00000000 	nop
b8007470:	3c02b801 	lui	v0,0xb801
b8007474:	2442e340 	addiu	v0,v0,-7360
b8007478:	9442056e 	lhu	v0,1390(v0)
b800747c:	00000000 	nop
b8007480:	24040322 	li	a0,802
b8007484:	00402821 	move	a1,v0
b8007488:	0e001a42 	jal	b8006908 <spi_1288_wr>
b800748c:	00000000 	nop
b8007490:	3c02b801 	lui	v0,0xb801
b8007494:	2442e340 	addiu	v0,v0,-7360
b8007498:	94420570 	lhu	v0,1392(v0)
b800749c:	00000000 	nop
b80074a0:	24040324 	li	a0,804
b80074a4:	00402821 	move	a1,v0
b80074a8:	0e001a42 	jal	b8006908 <spi_1288_wr>
b80074ac:	00000000 	nop
b80074b0:	3c02b801 	lui	v0,0xb801
b80074b4:	2442e340 	addiu	v0,v0,-7360
b80074b8:	94420572 	lhu	v0,1394(v0)
b80074bc:	00000000 	nop
b80074c0:	24040325 	li	a0,805
b80074c4:	00402821 	move	a1,v0
b80074c8:	0e001a42 	jal	b8006908 <spi_1288_wr>
b80074cc:	00000000 	nop
b80074d0:	3c02b801 	lui	v0,0xb801
b80074d4:	2442e340 	addiu	v0,v0,-7360
b80074d8:	94420574 	lhu	v0,1396(v0)
b80074dc:	00000000 	nop
b80074e0:	24040326 	li	a0,806
b80074e4:	00402821 	move	a1,v0
b80074e8:	0e001a42 	jal	b8006908 <spi_1288_wr>
b80074ec:	00000000 	nop
b80074f0:	3c02b801 	lui	v0,0xb801
b80074f4:	2442e340 	addiu	v0,v0,-7360
b80074f8:	94420576 	lhu	v0,1398(v0)
b80074fc:	00000000 	nop
b8007500:	24040327 	li	a0,807
b8007504:	00402821 	move	a1,v0
b8007508:	0e001a42 	jal	b8006908 <spi_1288_wr>
b800750c:	00000000 	nop
b8007510:	3c02b801 	lui	v0,0xb801
b8007514:	2442e340 	addiu	v0,v0,-7360
b8007518:	94420578 	lhu	v0,1400(v0)
b800751c:	00000000 	nop
b8007520:	24040328 	li	a0,808
b8007524:	00402821 	move	a1,v0
b8007528:	0e001a42 	jal	b8006908 <spi_1288_wr>
b800752c:	00000000 	nop
b8007530:	3c02b801 	lui	v0,0xb801
b8007534:	2442e340 	addiu	v0,v0,-7360
b8007538:	9442057a 	lhu	v0,1402(v0)
b800753c:	00000000 	nop
b8007540:	24040329 	li	a0,809
b8007544:	00402821 	move	a1,v0
b8007548:	0e001a42 	jal	b8006908 <spi_1288_wr>
b800754c:	00000000 	nop
b8007550:	3c02b801 	lui	v0,0xb801
b8007554:	2442e340 	addiu	v0,v0,-7360
b8007558:	9442057c 	lhu	v0,1404(v0)
b800755c:	00000000 	nop
b8007560:	2404032a 	li	a0,810
b8007564:	00402821 	move	a1,v0
b8007568:	0e001a42 	jal	b8006908 <spi_1288_wr>
b800756c:	00000000 	nop
b8007570:	3c02b801 	lui	v0,0xb801
b8007574:	2442e340 	addiu	v0,v0,-7360
b8007578:	9442057e 	lhu	v0,1406(v0)
b800757c:	00000000 	nop
b8007580:	2404032b 	li	a0,811
b8007584:	00402821 	move	a1,v0
b8007588:	0e001a42 	jal	b8006908 <spi_1288_wr>
b800758c:	00000000 	nop
b8007590:	3c02b801 	lui	v0,0xb801
b8007594:	2442e340 	addiu	v0,v0,-7360
b8007598:	94420580 	lhu	v0,1408(v0)
b800759c:	00000000 	nop
b80075a0:	2404032d 	li	a0,813
b80075a4:	00402821 	move	a1,v0
b80075a8:	0e001a42 	jal	b8006908 <spi_1288_wr>
b80075ac:	00000000 	nop
b80075b0:	3c02b801 	lui	v0,0xb801
b80075b4:	2442e340 	addiu	v0,v0,-7360
b80075b8:	94420582 	lhu	v0,1410(v0)
b80075bc:	00000000 	nop
b80075c0:	2404032e 	li	a0,814
b80075c4:	00402821 	move	a1,v0
b80075c8:	0e001a42 	jal	b8006908 <spi_1288_wr>
b80075cc:	00000000 	nop
b80075d0:	3c02b801 	lui	v0,0xb801
b80075d4:	2442e340 	addiu	v0,v0,-7360
b80075d8:	94420584 	lhu	v0,1412(v0)
b80075dc:	00000000 	nop
b80075e0:	2404032f 	li	a0,815
b80075e4:	00402821 	move	a1,v0
b80075e8:	0e001a42 	jal	b8006908 <spi_1288_wr>
b80075ec:	00000000 	nop
b80075f0:	a7c00010 	sh	zero,16(s8)
b80075f4:	0a001d98 	j	b8007660 <dsp_1288hk1t_init+0xb14>
b80075f8:	00000000 	nop
b80075fc:	97c20010 	lhu	v0,16(s8)
	...
b8007608:	24420340 	addiu	v0,v0,832
b800760c:	a7c20016 	sh	v0,22(s8)
b8007610:	97c30016 	lhu	v1,22(s8)
b8007614:	00000000 	nop
b8007618:	97c40010 	lhu	a0,16(s8)
b800761c:	00000000 	nop
b8007620:	3c02b801 	lui	v0,0xb801
b8007624:	248402c0 	addiu	a0,a0,704
b8007628:	00042040 	sll	a0,a0,0x1
b800762c:	2442e340 	addiu	v0,v0,-7360
b8007630:	00821021 	addu	v0,a0,v0
b8007634:	94420006 	lhu	v0,6(v0)
b8007638:	00000000 	nop
b800763c:	00602021 	move	a0,v1
b8007640:	00402821 	move	a1,v0
b8007644:	0e001a42 	jal	b8006908 <spi_1288_wr>
b8007648:	00000000 	nop
b800764c:	97c20010 	lhu	v0,16(s8)
	...
b8007658:	24420001 	addiu	v0,v0,1
b800765c:	a7c20010 	sh	v0,16(s8)
b8007660:	97c20010 	lhu	v0,16(s8)
	...
b800766c:	2c420040 	sltiu	v0,v0,64
b8007670:	1440ffe2 	bnez	v0,b80075fc <dsp_1288hk1t_init+0xab0>
b8007674:	00000000 	nop
b8007678:	a7c00010 	sh	zero,16(s8)
b800767c:	0a001dba 	j	b80076e8 <dsp_1288hk1t_init+0xb9c>
b8007680:	00000000 	nop
b8007684:	97c20010 	lhu	v0,16(s8)
	...
b8007690:	24420380 	addiu	v0,v0,896
b8007694:	a7c20016 	sh	v0,22(s8)
b8007698:	97c30016 	lhu	v1,22(s8)
b800769c:	00000000 	nop
b80076a0:	97c40010 	lhu	a0,16(s8)
b80076a4:	00000000 	nop
b80076a8:	3c02b801 	lui	v0,0xb801
b80076ac:	24840300 	addiu	a0,a0,768
b80076b0:	00042040 	sll	a0,a0,0x1
b80076b4:	2442e340 	addiu	v0,v0,-7360
b80076b8:	00821021 	addu	v0,a0,v0
b80076bc:	94420006 	lhu	v0,6(v0)
b80076c0:	00000000 	nop
b80076c4:	00602021 	move	a0,v1
b80076c8:	00402821 	move	a1,v0
b80076cc:	0e001a42 	jal	b8006908 <spi_1288_wr>
b80076d0:	00000000 	nop
b80076d4:	97c20010 	lhu	v0,16(s8)
	...
b80076e0:	24420001 	addiu	v0,v0,1
b80076e4:	a7c20010 	sh	v0,16(s8)
b80076e8:	97c20010 	lhu	v0,16(s8)
	...
b80076f4:	2c420040 	sltiu	v0,v0,64
b80076f8:	1440ffe2 	bnez	v0,b8007684 <dsp_1288hk1t_init+0xb38>
b80076fc:	00000000 	nop
b8007700:	97c20012 	lhu	v0,18(s8)
b8007704:	00000000 	nop
b8007708:	3c03b801 	lui	v1,0xb801
b800770c:	2464d4c4 	addiu	a0,v1,-11068
b8007710:	00402821 	move	a1,v0
b8007714:	0e000f77 	jal	b8003ddc <u_out>
b8007718:	00000000 	nop
b800771c:	03c0e821 	move	sp,s8
b8007720:	8fbf001c 	lw	ra,28(sp)
b8007724:	00000000 	nop
b8007728:	8fbe0018 	lw	s8,24(sp)
b800772c:	00000000 	nop
b8007730:	27bd0020 	addiu	sp,sp,32
b8007734:	03e00008 	jr	ra
b8007738:	00000000 	nop

b800773c <SW_init>:
b800773c:	27bdffe0 	addiu	sp,sp,-32
b8007740:	afbf001c 	sw	ra,28(sp)
b8007744:	afbe0018 	sw	s8,24(sp)
b8007748:	03a0f021 	move	s8,sp
b800774c:	3c02b801 	lui	v0,0xb801
b8007750:	2444d4cc 	addiu	a0,v0,-11060
b8007754:	0e000f28 	jal	b8003ca0 <Transf>
b8007758:	00000000 	nop
b800775c:	3c02b82f 	lui	v0,0xb82f
b8007760:	3444a800 	ori	a0,v0,0xa800
b8007764:	0e002ef4 	jal	b800bbd0 <assign_dma_rx_desc>
b8007768:	00000000 	nop
b800776c:	3c02b82f 	lui	v0,0xb82f
b8007770:	3444a840 	ori	a0,v0,0xa840
b8007774:	0e002f03 	jal	b800bc0c <assign_dma_rx_data>
b8007778:	00000000 	nop
b800777c:	3c02b82f 	lui	v0,0xb82f
b8007780:	3444a880 	ori	a0,v0,0xa880
b8007784:	0e002f12 	jal	b800bc48 <assign_dma_tx_desc>
b8007788:	00000000 	nop
b800778c:	3c02b82f 	lui	v0,0xb82f
b8007790:	3444a8c0 	ori	a0,v0,0xa8c0
b8007794:	0e002f21 	jal	b800bc84 <assign_dma_tx_data>
b8007798:	00000000 	nop
b800779c:	24041fff 	li	a0,8191
b80077a0:	0e0009ae 	jal	b80026b8 <unmask_irq>
b80077a4:	00000000 	nop
b80077a8:	00002021 	move	a0,zero
b80077ac:	0e0009df 	jal	b800277c <form_routing_table>
b80077b0:	00000000 	nop
b80077b4:	0e000a0d 	jal	b8002834 <gspwr_form_adg>
b80077b8:	00000000 	nop
b80077bc:	00002021 	move	a0,zero
b80077c0:	24050002 	li	a1,2
b80077c4:	24060001 	li	a2,1
b80077c8:	0e000a3a 	jal	b80028e8 <set_transmit_speed>
b80077cc:	00000000 	nop
b80077d0:	24040001 	li	a0,1
b80077d4:	24050002 	li	a1,2
b80077d8:	24060001 	li	a2,1
b80077dc:	0e000a3a 	jal	b80028e8 <set_transmit_speed>
b80077e0:	00000000 	nop
b80077e4:	24040004 	li	a0,4
b80077e8:	24050019 	li	a1,25
b80077ec:	0e000b63 	jal	b8002d8c <set_recive_speed>
b80077f0:	00000000 	nop
b80077f4:	24040005 	li	a0,5
b80077f8:	24050019 	li	a1,25
b80077fc:	24060001 	li	a2,1
b8007800:	0e000a3a 	jal	b80028e8 <set_transmit_speed>
b8007804:	00000000 	nop
b8007808:	24040005 	li	a0,5
b800780c:	24050019 	li	a1,25
b8007810:	0e000b63 	jal	b8002d8c <set_recive_speed>
b8007814:	00000000 	nop
b8007818:	24040004 	li	a0,4
b800781c:	24050019 	li	a1,25
b8007820:	24060001 	li	a2,1
b8007824:	0e000a3a 	jal	b80028e8 <set_transmit_speed>
b8007828:	00000000 	nop
b800782c:	3c02b801 	lui	v0,0xb801
b8007830:	8c42cd2c 	lw	v0,-13012(v0)
b8007834:	00000000 	nop
b8007838:	3c03b801 	lui	v1,0xb801
b800783c:	8c63cd2c 	lw	v1,-13012(v1)
	...
b8007848:	8c6300b4 	lw	v1,180(v1)
	...
b8007854:	34630010 	ori	v1,v1,0x10
b8007858:	ac4300b4 	sw	v1,180(v0)
b800785c:	3c02b801 	lui	v0,0xb801
b8007860:	8c42cd2c 	lw	v0,-13012(v0)
b8007864:	00000000 	nop
b8007868:	3c03b801 	lui	v1,0xb801
b800786c:	8c63cd2c 	lw	v1,-13012(v1)
	...
b8007878:	8c6300b8 	lw	v1,184(v1)
	...
b8007884:	34630010 	ori	v1,v1,0x10
b8007888:	ac4300b8 	sw	v1,184(v0)
b800788c:	24040001 	li	a0,1
b8007890:	0e000bb8 	jal	b8002ee0 <set_dma_enabled>
b8007894:	00000000 	nop
b8007898:	24040001 	li	a0,1
b800789c:	0e000bd6 	jal	b8002f58 <set_work_enabled>
b80078a0:	00000000 	nop
b80078a4:	00002021 	move	a0,zero
b80078a8:	0e000c01 	jal	b8003004 <start_connect>
b80078ac:	00000000 	nop
b80078b0:	24040001 	li	a0,1
b80078b4:	0e000c01 	jal	b8003004 <start_connect>
b80078b8:	00000000 	nop
b80078bc:	24040004 	li	a0,4
b80078c0:	0e000c01 	jal	b8003004 <start_connect>
b80078c4:	00000000 	nop
b80078c8:	24040005 	li	a0,5
b80078cc:	0e000c01 	jal	b8003004 <start_connect>
b80078d0:	00000000 	nop
b80078d4:	3c02b801 	lui	v0,0xb801
b80078d8:	2444d4e0 	addiu	a0,v0,-11040
b80078dc:	0e000f28 	jal	b8003ca0 <Transf>
b80078e0:	00000000 	nop
b80078e4:	24040064 	li	a0,100
b80078e8:	0e000983 	jal	b800260c <Delay_ms>
b80078ec:	00000000 	nop
b80078f0:	afc00010 	sw	zero,16(s8)
b80078f4:	0a001e59 	j	b8007964 <SW_init+0x228>
b80078f8:	00000000 	nop
b80078fc:	24030001 	li	v1,1
b8007900:	8fc20010 	lw	v0,16(s8)
	...
b800790c:	00431004 	sllv	v0,v1,v0
b8007910:	00401821 	move	v1,v0
b8007914:	3c02b801 	lui	v0,0xb801
b8007918:	8c42cd1c 	lw	v0,-13028(v0)
	...
b8007924:	00621024 	and	v0,v1,v0
b8007928:	10400009 	beqz	v0,b8007950 <SW_init+0x214>
b800792c:	00000000 	nop
b8007930:	8fc20010 	lw	v0,16(s8)
	...
b800793c:	00402021 	move	a0,v0
b8007940:	24050005 	li	a1,5
b8007944:	240603e8 	li	a2,1000
b8007948:	0e000cbb 	jal	b80032ec <wait_link_status>
b800794c:	00000000 	nop
b8007950:	8fc20010 	lw	v0,16(s8)
	...
b800795c:	24420001 	addiu	v0,v0,1
b8007960:	afc20010 	sw	v0,16(s8)
b8007964:	8fc20010 	lw	v0,16(s8)
	...
b8007970:	28420002 	slti	v0,v0,2
b8007974:	1440ffe1 	bnez	v0,b80078fc <SW_init+0x1c0>
b8007978:	00000000 	nop
b800797c:	00002021 	move	a0,zero
b8007980:	24050001 	li	a1,1
b8007984:	0e000c53 	jal	b800314c <get_status>
b8007988:	00000000 	nop
b800798c:	00401821 	move	v1,v0
b8007990:	24020005 	li	v0,5
b8007994:	14620005 	bne	v1,v0,b80079ac <SW_init+0x270>
b8007998:	00000000 	nop
b800799c:	3c02b801 	lui	v0,0xb801
b80079a0:	2444d4f4 	addiu	a0,v0,-11020
b80079a4:	0e000f28 	jal	b8003ca0 <Transf>
b80079a8:	00000000 	nop
b80079ac:	24040001 	li	a0,1
b80079b0:	24050001 	li	a1,1
b80079b4:	0e000c53 	jal	b800314c <get_status>
b80079b8:	00000000 	nop
b80079bc:	00401821 	move	v1,v0
b80079c0:	24020005 	li	v0,5
b80079c4:	14620005 	bne	v1,v0,b80079dc <SW_init+0x2a0>
b80079c8:	00000000 	nop
b80079cc:	3c02b801 	lui	v0,0xb801
b80079d0:	2444d508 	addiu	a0,v0,-11000
b80079d4:	0e000f28 	jal	b8003ca0 <Transf>
b80079d8:	00000000 	nop
b80079dc:	3c02b801 	lui	v0,0xb801
b80079e0:	8c43cd24 	lw	v1,-13020(v0)
b80079e4:	00000000 	nop
b80079e8:	3c02b801 	lui	v0,0xb801
b80079ec:	ac43db80 	sw	v1,-9344(v0)
b80079f0:	3c02b801 	lui	v0,0xb801
b80079f4:	2444d51c 	addiu	a0,v0,-10980
b80079f8:	0e000f28 	jal	b8003ca0 <Transf>
b80079fc:	00000000 	nop
b8007a00:	afc00010 	sw	zero,16(s8)
b8007a04:	0a001e9f 	j	b8007a7c <SW_init+0x340>
b8007a08:	00000000 	nop
b8007a0c:	24030001 	li	v1,1
b8007a10:	8fc20010 	lw	v0,16(s8)
	...
b8007a1c:	00431004 	sllv	v0,v1,v0
b8007a20:	00401821 	move	v1,v0
b8007a24:	3c02b801 	lui	v0,0xb801
b8007a28:	8c42cd1c 	lw	v0,-13028(v0)
	...
b8007a34:	00621024 	and	v0,v1,v0
b8007a38:	1040000b 	beqz	v0,b8007a68 <SW_init+0x32c>
b8007a3c:	00000000 	nop
b8007a40:	8fc30010 	lw	v1,16(s8)
b8007a44:	00000000 	nop
b8007a48:	3c02b801 	lui	v0,0xb801
b8007a4c:	8c42db80 	lw	v0,-9344(v0)
b8007a50:	00000000 	nop
b8007a54:	00602021 	move	a0,v1
b8007a58:	00402821 	move	a1,v0
b8007a5c:	24060001 	li	a2,1
b8007a60:	0e000a3a 	jal	b80028e8 <set_transmit_speed>
b8007a64:	00000000 	nop
b8007a68:	8fc20010 	lw	v0,16(s8)
	...
b8007a74:	24420001 	addiu	v0,v0,1
b8007a78:	afc20010 	sw	v0,16(s8)
b8007a7c:	8fc20010 	lw	v0,16(s8)
	...
b8007a88:	28420002 	slti	v0,v0,2
b8007a8c:	1440ffdf 	bnez	v0,b8007a0c <SW_init+0x2d0>
b8007a90:	00000000 	nop
b8007a94:	24040064 	li	a0,100
b8007a98:	0e000983 	jal	b800260c <Delay_ms>
b8007a9c:	00000000 	nop
b8007aa0:	3c02b801 	lui	v0,0xb801
b8007aa4:	2444d528 	addiu	a0,v0,-10968
b8007aa8:	0e000f28 	jal	b8003ca0 <Transf>
b8007aac:	00000000 	nop
b8007ab0:	afc00010 	sw	zero,16(s8)
b8007ab4:	0a001ef0 	j	b8007bc0 <SW_init+0x484>
b8007ab8:	00000000 	nop
b8007abc:	24030001 	li	v1,1
b8007ac0:	8fc20010 	lw	v0,16(s8)
	...
b8007acc:	00431004 	sllv	v0,v1,v0
b8007ad0:	00401821 	move	v1,v0
b8007ad4:	3c02b801 	lui	v0,0xb801
b8007ad8:	8c42cd1c 	lw	v0,-13028(v0)
	...
b8007ae4:	00621024 	and	v0,v1,v0
b8007ae8:	10400030 	beqz	v0,b8007bac <SW_init+0x470>
b8007aec:	00000000 	nop
b8007af0:	3c02b801 	lui	v0,0xb801
b8007af4:	240303e8 	li	v1,1000
b8007af8:	ac43dc00 	sw	v1,-9216(v0)
b8007afc:	0a001ecd 	j	b8007b34 <SW_init+0x3f8>
b8007b00:	00000000 	nop
b8007b04:	3c02b801 	lui	v0,0xb801
b8007b08:	8c42dc00 	lw	v0,-9216(v0)
	...
b8007b14:	14400007 	bnez	v0,b8007b34 <SW_init+0x3f8>
b8007b18:	00000000 	nop
b8007b1c:	3c02b801 	lui	v0,0xb801
b8007b20:	2444d534 	addiu	a0,v0,-10956
b8007b24:	0e000f28 	jal	b8003ca0 <Transf>
b8007b28:	00000000 	nop
b8007b2c:	0a001edc 	j	b8007b70 <SW_init+0x434>
b8007b30:	00000000 	nop
b8007b34:	8fc20010 	lw	v0,16(s8)
	...
b8007b40:	00402021 	move	a0,v0
b8007b44:	0e000cf2 	jal	b80033c8 <get_rx_speed>
b8007b48:	00000000 	nop
b8007b4c:	00401821 	move	v1,v0
b8007b50:	3c02b801 	lui	v0,0xb801
b8007b54:	8c42db80 	lw	v0,-9344(v0)
	...
b8007b60:	2442fffd 	addiu	v0,v0,-3
b8007b64:	0062102b 	sltu	v0,v1,v0
b8007b68:	1440ffe6 	bnez	v0,b8007b04 <SW_init+0x3c8>
b8007b6c:	00000000 	nop
b8007b70:	8fc20010 	lw	v0,16(s8)
b8007b74:	00000000 	nop
b8007b78:	00002021 	move	a0,zero
b8007b7c:	00402821 	move	a1,v0
b8007b80:	0e000d07 	jal	b800341c <check_SpW_link_status_run>
b8007b84:	00000000 	nop
b8007b88:	00401821 	move	v1,v0
b8007b8c:	3c02b801 	lui	v0,0xb801
b8007b90:	8c42dc20 	lw	v0,-9184(v0)
	...
b8007b9c:	00621021 	addu	v0,v1,v0
b8007ba0:	00401821 	move	v1,v0
b8007ba4:	3c02b801 	lui	v0,0xb801
b8007ba8:	ac43dc20 	sw	v1,-9184(v0)
b8007bac:	8fc20010 	lw	v0,16(s8)
	...
b8007bb8:	24420001 	addiu	v0,v0,1
b8007bbc:	afc20010 	sw	v0,16(s8)
b8007bc0:	8fc20010 	lw	v0,16(s8)
	...
b8007bcc:	28420002 	slti	v0,v0,2
b8007bd0:	1440ffba 	bnez	v0,b8007abc <SW_init+0x380>
b8007bd4:	00000000 	nop
b8007bd8:	00002021 	move	a0,zero
b8007bdc:	24050001 	li	a1,1
b8007be0:	0e000c53 	jal	b800314c <get_status>
b8007be4:	00000000 	nop
b8007be8:	00401821 	move	v1,v0
b8007bec:	24020005 	li	v0,5
b8007bf0:	14620012 	bne	v1,v0,b8007c3c <SW_init+0x500>
b8007bf4:	00000000 	nop
b8007bf8:	24040001 	li	a0,1
b8007bfc:	24050001 	li	a1,1
b8007c00:	0e000c53 	jal	b800314c <get_status>
b8007c04:	00000000 	nop
b8007c08:	00401821 	move	v1,v0
b8007c0c:	24020005 	li	v0,5
b8007c10:	1462000a 	bne	v1,v0,b8007c3c <SW_init+0x500>
b8007c14:	00000000 	nop
b8007c18:	3c02b801 	lui	v0,0xb801
b8007c1c:	2444d54c 	addiu	a0,v0,-10932
b8007c20:	0e000f28 	jal	b8003ca0 <Transf>
b8007c24:	00000000 	nop
b8007c28:	3c02b801 	lui	v0,0xb801
b8007c2c:	24030001 	li	v1,1
b8007c30:	ac43dc24 	sw	v1,-9180(v0)
b8007c34:	0a001f11 	j	b8007c44 <SW_init+0x508>
b8007c38:	00000000 	nop
b8007c3c:	3c02b801 	lui	v0,0xb801
b8007c40:	ac40dc24 	sw	zero,-9180(v0)
b8007c44:	2404000a 	li	a0,10
b8007c48:	0e000983 	jal	b800260c <Delay_ms>
b8007c4c:	00000000 	nop
b8007c50:	3c02b801 	lui	v0,0xb801
b8007c54:	8c42dc20 	lw	v0,-9184(v0)
	...
b8007c60:	1040000c 	beqz	v0,b8007c94 <SW_init+0x558>
b8007c64:	00000000 	nop
b8007c68:	3c02b801 	lui	v0,0xb801
b8007c6c:	24030001 	li	v1,1
b8007c70:	ac43cd20 	sw	v1,-13024(v0)
b8007c74:	3c02b801 	lui	v0,0xb801
b8007c78:	2444d568 	addiu	a0,v0,-10904
b8007c7c:	0e000f28 	jal	b8003ca0 <Transf>
b8007c80:	00000000 	nop
b8007c84:	3c02b801 	lui	v0,0xb801
b8007c88:	2444d584 	addiu	a0,v0,-10876
b8007c8c:	0e001565 	jal	b8005594 <IO>
b8007c90:	00000000 	nop
b8007c94:	03c0e821 	move	sp,s8
b8007c98:	8fbf001c 	lw	ra,28(sp)
b8007c9c:	00000000 	nop
b8007ca0:	8fbe0018 	lw	s8,24(sp)
b8007ca4:	00000000 	nop
b8007ca8:	27bd0020 	addiu	sp,sp,32
b8007cac:	03e00008 	jr	ra
b8007cb0:	00000000 	nop

b8007cb4 <sw_data_obmen>:
b8007cb4:	27bdffc8 	addiu	sp,sp,-56
b8007cb8:	afbf0034 	sw	ra,52(sp)
b8007cbc:	afbe0030 	sw	s8,48(sp)
b8007cc0:	03a0f021 	move	s8,sp
b8007cc4:	afc40038 	sw	a0,56(s8)
b8007cc8:	34028000 	li	v0,0x8000
b8007ccc:	afc20010 	sw	v0,16(s8)
b8007cd0:	afc00020 	sw	zero,32(s8)
b8007cd4:	afc00024 	sw	zero,36(s8)
b8007cd8:	afc00028 	sw	zero,40(s8)
b8007cdc:	afc0002c 	sw	zero,44(s8)
b8007ce0:	afc00014 	sw	zero,20(s8)
b8007ce4:	afc00018 	sw	zero,24(s8)
b8007ce8:	3c02b840 	lui	v0,0xb840
b8007cec:	244212c0 	addiu	v0,v0,4800
b8007cf0:	afc2001c 	sw	v0,28(s8)
b8007cf4:	0e001270 	jal	b80049c0 <MASKR0_set>
b8007cf8:	00000000 	nop
b8007cfc:	8fc20038 	lw	v0,56(s8)
	...
b8007d08:	14400009 	bnez	v0,b8007d30 <sw_data_obmen+0x7c>
b8007d0c:	00000000 	nop
b8007d10:	24040002 	li	a0,2
b8007d14:	8fc5001c 	lw	a1,28(s8)
b8007d18:	00000000 	nop
b8007d1c:	8fc60010 	lw	a2,16(s8)
b8007d20:	00000000 	nop
b8007d24:	24070001 	li	a3,1
b8007d28:	0e00228d 	jal	b8008a34 <swic_send_packet>
b8007d2c:	00000000 	nop
b8007d30:	00002021 	move	a0,zero
b8007d34:	00002821 	move	a1,zero
b8007d38:	0e000c53 	jal	b800314c <get_status>
b8007d3c:	00000000 	nop
b8007d40:	00401821 	move	v1,v0
b8007d44:	24020005 	li	v0,5
b8007d48:	14620009 	bne	v1,v0,b8007d70 <sw_data_obmen+0xbc>
b8007d4c:	00000000 	nop
b8007d50:	24040001 	li	a0,1
b8007d54:	00002821 	move	a1,zero
b8007d58:	0e000c53 	jal	b800314c <get_status>
b8007d5c:	00000000 	nop
b8007d60:	00401821 	move	v1,v0
b8007d64:	24020005 	li	v0,5
b8007d68:	10620006 	beq	v1,v0,b8007d84 <sw_data_obmen+0xd0>
b8007d6c:	00000000 	nop
b8007d70:	3c02b801 	lui	v0,0xb801
b8007d74:	ac40dc24 	sw	zero,-9180(v0)
b8007d78:	00001021 	move	v0,zero
b8007d7c:	0a001f65 	j	b8007d94 <sw_data_obmen+0xe0>
b8007d80:	00000000 	nop
b8007d84:	3c02b801 	lui	v0,0xb801
b8007d88:	24030001 	li	v1,1
b8007d8c:	ac43dc24 	sw	v1,-9180(v0)
b8007d90:	24020001 	li	v0,1
b8007d94:	03c0e821 	move	sp,s8
b8007d98:	8fbf0034 	lw	ra,52(sp)
b8007d9c:	00000000 	nop
b8007da0:	8fbe0030 	lw	s8,48(sp)
b8007da4:	00000000 	nop
b8007da8:	27bd0038 	addiu	sp,sp,56
b8007dac:	03e00008 	jr	ra
b8007db0:	00000000 	nop

b8007db4 <lPORT_DMA>:
b8007db4:	27bdfff0 	addiu	sp,sp,-16
b8007db8:	afbe000c 	sw	s8,12(sp)
b8007dbc:	03a0f021 	move	s8,sp
b8007dc0:	afc00000 	sw	zero,0(s8)
b8007dc4:	3c02b82f 	lui	v0,0xb82f
b8007dc8:	34427848 	ori	v0,v0,0x7848
b8007dcc:	3c03b840 	lui	v1,0xb840
b8007dd0:	24640000 	addiu	a0,v1,0
b8007dd4:	3c036000 	lui	v1,0x6000
b8007dd8:	00831821 	addu	v1,a0,v1
b8007ddc:	ac430000 	sw	v1,0(v0)
b8007de0:	3c02b82f 	lui	v0,0xb82f
b8007de4:	34427840 	ori	v0,v0,0x7840
b8007de8:	3c03176f 	lui	v1,0x176f
b8007dec:	3463000d 	ori	v1,v1,0xd
b8007df0:	ac430000 	sw	v1,0(v0)
b8007df4:	03c0e821 	move	sp,s8
b8007df8:	8fbe000c 	lw	s8,12(sp)
b8007dfc:	00000000 	nop
b8007e00:	27bd0010 	addiu	sp,sp,16
b8007e04:	03e00008 	jr	ra
b8007e08:	00000000 	nop

b8007e0c <test_sin>:
b8007e0c:	27bdff70 	addiu	sp,sp,-144
b8007e10:	afbe008c 	sw	s8,140(sp)
b8007e14:	03a0f021 	move	s8,sp
b8007e18:	afc40090 	sw	a0,144(s8)
b8007e1c:	afc00000 	sw	zero,0(s8)
b8007e20:	afc00004 	sw	zero,4(s8)
b8007e24:	24021862 	li	v0,6242
b8007e28:	afc20008 	sw	v0,8(s8)
b8007e2c:	24022fd5 	li	v0,12245
b8007e30:	afc2000c 	sw	v0,12(s8)
b8007e34:	24024572 	li	v0,17778
b8007e38:	afc20010 	sw	v0,16(s8)
b8007e3c:	24025863 	li	v0,22627
b8007e40:	afc20014 	sw	v0,20(s8)
b8007e44:	240267ef 	li	v0,26607
b8007e48:	afc20018 	sw	v0,24(s8)
b8007e4c:	2402737c 	li	v0,29564
b8007e50:	afc2001c 	sw	v0,28(s8)
b8007e54:	24027a99 	li	v0,31385
b8007e58:	afc20020 	sw	v0,32(s8)
b8007e5c:	24027d00 	li	v0,32000
b8007e60:	afc20024 	sw	v0,36(s8)
b8007e64:	24027a99 	li	v0,31385
b8007e68:	afc20028 	sw	v0,40(s8)
b8007e6c:	2402737c 	li	v0,29564
b8007e70:	afc2002c 	sw	v0,44(s8)
b8007e74:	240267ef 	li	v0,26607
b8007e78:	afc20030 	sw	v0,48(s8)
b8007e7c:	24025863 	li	v0,22627
b8007e80:	afc20034 	sw	v0,52(s8)
b8007e84:	24024572 	li	v0,17778
b8007e88:	afc20038 	sw	v0,56(s8)
b8007e8c:	24022fd5 	li	v0,12245
b8007e90:	afc2003c 	sw	v0,60(s8)
b8007e94:	24021862 	li	v0,6242
b8007e98:	afc20040 	sw	v0,64(s8)
b8007e9c:	afc00044 	sw	zero,68(s8)
b8007ea0:	2402e79d 	li	v0,-6243
b8007ea4:	afc20048 	sw	v0,72(s8)
b8007ea8:	2402d02a 	li	v0,-12246
b8007eac:	afc2004c 	sw	v0,76(s8)
b8007eb0:	2402ba8d 	li	v0,-17779
b8007eb4:	afc20050 	sw	v0,80(s8)
b8007eb8:	2402a79c 	li	v0,-22628
b8007ebc:	afc20054 	sw	v0,84(s8)
b8007ec0:	24029810 	li	v0,-26608
b8007ec4:	afc20058 	sw	v0,88(s8)
b8007ec8:	24028c83 	li	v0,-29565
b8007ecc:	afc2005c 	sw	v0,92(s8)
b8007ed0:	24028566 	li	v0,-31386
b8007ed4:	afc20060 	sw	v0,96(s8)
b8007ed8:	24028300 	li	v0,-32000
b8007edc:	afc20064 	sw	v0,100(s8)
b8007ee0:	24028566 	li	v0,-31386
b8007ee4:	afc20068 	sw	v0,104(s8)
b8007ee8:	24028c83 	li	v0,-29565
b8007eec:	afc2006c 	sw	v0,108(s8)
b8007ef0:	24029810 	li	v0,-26608
b8007ef4:	afc20070 	sw	v0,112(s8)
b8007ef8:	2402a79c 	li	v0,-22628
b8007efc:	afc20074 	sw	v0,116(s8)
b8007f00:	2402ba8d 	li	v0,-17779
b8007f04:	afc20078 	sw	v0,120(s8)
b8007f08:	2402d02a 	li	v0,-12246
b8007f0c:	afc2007c 	sw	v0,124(s8)
b8007f10:	2402e79d 	li	v0,-6243
b8007f14:	afc20080 	sw	v0,128(s8)
b8007f18:	8fc20090 	lw	v0,144(s8)
	...
b8007f24:	3042001f 	andi	v0,v0,0x1f
b8007f28:	afc20000 	sw	v0,0(s8)
b8007f2c:	8fc20000 	lw	v0,0(s8)
	...
b8007f38:	00021080 	sll	v0,v0,0x2
b8007f3c:	03c21021 	addu	v0,s8,v0
b8007f40:	8c420004 	lw	v0,4(v0)
b8007f44:	00000000 	nop
b8007f48:	03c0e821 	move	sp,s8
b8007f4c:	8fbe008c 	lw	s8,140(sp)
b8007f50:	00000000 	nop
b8007f54:	27bd0090 	addiu	sp,sp,144
b8007f58:	03e00008 	jr	ra
b8007f5c:	00000000 	nop

b8007f60 <test_cos>:
b8007f60:	27bdff70 	addiu	sp,sp,-144
b8007f64:	afbe008c 	sw	s8,140(sp)
b8007f68:	03a0f021 	move	s8,sp
b8007f6c:	afc40090 	sw	a0,144(s8)
b8007f70:	afc00000 	sw	zero,0(s8)
b8007f74:	24027d00 	li	v0,32000
b8007f78:	afc20004 	sw	v0,4(s8)
b8007f7c:	24027a99 	li	v0,31385
b8007f80:	afc20008 	sw	v0,8(s8)
b8007f84:	2402737c 	li	v0,29564
b8007f88:	afc2000c 	sw	v0,12(s8)
b8007f8c:	240267ef 	li	v0,26607
b8007f90:	afc20010 	sw	v0,16(s8)
b8007f94:	24025863 	li	v0,22627
b8007f98:	afc20014 	sw	v0,20(s8)
b8007f9c:	24024572 	li	v0,17778
b8007fa0:	afc20018 	sw	v0,24(s8)
b8007fa4:	24022fd5 	li	v0,12245
b8007fa8:	afc2001c 	sw	v0,28(s8)
b8007fac:	24021862 	li	v0,6242
b8007fb0:	afc20020 	sw	v0,32(s8)
b8007fb4:	afc00024 	sw	zero,36(s8)
b8007fb8:	2402e79d 	li	v0,-6243
b8007fbc:	afc20028 	sw	v0,40(s8)
b8007fc0:	2402d02a 	li	v0,-12246
b8007fc4:	afc2002c 	sw	v0,44(s8)
b8007fc8:	2402ba8d 	li	v0,-17779
b8007fcc:	afc20030 	sw	v0,48(s8)
b8007fd0:	2402a79c 	li	v0,-22628
b8007fd4:	afc20034 	sw	v0,52(s8)
b8007fd8:	24029810 	li	v0,-26608
b8007fdc:	afc20038 	sw	v0,56(s8)
b8007fe0:	24028c83 	li	v0,-29565
b8007fe4:	afc2003c 	sw	v0,60(s8)
b8007fe8:	24028566 	li	v0,-31386
b8007fec:	afc20040 	sw	v0,64(s8)
b8007ff0:	24028300 	li	v0,-32000
b8007ff4:	afc20044 	sw	v0,68(s8)
b8007ff8:	24028566 	li	v0,-31386
b8007ffc:	afc20048 	sw	v0,72(s8)
b8008000:	24028c83 	li	v0,-29565
b8008004:	afc2004c 	sw	v0,76(s8)
b8008008:	24029810 	li	v0,-26608
b800800c:	afc20050 	sw	v0,80(s8)
b8008010:	2402a79c 	li	v0,-22628
b8008014:	afc20054 	sw	v0,84(s8)
b8008018:	2402ba8d 	li	v0,-17779
b800801c:	afc20058 	sw	v0,88(s8)
b8008020:	2402d02a 	li	v0,-12246
b8008024:	afc2005c 	sw	v0,92(s8)
b8008028:	2402e79d 	li	v0,-6243
b800802c:	afc20060 	sw	v0,96(s8)
b8008030:	2402ffff 	li	v0,-1
b8008034:	afc20064 	sw	v0,100(s8)
b8008038:	24021862 	li	v0,6242
b800803c:	afc20068 	sw	v0,104(s8)
b8008040:	24022fd5 	li	v0,12245
b8008044:	afc2006c 	sw	v0,108(s8)
b8008048:	24024572 	li	v0,17778
b800804c:	afc20070 	sw	v0,112(s8)
b8008050:	24025863 	li	v0,22627
b8008054:	afc20074 	sw	v0,116(s8)
b8008058:	240267ef 	li	v0,26607
b800805c:	afc20078 	sw	v0,120(s8)
b8008060:	2402737c 	li	v0,29564
b8008064:	afc2007c 	sw	v0,124(s8)
b8008068:	24027a99 	li	v0,31385
b800806c:	afc20080 	sw	v0,128(s8)
b8008070:	8fc20090 	lw	v0,144(s8)
	...
b800807c:	3042001f 	andi	v0,v0,0x1f
b8008080:	afc20000 	sw	v0,0(s8)
b8008084:	8fc20000 	lw	v0,0(s8)
	...
b8008090:	00021080 	sll	v0,v0,0x2
b8008094:	03c21021 	addu	v0,s8,v0
b8008098:	8c420004 	lw	v0,4(v0)
b800809c:	00000000 	nop
b80080a0:	03c0e821 	move	sp,s8
b80080a4:	8fbe008c 	lw	s8,140(sp)
b80080a8:	00000000 	nop
b80080ac:	27bd0090 	addiu	sp,sp,144
b80080b0:	03e00008 	jr	ra
b80080b4:	00000000 	nop

b80080b8 <SETUP>:
b80080b8:	27bdffe8 	addiu	sp,sp,-24
b80080bc:	afbf0014 	sw	ra,20(sp)
b80080c0:	afbe0010 	sw	s8,16(sp)
b80080c4:	03a0f021 	move	s8,sp
b80080c8:	24040002 	li	a0,2
b80080cc:	24050001 	li	a1,1
b80080d0:	0e0013bc 	jal	b8004ef0 <init_GPIO_DR3>
b80080d4:	00000000 	nop
b80080d8:	24040008 	li	a0,8
b80080dc:	00002821 	move	a1,zero
b80080e0:	0e0013bc 	jal	b8004ef0 <init_GPIO_DR3>
b80080e4:	00000000 	nop
b80080e8:	24040010 	li	a0,16
b80080ec:	00002821 	move	a1,zero
b80080f0:	0e0013bc 	jal	b8004ef0 <init_GPIO_DR3>
b80080f4:	00000000 	nop
b80080f8:	24040002 	li	a0,2
b80080fc:	24050001 	li	a1,1
b8008100:	0e00138f 	jal	b8004e3c <init_GPIO_DR2>
b8008104:	00000000 	nop
b8008108:	24040008 	li	a0,8
b800810c:	00002821 	move	a1,zero
b8008110:	0e00138f 	jal	b8004e3c <init_GPIO_DR2>
b8008114:	00000000 	nop
b8008118:	24040010 	li	a0,16
b800811c:	00002821 	move	a1,zero
b8008120:	0e00138f 	jal	b8004e3c <init_GPIO_DR2>
b8008124:	00000000 	nop
b8008128:	24040032 	li	a0,50
b800812c:	0e000983 	jal	b800260c <Delay_ms>
b8008130:	00000000 	nop
b8008134:	24040080 	li	a0,128
b8008138:	00002821 	move	a1,zero
b800813c:	0e00138f 	jal	b8004e3c <init_GPIO_DR2>
b8008140:	00000000 	nop
b8008144:	24040005 	li	a0,5
b8008148:	0e000983 	jal	b800260c <Delay_ms>
b800814c:	00000000 	nop
b8008150:	24040080 	li	a0,128
b8008154:	00002821 	move	a1,zero
b8008158:	0e0013bc 	jal	b8004ef0 <init_GPIO_DR3>
b800815c:	00000000 	nop
b8008160:	24040005 	li	a0,5
b8008164:	0e000983 	jal	b800260c <Delay_ms>
b8008168:	00000000 	nop
b800816c:	24040080 	li	a0,128
b8008170:	24050001 	li	a1,1
b8008174:	0e0013bc 	jal	b8004ef0 <init_GPIO_DR3>
b8008178:	00000000 	nop
b800817c:	2404000a 	li	a0,10
b8008180:	0e000983 	jal	b800260c <Delay_ms>
b8008184:	00000000 	nop
b8008188:	00002021 	move	a0,zero
b800818c:	24050078 	li	a1,120
b8008190:	0e001a42 	jal	b8006908 <spi_1288_wr>
b8008194:	00000000 	nop
b8008198:	2404003c 	li	a0,60
b800819c:	0e0010bb 	jal	b80042ec <AT1>
b80081a0:	00000000 	nop
b80081a4:	2404003c 	li	a0,60
b80081a8:	0e001162 	jal	b8004588 <AT2>
b80081ac:	00000000 	nop
b80081b0:	3c02b801 	lui	v0,0xb801
b80081b4:	2444e340 	addiu	a0,v0,-7360
b80081b8:	0e000540 	jal	b8001500 <INIT_REG_DSP>
b80081bc:	00000000 	nop
b80081c0:	0e001ad3 	jal	b8006b4c <dsp_1288hk1t_init>
b80081c4:	00000000 	nop
b80081c8:	24040005 	li	a0,5
b80081cc:	24050306 	li	a1,774
b80081d0:	0e001a42 	jal	b8006908 <spi_1288_wr>
b80081d4:	00000000 	nop
b80081d8:	24040080 	li	a0,128
b80081dc:	24050001 	li	a1,1
b80081e0:	0e00138f 	jal	b8004e3c <init_GPIO_DR2>
b80081e4:	00000000 	nop
b80081e8:	03c0e821 	move	sp,s8
b80081ec:	8fbf0014 	lw	ra,20(sp)
b80081f0:	00000000 	nop
b80081f4:	8fbe0010 	lw	s8,16(sp)
b80081f8:	00000000 	nop
b80081fc:	27bd0018 	addiu	sp,sp,24
b8008200:	03e00008 	jr	ra
b8008204:	00000000 	nop

b8008208 <main>:
b8008208:	27bdffb0 	addiu	sp,sp,-80
b800820c:	afbf004c 	sw	ra,76(sp)
b8008210:	afbe0048 	sw	s8,72(sp)
b8008214:	03a0f021 	move	s8,sp
b8008218:	a3c00010 	sb	zero,16(s8)
b800821c:	a3c00011 	sb	zero,17(s8)
b8008220:	a3c00012 	sb	zero,18(s8)
b8008224:	afc00014 	sw	zero,20(s8)
b8008228:	afc00018 	sw	zero,24(s8)
b800822c:	afc0001c 	sw	zero,28(s8)
b8008230:	afc00020 	sw	zero,32(s8)
b8008234:	afc00024 	sw	zero,36(s8)
b8008238:	afc00028 	sw	zero,40(s8)
b800823c:	afc0002c 	sw	zero,44(s8)
b8008240:	a7c00030 	sh	zero,48(s8)
b8008244:	a7c00032 	sh	zero,50(s8)
b8008248:	a3c00034 	sb	zero,52(s8)
b800824c:	a3c00035 	sb	zero,53(s8)
b8008250:	afc00038 	sw	zero,56(s8)
b8008254:	afc0003c 	sw	zero,60(s8)
b8008258:	afc00040 	sw	zero,64(s8)
b800825c:	3c02b82f 	lui	v0,0xb82f
b8008260:	34424004 	ori	v0,v0,0x4004
b8008264:	2403ffff 	li	v1,-1
b8008268:	ac430000 	sw	v1,0(v0)
b800826c:	3c02b82f 	lui	v0,0xb82f
b8008270:	34424000 	ori	v0,v0,0x4000
b8008274:	ac400000 	sw	zero,0(v0)
b8008278:	3c02b82f 	lui	v0,0xb82f
b800827c:	34424000 	ori	v0,v0,0x4000
b8008280:	3c03001c 	lui	v1,0x1c
b8008284:	3463949c 	ori	v1,v1,0x949c
b8008288:	ac430000 	sw	v1,0(v0)
b800828c:	3c020001 	lui	v0,0x1
b8008290:	3444c200 	ori	a0,v0,0xc200
b8008294:	3c020858 	lui	v0,0x858
b8008298:	34453b00 	ori	a1,v0,0x3b00
b800829c:	0e000e93 	jal	b8003a4c <UART1_conf>
b80082a0:	00000000 	nop
b80082a4:	24041001 	li	a0,4097
b80082a8:	0e001248 	jal	b8004920 <SetCP0_Status>
b80082ac:	00000000 	nop
b80082b0:	0e00125e 	jal	b8004978 <MASKR2_set>
b80082b4:	00000000 	nop
b80082b8:	0e001209 	jal	b8004824 <MFBSP0_init>
b80082bc:	00000000 	nop
b80082c0:	0e00130b 	jal	b8004c2c <MFBSP1_init>
b80082c4:	00000000 	nop
b80082c8:	0e001356 	jal	b8004d58 <MFBSP2_init>
b80082cc:	00000000 	nop
b80082d0:	0e001372 	jal	b8004dc8 <MFBSP3_init>
b80082d4:	00000000 	nop
b80082d8:	0e001a8a 	jal	b8006a28 <SPI_init>
b80082dc:	00000000 	nop
b80082e0:	93c20010 	lbu	v0,16(s8)
	...
b80082ec:	00402021 	move	a0,v0
b80082f0:	0e0013e9 	jal	b8004fa4 <LED>
b80082f4:	00000000 	nop
b80082f8:	00002021 	move	a0,zero
b80082fc:	0e0013f4 	jal	b8004fd0 <adc1_init>
b8008300:	00000000 	nop
b8008304:	00002021 	move	a0,zero
b8008308:	0e001432 	jal	b80050c8 <adc2_init>
b800830c:	00000000 	nop
b8008310:	3c02b801 	lui	v0,0xb801
b8008314:	2444d590 	addiu	a0,v0,-10864
b8008318:	0e000f28 	jal	b8003ca0 <Transf>
b800831c:	00000000 	nop
b8008320:	3c02b801 	lui	v0,0xb801
b8008324:	2444d5ac 	addiu	a0,v0,-10836
b8008328:	0e000f28 	jal	b8003ca0 <Transf>
b800832c:	00000000 	nop
b8008330:	3c02b801 	lui	v0,0xb801
b8008334:	2444d590 	addiu	a0,v0,-10864
b8008338:	0e000f28 	jal	b8003ca0 <Transf>
b800833c:	00000000 	nop
b8008340:	3c02b801 	lui	v0,0xb801
b8008344:	24030030 	li	v1,48
b8008348:	a043dbb9 	sb	v1,-9287(v0)
b800834c:	3c02b801 	lui	v0,0xb801
b8008350:	ac40db8c 	sw	zero,-9332(v0)
b8008354:	3c02b801 	lui	v0,0xb801
b8008358:	ac40db84 	sw	zero,-9340(v0)
b800835c:	3c02b801 	lui	v0,0xb801
b8008360:	ac40db6c 	sw	zero,-9364(v0)
b8008364:	3c02b801 	lui	v0,0xb801
b8008368:	a040db78 	sb	zero,-9352(v0)
b800836c:	00002021 	move	a0,zero
b8008370:	0e0010bb 	jal	b80042ec <AT1>
b8008374:	00000000 	nop
b8008378:	00002021 	move	a0,zero
b800837c:	0e001162 	jal	b8004588 <AT2>
b8008380:	00000000 	nop
b8008384:	3c02b82f 	lui	v0,0xb82f
b8008388:	34424008 	ori	v0,v0,0x4008
b800838c:	3c03b82f 	lui	v1,0xb82f
b8008390:	34634008 	ori	v1,v1,0x4008
b8008394:	8c630000 	lw	v1,0(v1)
	...
b80083a0:	34630002 	ori	v1,v1,0x2
b80083a4:	ac430000 	sw	v1,0(v0)
b80083a8:	00002021 	move	a0,zero
b80083ac:	0e00248a 	jal	b8009228 <risc_set_interrupts_vector>
b80083b0:	00000000 	nop
b80083b4:	3c02b800 	lui	v0,0xb800
b80083b8:	24444aa4 	addiu	a0,v0,19108
b80083bc:	24050019 	li	a1,25
b80083c0:	0e0029da 	jal	b800a768 <risc_register_interrupt>
b80083c4:	00000000 	nop
b80083c8:	0e000ff3 	jal	b8003fcc <IER_UART>
b80083cc:	00000000 	nop
b80083d0:	24040019 	li	a0,25
b80083d4:	0e00258b 	jal	b800962c <risc_enable_interrupt>
b80083d8:	00000000 	nop
b80083dc:	0e0019c7 	jal	b800671c <ID0_init>
b80083e0:	00000000 	nop
b80083e4:	3c02b800 	lui	v0,0xb800
b80083e8:	24446790 	addiu	a0,v0,26512
b80083ec:	24050009 	li	a1,9
b80083f0:	0e0029da 	jal	b800a768 <risc_register_interrupt>
b80083f4:	00000000 	nop
b80083f8:	24040009 	li	a0,9
b80083fc:	0e00258b 	jal	b800962c <risc_enable_interrupt>
b8008400:	00000000 	nop
b8008404:	3c02b800 	lui	v0,0xb800
b8008408:	24444a08 	addiu	a0,v0,18952
b800840c:	24050042 	li	a1,66
b8008410:	0e0029da 	jal	b800a768 <risc_register_interrupt>
b8008414:	00000000 	nop
b8008418:	24040042 	li	a0,66
b800841c:	0e00258b 	jal	b800962c <risc_enable_interrupt>
b8008420:	00000000 	nop
b8008424:	3c02b800 	lui	v0,0xb800
b8008428:	24444b8c 	addiu	a0,v0,19340
b800842c:	2405000b 	li	a1,11
b8008430:	0e0029da 	jal	b800a768 <risc_register_interrupt>
b8008434:	00000000 	nop
b8008438:	3c02b800 	lui	v0,0xb800
b800843c:	24444bdc 	addiu	a0,v0,19420
b8008440:	2405000c 	li	a1,12
b8008444:	0e0029da 	jal	b800a768 <risc_register_interrupt>
b8008448:	00000000 	nop
b800844c:	3c02b82f 	lui	v0,0xb82f
b8008450:	34427100 	ori	v0,v0,0x7100
b8008454:	8c420000 	lw	v0,0(v0)
	...
b8008460:	afc20024 	sw	v0,36(s8)
b8008464:	3c02b82f 	lui	v0,0xb82f
b8008468:	34427100 	ori	v0,v0,0x7100
b800846c:	8c420000 	lw	v0,0(v0)
	...
b8008478:	afc20024 	sw	v0,36(s8)
b800847c:	24040064 	li	a0,100
b8008480:	0e000983 	jal	b800260c <Delay_ms>
b8008484:	00000000 	nop
b8008488:	0e00202e 	jal	b80080b8 <SETUP>
b800848c:	00000000 	nop
b8008490:	0e001f6d 	jal	b8007db4 <lPORT_DMA>
b8008494:	00000000 	nop
b8008498:	24040064 	li	a0,100
b800849c:	0e000983 	jal	b800260c <Delay_ms>
b80084a0:	00000000 	nop
b80084a4:	3c02b801 	lui	v0,0xb801
b80084a8:	2444d5c8 	addiu	a0,v0,-10808
b80084ac:	0e001565 	jal	b8005594 <IO>
b80084b0:	00000000 	nop
b80084b4:	24040064 	li	a0,100
b80084b8:	0e000983 	jal	b800260c <Delay_ms>
b80084bc:	00000000 	nop
b80084c0:	3c02b801 	lui	v0,0xb801
b80084c4:	2444d584 	addiu	a0,v0,-10876
b80084c8:	0e001565 	jal	b8005594 <IO>
b80084cc:	00000000 	nop
b80084d0:	3c02b801 	lui	v0,0xb801
b80084d4:	2444d5d4 	addiu	a0,v0,-10796
b80084d8:	0e001565 	jal	b8005594 <IO>
b80084dc:	00000000 	nop
b80084e0:	3c02b801 	lui	v0,0xb801
b80084e4:	2444d5d4 	addiu	a0,v0,-10796
b80084e8:	0e001565 	jal	b8005594 <IO>
b80084ec:	00000000 	nop
b80084f0:	3c02b801 	lui	v0,0xb801
b80084f4:	2444d5d4 	addiu	a0,v0,-10796
b80084f8:	0e001565 	jal	b8005594 <IO>
b80084fc:	00000000 	nop
b8008500:	24022000 	li	v0,8192
b8008504:	afc20038 	sw	v0,56(s8)
b8008508:	0e001036 	jal	b80040d8 <UART_conrol>
b800850c:	00000000 	nop
b8008510:	3c02b801 	lui	v0,0xb801
b8008514:	8c42de28 	lw	v0,-8664(v0)
	...
b8008520:	1040000d 	beqz	v0,b8008558 <main+0x350>
b8008524:	00000000 	nop
b8008528:	3c02b801 	lui	v0,0xb801
b800852c:	ac40de28 	sw	zero,-8664(v0)
b8008530:	afc00014 	sw	zero,20(s8)
b8008534:	3c02b801 	lui	v0,0xb801
b8008538:	ac40dc08 	sw	zero,-9208(v0)
b800853c:	3c02b801 	lui	v0,0xb801
b8008540:	8c42dbf0 	lw	v0,-9232(v0)
	...
b800854c:	24430001 	addiu	v1,v0,1
b8008550:	3c02b801 	lui	v0,0xb801
b8008554:	ac43dbf0 	sw	v1,-9232(v0)
b8008558:	3c02b801 	lui	v0,0xb801
b800855c:	8c43de34 	lw	v1,-8652(v0)
b8008560:	00000000 	nop
b8008564:	24020001 	li	v0,1
b8008568:	1462001d 	bne	v1,v0,b80085e0 <main+0x3d8>
b800856c:	00000000 	nop
b8008570:	3c02b801 	lui	v0,0xb801
b8008574:	8c43de30 	lw	v1,-8656(v0)
b8008578:	00000000 	nop
b800857c:	24020001 	li	v0,1
b8008580:	14620017 	bne	v1,v0,b80085e0 <main+0x3d8>
b8008584:	00000000 	nop
b8008588:	3c02b801 	lui	v0,0xb801
b800858c:	ac40de34 	sw	zero,-8652(v0)
b8008590:	3c02b801 	lui	v0,0xb801
b8008594:	ac40de30 	sw	zero,-8656(v0)
b8008598:	3c02b801 	lui	v0,0xb801
b800859c:	24030001 	li	v1,1
b80085a0:	ac43dc14 	sw	v1,-9196(v0)
b80085a4:	3c02b801 	lui	v0,0xb801
b80085a8:	8c42dc10 	lw	v0,-9200(v0)
	...
b80085b4:	24430001 	addiu	v1,v0,1
b80085b8:	3c02b801 	lui	v0,0xb801
b80085bc:	ac43dc10 	sw	v1,-9200(v0)
b80085c0:	3c02b801 	lui	v0,0xb801
b80085c4:	8c43dc08 	lw	v1,-9208(v0)
b80085c8:	00000000 	nop
b80085cc:	24020002 	li	v0,2
b80085d0:	14620003 	bne	v1,v0,b80085e0 <main+0x3d8>
b80085d4:	00000000 	nop
b80085d8:	0e001f6d 	jal	b8007db4 <lPORT_DMA>
b80085dc:	00000000 	nop
b80085e0:	3c02b801 	lui	v0,0xb801
b80085e4:	8c43dc24 	lw	v1,-9180(v0)
b80085e8:	00000000 	nop
b80085ec:	24020001 	li	v0,1
b80085f0:	14620018 	bne	v1,v0,b8008654 <main+0x44c>
b80085f4:	00000000 	nop
b80085f8:	8fc20014 	lw	v0,20(s8)
	...
b8008604:	14400013 	bnez	v0,b8008654 <main+0x44c>
b8008608:	00000000 	nop
b800860c:	afc00018 	sw	zero,24(s8)
b8008610:	0a00218b 	j	b800862c <main+0x424>
b8008614:	00000000 	nop
b8008618:	8fc20018 	lw	v0,24(s8)
	...
b8008624:	24420001 	addiu	v0,v0,1
b8008628:	afc20018 	sw	v0,24(s8)
b800862c:	8fc30018 	lw	v1,24(s8)
b8008630:	00000000 	nop
b8008634:	8fc20038 	lw	v0,56(s8)
	...
b8008640:	0062102b 	sltu	v0,v1,v0
b8008644:	1440fff4 	bnez	v0,b8008618 <main+0x410>
b8008648:	00000000 	nop
b800864c:	24020001 	li	v0,1
b8008650:	afc20014 	sw	v0,20(s8)
b8008654:	3c02b801 	lui	v0,0xb801
b8008658:	8c43dc24 	lw	v1,-9180(v0)
b800865c:	00000000 	nop
b8008660:	24020001 	li	v0,1
b8008664:	1462001f 	bne	v1,v0,b80086e4 <main+0x4dc>
b8008668:	00000000 	nop
b800866c:	3c02b801 	lui	v0,0xb801
b8008670:	8c43dc14 	lw	v1,-9196(v0)
b8008674:	00000000 	nop
b8008678:	24020001 	li	v0,1
b800867c:	14620019 	bne	v1,v0,b80086e4 <main+0x4dc>
b8008680:	00000000 	nop
b8008684:	8fc30014 	lw	v1,20(s8)
b8008688:	00000000 	nop
b800868c:	24020001 	li	v0,1
b8008690:	14620014 	bne	v1,v0,b80086e4 <main+0x4dc>
b8008694:	00000000 	nop
b8008698:	3c02b801 	lui	v0,0xb801
b800869c:	8c42dc08 	lw	v0,-9208(v0)
	...
b80086a8:	28420002 	slti	v0,v0,2
b80086ac:	1040000d 	beqz	v0,b80086e4 <main+0x4dc>
b80086b0:	00000000 	nop
b80086b4:	3c02b801 	lui	v0,0xb801
b80086b8:	8c42dc08 	lw	v0,-9208(v0)
	...
b80086c4:	00402021 	move	a0,v0
b80086c8:	0e001f2d 	jal	b8007cb4 <sw_data_obmen>
b80086cc:	00000000 	nop
b80086d0:	3c02b801 	lui	v0,0xb801
b80086d4:	24030002 	li	v1,2
b80086d8:	ac43dc08 	sw	v1,-9208(v0)
b80086dc:	3c02b801 	lui	v0,0xb801
b80086e0:	ac40dc14 	sw	zero,-9196(v0)
b80086e4:	3c02b801 	lui	v0,0xb801
b80086e8:	8c43dc24 	lw	v1,-9180(v0)
b80086ec:	00000000 	nop
b80086f0:	24020001 	li	v0,1
b80086f4:	1462000d 	bne	v1,v0,b800872c <main+0x524>
b80086f8:	00000000 	nop
b80086fc:	93c20011 	lbu	v0,17(s8)
	...
b8008708:	14400008 	bnez	v0,b800872c <main+0x524>
b800870c:	00000000 	nop
b8008710:	3c02b801 	lui	v0,0xb801
b8008714:	2444d5e4 	addiu	a0,v0,-10780
b8008718:	0e000f28 	jal	b8003ca0 <Transf>
b800871c:	00000000 	nop
b8008720:	24020001 	li	v0,1
b8008724:	a3c20011 	sb	v0,17(s8)
b8008728:	a3c00012 	sb	zero,18(s8)
b800872c:	3c02b801 	lui	v0,0xb801
b8008730:	8c42dc24 	lw	v0,-9180(v0)
	...
b800873c:	14400011 	bnez	v0,b8008784 <main+0x57c>
b8008740:	00000000 	nop
b8008744:	93c20012 	lbu	v0,18(s8)
	...
b8008750:	1440000c 	bnez	v0,b8008784 <main+0x57c>
b8008754:	00000000 	nop
b8008758:	3c02b801 	lui	v0,0xb801
b800875c:	2444d5f4 	addiu	a0,v0,-10764
b8008760:	0e000f28 	jal	b8003ca0 <Transf>
b8008764:	00000000 	nop
b8008768:	24020001 	li	v0,1
b800876c:	a3c20012 	sb	v0,18(s8)
b8008770:	a3c00011 	sb	zero,17(s8)
b8008774:	3c02b801 	lui	v0,0xb801
b8008778:	2444d584 	addiu	a0,v0,-10876
b800877c:	0e001565 	jal	b8005594 <IO>
b8008780:	00000000 	nop
b8008784:	3c02b801 	lui	v0,0xb801
b8008788:	8c42dc04 	lw	v0,-9212(v0)
	...
b8008794:	14400011 	bnez	v0,b80087dc <main+0x5d4>
b8008798:	00000000 	nop
b800879c:	93c20010 	lbu	v0,16(s8)
	...
b80087a8:	00021027 	nor	v0,zero,v0
b80087ac:	a3c20010 	sb	v0,16(s8)
b80087b0:	93c20010 	lbu	v0,16(s8)
	...
b80087bc:	00402021 	move	a0,v0
b80087c0:	0e0013e9 	jal	b8004fa4 <LED>
b80087c4:	00000000 	nop
b80087c8:	3c02b801 	lui	v0,0xb801
b80087cc:	240301f4 	li	v1,500
b80087d0:	ac43dc04 	sw	v1,-9212(v0)
b80087d4:	0a002142 	j	b8008508 <main+0x300>
b80087d8:	00000000 	nop
b80087dc:	0a002142 	j	b8008508 <main+0x300>
b80087e0:	00000000 	nop

b80087e4 <ClearSwic>:
b80087e4:	27bdfff8 	addiu	sp,sp,-8
b80087e8:	afbe0004 	sw	s8,4(sp)
b80087ec:	03a0f021 	move	s8,sp
b80087f0:	afc40008 	sw	a0,8(s8)
b80087f4:	8fc20008 	lw	v0,8(s8)
	...
b8008800:	00021300 	sll	v0,v0,0xc
b8008804:	00401821 	move	v1,v0
b8008808:	3c02b82f 	lui	v0,0xb82f
b800880c:	3442c00c 	ori	v0,v0,0xc00c
b8008810:	00621021 	addu	v0,v1,v0
b8008814:	24030021 	li	v1,33
b8008818:	ac430000 	sw	v1,0(v0)
b800881c:	8fc20008 	lw	v0,8(s8)
	...
b8008828:	00021300 	sll	v0,v0,0xc
b800882c:	00401821 	move	v1,v0
b8008830:	3c02b82f 	lui	v0,0xb82f
b8008834:	3442c010 	ori	v0,v0,0xc010
b8008838:	00621021 	addu	v0,v1,v0
b800883c:	24030300 	li	v1,768
b8008840:	ac430000 	sw	v1,0(v0)
b8008844:	8fc20008 	lw	v0,8(s8)
	...
b8008850:	00021300 	sll	v0,v0,0xc
b8008854:	00401821 	move	v1,v0
b8008858:	3c02b82f 	lui	v0,0xb82f
b800885c:	3442c020 	ori	v0,v0,0xc020
b8008860:	00621021 	addu	v0,v1,v0
b8008864:	ac400000 	sw	zero,0(v0)
b8008868:	3c02b82f 	lui	v0,0xb82f
b800886c:	3442a8c0 	ori	v0,v0,0xa8c0
b8008870:	ac400000 	sw	zero,0(v0)
b8008874:	3c02b82f 	lui	v0,0xb82f
b8008878:	3442a880 	ori	v0,v0,0xa880
b800887c:	ac400000 	sw	zero,0(v0)
b8008880:	3c02b82f 	lui	v0,0xb82f
b8008884:	3442a840 	ori	v0,v0,0xa840
b8008888:	ac400000 	sw	zero,0(v0)
b800888c:	3c02b82f 	lui	v0,0xb82f
b8008890:	3442a800 	ori	v0,v0,0xa800
b8008894:	ac400000 	sw	zero,0(v0)
b8008898:	03c0e821 	move	sp,s8
b800889c:	8fbe0004 	lw	s8,4(sp)
b80088a0:	00000000 	nop
b80088a4:	27bd0008 	addiu	sp,sp,8
b80088a8:	03e00008 	jr	ra
b80088ac:	00000000 	nop

b80088b0 <InitSwic>:
b80088b0:	27bdfff8 	addiu	sp,sp,-8
b80088b4:	afbe0004 	sw	s8,4(sp)
b80088b8:	03a0f021 	move	s8,sp
b80088bc:	afc40008 	sw	a0,8(s8)
b80088c0:	8fc20008 	lw	v0,8(s8)
	...
b80088cc:	00021300 	sll	v0,v0,0xc
b80088d0:	00401821 	move	v1,v0
b80088d4:	3c02b82f 	lui	v0,0xb82f
b80088d8:	3442c00c 	ori	v0,v0,0xc00c
b80088dc:	00621021 	addu	v0,v1,v0
b80088e0:	24030006 	li	v1,6
b80088e4:	ac430000 	sw	v1,0(v0)
b80088e8:	03c0e821 	move	sp,s8
b80088ec:	8fbe0004 	lw	s8,4(sp)
b80088f0:	00000000 	nop
b80088f4:	27bd0008 	addiu	sp,sp,8
b80088f8:	03e00008 	jr	ra
b80088fc:	00000000 	nop

b8008900 <IsConnected>:
b8008900:	27bdfff8 	addiu	sp,sp,-8
b8008904:	afbe0004 	sw	s8,4(sp)
b8008908:	03a0f021 	move	s8,sp
b800890c:	afc40008 	sw	a0,8(s8)
b8008910:	8fc20008 	lw	v0,8(s8)
	...
b800891c:	00021300 	sll	v0,v0,0xc
b8008920:	00401821 	move	v1,v0
b8008924:	3c02b82f 	lui	v0,0xb82f
b8008928:	3442c004 	ori	v0,v0,0xc004
b800892c:	00621021 	addu	v0,v1,v0
b8008930:	8c420000 	lw	v0,0(v0)
	...
b800893c:	304330f0 	andi	v1,v0,0x30f0
b8008940:	240230a0 	li	v0,12448
b8008944:	14620004 	bne	v1,v0,b8008958 <IsConnected+0x58>
b8008948:	00000000 	nop
b800894c:	24020001 	li	v0,1
b8008950:	0a002257 	j	b800895c <IsConnected+0x5c>
b8008954:	00000000 	nop
b8008958:	00001021 	move	v0,zero
b800895c:	03c0e821 	move	sp,s8
b8008960:	8fbe0004 	lw	s8,4(sp)
b8008964:	00000000 	nop
b8008968:	27bd0008 	addiu	sp,sp,8
b800896c:	03e00008 	jr	ra
b8008970:	00000000 	nop

b8008974 <SetSwicSpeed>:
b8008974:	27bdfff0 	addiu	sp,sp,-16
b8008978:	afbe000c 	sw	s8,12(sp)
b800897c:	03a0f021 	move	s8,sp
b8008980:	afc40010 	sw	a0,16(s8)
b8008984:	afc50014 	sw	a1,20(s8)
b8008988:	8fc20014 	lw	v0,20(s8)
	...
b8008994:	28420005 	slti	v0,v0,5
b8008998:	14400007 	bnez	v0,b80089b8 <SetSwicSpeed+0x44>
b800899c:	00000000 	nop
b80089a0:	8fc20014 	lw	v0,20(s8)
	...
b80089ac:	284204fc 	slti	v0,v0,1276
b80089b0:	14400003 	bnez	v0,b80089c0 <SetSwicSpeed+0x4c>
b80089b4:	00000000 	nop
b80089b8:	0a002287 	j	b8008a1c <SetSwicSpeed+0xa8>
b80089bc:	00000000 	nop
b80089c0:	8fc20014 	lw	v0,20(s8)
b80089c4:	00000000 	nop
b80089c8:	3c036666 	lui	v1,0x6666
b80089cc:	34636667 	ori	v1,v1,0x6667
b80089d0:	00430018 	mult	v0,v1
b80089d4:	00001810 	mfhi	v1
b80089d8:	00031843 	sra	v1,v1,0x1
b80089dc:	000217c3 	sra	v0,v0,0x1f
b80089e0:	00621023 	subu	v0,v1,v0
b80089e4:	afc20000 	sw	v0,0(s8)
b80089e8:	8fc20010 	lw	v0,16(s8)
	...
b80089f4:	00021300 	sll	v0,v0,0xc
b80089f8:	00401821 	move	v1,v0
b80089fc:	3c02b82f 	lui	v0,0xb82f
b8008a00:	3442c010 	ori	v0,v0,0xc010
b8008a04:	00621021 	addu	v0,v1,v0
b8008a08:	8fc30000 	lw	v1,0(s8)
	...
b8008a14:	34630300 	ori	v1,v1,0x300
b8008a18:	ac430000 	sw	v1,0(v0)
b8008a1c:	03c0e821 	move	sp,s8
b8008a20:	8fbe000c 	lw	s8,12(sp)
b8008a24:	00000000 	nop
b8008a28:	27bd0010 	addiu	sp,sp,16
b8008a2c:	03e00008 	jr	ra
b8008a30:	00000000 	nop

b8008a34 <swic_send_packet>:
b8008a34:	27bdffd8 	addiu	sp,sp,-40
b8008a38:	afbf0024 	sw	ra,36(sp)
b8008a3c:	afbe0020 	sw	s8,32(sp)
b8008a40:	afb0001c 	sw	s0,28(sp)
b8008a44:	03a0f021 	move	s8,sp
b8008a48:	afc40028 	sw	a0,40(s8)
b8008a4c:	afc5002c 	sw	a1,44(s8)
b8008a50:	afc60030 	sw	a2,48(s8)
b8008a54:	afc70034 	sw	a3,52(s8)
b8008a58:	8fc30028 	lw	v1,40(s8)
b8008a5c:	00000000 	nop
b8008a60:	24020002 	li	v0,2
b8008a64:	14620017 	bne	v1,v0,b8008ac4 <swic_send_packet+0x90>
b8008a68:	00000000 	nop
b8008a6c:	3c02b801 	lui	v0,0xb801
b8008a70:	ac40de48 	sw	zero,-8632(v0)
b8008a74:	8fc30028 	lw	v1,40(s8)
b8008a78:	00000000 	nop
b8008a7c:	3c02b801 	lui	v0,0xb801
b8008a80:	2442de48 	addiu	v0,v0,-8632
b8008a84:	ac430004 	sw	v1,4(v0)
b8008a88:	8fc20034 	lw	v0,52(s8)
	...
b8008a94:	00021740 	sll	v0,v0,0x1d
b8008a98:	00401821 	move	v1,v0
b8008a9c:	8fc20030 	lw	v0,48(s8)
	...
b8008aa8:	00621821 	addu	v1,v1,v0
b8008aac:	3c028000 	lui	v0,0x8000
b8008ab0:	00621821 	addu	v1,v1,v0
b8008ab4:	3c02b801 	lui	v0,0xb801
b8008ab8:	ac43de48 	sw	v1,-8632(v0)
b8008abc:	0a0022ca 	j	b8008b28 <swic_send_packet+0xf4>
b8008ac0:	00000000 	nop
b8008ac4:	8fc30028 	lw	v1,40(s8)
b8008ac8:	00000000 	nop
b8008acc:	24020004 	li	v0,4
b8008ad0:	14620015 	bne	v1,v0,b8008b28 <swic_send_packet+0xf4>
b8008ad4:	00000000 	nop
b8008ad8:	3c02b801 	lui	v0,0xb801
b8008adc:	ac40de50 	sw	zero,-8624(v0)
b8008ae0:	8fc30028 	lw	v1,40(s8)
b8008ae4:	00000000 	nop
b8008ae8:	3c02b801 	lui	v0,0xb801
b8008aec:	2442de50 	addiu	v0,v0,-8624
b8008af0:	ac430004 	sw	v1,4(v0)
b8008af4:	8fc20034 	lw	v0,52(s8)
	...
b8008b00:	00021740 	sll	v0,v0,0x1d
b8008b04:	00401821 	move	v1,v0
b8008b08:	8fc20030 	lw	v0,48(s8)
	...
b8008b14:	00621821 	addu	v1,v1,v0
b8008b18:	3c028000 	lui	v0,0x8000
b8008b1c:	00621821 	addu	v1,v1,v0
b8008b20:	3c02b801 	lui	v0,0xb801
b8008b24:	ac43de50 	sw	v1,-8624(v0)
b8008b28:	8fc20030 	lw	v0,48(s8)
	...
b8008b34:	000210c3 	sra	v0,v0,0x3
b8008b38:	afc20010 	sw	v0,16(s8)
b8008b3c:	8fc30028 	lw	v1,40(s8)
b8008b40:	00000000 	nop
b8008b44:	24020002 	li	v0,2
b8008b48:	1462000b 	bne	v1,v0,b8008b78 <swic_send_packet+0x144>
b8008b4c:	00000000 	nop
b8008b50:	3c02b82f 	lui	v0,0xb82f
b8008b54:	3450a888 	ori	s0,v0,0xa888
b8008b58:	3c02b801 	lui	v0,0xb801
b8008b5c:	2442de48 	addiu	v0,v0,-8632
b8008b60:	00402021 	move	a0,v0
b8008b64:	0e0023f8 	jal	b8008fe0 <sys_kernel_va_to_pa>
b8008b68:	00000000 	nop
b8008b6c:	ae020000 	sw	v0,0(s0)
b8008b70:	0a0022eb 	j	b8008bac <swic_send_packet+0x178>
b8008b74:	00000000 	nop
b8008b78:	8fc30028 	lw	v1,40(s8)
b8008b7c:	00000000 	nop
b8008b80:	24020004 	li	v0,4
b8008b84:	14620009 	bne	v1,v0,b8008bac <swic_send_packet+0x178>
b8008b88:	00000000 	nop
b8008b8c:	3c02b82f 	lui	v0,0xb82f
b8008b90:	3450a888 	ori	s0,v0,0xa888
b8008b94:	3c02b801 	lui	v0,0xb801
b8008b98:	2442de50 	addiu	v0,v0,-8624
b8008b9c:	00402021 	move	a0,v0
b8008ba0:	0e0023f8 	jal	b8008fe0 <sys_kernel_va_to_pa>
b8008ba4:	00000000 	nop
b8008ba8:	ae020000 	sw	v0,0(s0)
b8008bac:	3c02b82f 	lui	v0,0xb82f
b8008bb0:	3450a8c8 	ori	s0,v0,0xa8c8
b8008bb4:	8fc2002c 	lw	v0,44(s8)
	...
b8008bc0:	00402021 	move	a0,v0
b8008bc4:	0e0023f8 	jal	b8008fe0 <sys_kernel_va_to_pa>
b8008bc8:	00000000 	nop
b8008bcc:	ae020000 	sw	v0,0(s0)
b8008bd0:	3c02b82f 	lui	v0,0xb82f
b8008bd4:	3442a8c0 	ori	v0,v0,0xa8c0
b8008bd8:	8fc30010 	lw	v1,16(s8)
	...
b8008be4:	2463ffff 	addiu	v1,v1,-1
b8008be8:	00031c00 	sll	v1,v1,0x10
b8008bec:	ac430000 	sw	v1,0(v0)
b8008bf0:	3c02b82f 	lui	v0,0xb82f
b8008bf4:	3442a880 	ori	v0,v0,0xa880
b8008bf8:	24030001 	li	v1,1
b8008bfc:	ac430000 	sw	v1,0(v0)
b8008c00:	3c02b82f 	lui	v0,0xb82f
b8008c04:	3442a8c0 	ori	v0,v0,0xa8c0
b8008c08:	3c03b82f 	lui	v1,0xb82f
b8008c0c:	3463a8c0 	ori	v1,v1,0xa8c0
b8008c10:	8c630000 	lw	v1,0(v1)
	...
b8008c1c:	34630001 	ori	v1,v1,0x1
b8008c20:	ac430000 	sw	v1,0(v0)
b8008c24:	00001021 	move	v0,zero
b8008c28:	03c0e821 	move	sp,s8
b8008c2c:	8fbf0024 	lw	ra,36(sp)
b8008c30:	00000000 	nop
b8008c34:	8fbe0020 	lw	s8,32(sp)
b8008c38:	00000000 	nop
b8008c3c:	8fb0001c 	lw	s0,28(sp)
b8008c40:	00000000 	nop
b8008c44:	27bd0028 	addiu	sp,sp,40
b8008c48:	03e00008 	jr	ra
b8008c4c:	00000000 	nop

b8008c50 <swic_receiver_wait>:
b8008c50:	27bdffe0 	addiu	sp,sp,-32
b8008c54:	afbf001c 	sw	ra,28(sp)
b8008c58:	afbe0018 	sw	s8,24(sp)
b8008c5c:	03a0f021 	move	s8,sp
b8008c60:	afc40020 	sw	a0,32(s8)
b8008c64:	0e00242d 	jal	b80090b4 <get_cpu_clock>
b8008c68:	00000000 	nop
b8008c6c:	afc20010 	sw	v0,16(s8)
b8008c70:	8fc30010 	lw	v1,16(s8)
b8008c74:	00000000 	nop
b8008c78:	00601021 	move	v0,v1
b8008c7c:	00021080 	sll	v0,v0,0x2
b8008c80:	00431021 	addu	v0,v0,v1
b8008c84:	afc20010 	sw	v0,16(s8)
b8008c88:	8fc20010 	lw	v0,16(s8)
b8008c8c:	00000000 	nop
b8008c90:	40825800 	mtc0	v0,c0_compare
b8008c94:	afc00010 	sw	zero,16(s8)
b8008c98:	8fc20010 	lw	v0,16(s8)
b8008c9c:	00000000 	nop
b8008ca0:	40824800 	mtc0	v0,c0_count
b8008ca4:	2404004b 	li	a0,75
b8008ca8:	0e00258b 	jal	b800962c <risc_enable_interrupt>
b8008cac:	00000000 	nop
b8008cb0:	3c02b82f 	lui	v0,0xb82f
b8008cb4:	3442a80c 	ori	v0,v0,0xa80c
b8008cb8:	8c420000 	lw	v0,0(v0)
b8008cbc:	00000000 	nop
b8008cc0:	30420001 	andi	v0,v0,0x1
b8008cc4:	afc20014 	sw	v0,20(s8)
b8008cc8:	8fc20014 	lw	v0,20(s8)
b8008ccc:	00000000 	nop
b8008cd0:	14400003 	bnez	v0,b8008ce0 <swic_receiver_wait+0x90>
b8008cd4:	00000000 	nop
b8008cd8:	0a00233a 	j	b8008ce8 <swic_receiver_wait+0x98>
b8008cdc:	00000000 	nop
b8008ce0:	0a00232c 	j	b8008cb0 <swic_receiver_wait+0x60>
b8008ce4:	00000000 	nop
b8008ce8:	2404004b 	li	a0,75
b8008cec:	0e0027c8 	jal	b8009f20 <risc_disable_interrupt>
b8008cf0:	00000000 	nop
b8008cf4:	00001021 	move	v0,zero
b8008cf8:	03c0e821 	move	sp,s8
b8008cfc:	8fbf001c 	lw	ra,28(sp)
b8008d00:	00000000 	nop
b8008d04:	8fbe0018 	lw	s8,24(sp)
b8008d08:	00000000 	nop
b8008d0c:	27bd0020 	addiu	sp,sp,32
b8008d10:	03e00008 	jr	ra
b8008d14:	00000000 	nop

b8008d18 <swic_receiver_run>:
b8008d18:	27bdffe0 	addiu	sp,sp,-32
b8008d1c:	afbf001c 	sw	ra,28(sp)
b8008d20:	afbe0018 	sw	s8,24(sp)
b8008d24:	afb00014 	sw	s0,20(sp)
b8008d28:	03a0f021 	move	s8,sp
b8008d2c:	afc40020 	sw	a0,32(s8)
b8008d30:	afc50024 	sw	a1,36(s8)
b8008d34:	afc60028 	sw	a2,40(s8)
b8008d38:	afc7002c 	sw	a3,44(s8)
b8008d3c:	8fc20028 	lw	v0,40(s8)
	...
b8008d48:	ac400000 	sw	zero,0(v0)
b8008d4c:	8fc20028 	lw	v0,40(s8)
	...
b8008d58:	24420004 	addiu	v0,v0,4
b8008d5c:	ac400000 	sw	zero,0(v0)
b8008d60:	3c02b82f 	lui	v0,0xb82f
b8008d64:	3450a848 	ori	s0,v0,0xa848
b8008d68:	8fc20024 	lw	v0,36(s8)
	...
b8008d74:	00402021 	move	a0,v0
b8008d78:	0e0023f8 	jal	b8008fe0 <sys_kernel_va_to_pa>
b8008d7c:	00000000 	nop
b8008d80:	ae020000 	sw	v0,0(s0)
b8008d84:	3c02b82f 	lui	v0,0xb82f
b8008d88:	3442a840 	ori	v0,v0,0xa840
b8008d8c:	8fc3002c 	lw	v1,44(s8)
	...
b8008d98:	00031c00 	sll	v1,v1,0x10
b8008d9c:	ac430000 	sw	v1,0(v0)
b8008da0:	3c02b82f 	lui	v0,0xb82f
b8008da4:	3450a808 	ori	s0,v0,0xa808
b8008da8:	8fc20028 	lw	v0,40(s8)
	...
b8008db4:	00402021 	move	a0,v0
b8008db8:	0e0023f8 	jal	b8008fe0 <sys_kernel_va_to_pa>
b8008dbc:	00000000 	nop
b8008dc0:	ae020000 	sw	v0,0(s0)
b8008dc4:	3c02b82f 	lui	v0,0xb82f
b8008dc8:	3442a800 	ori	v0,v0,0xa800
b8008dcc:	24030001 	li	v1,1
b8008dd0:	ac430000 	sw	v1,0(v0)
b8008dd4:	3c02b82f 	lui	v0,0xb82f
b8008dd8:	3442a840 	ori	v0,v0,0xa840
b8008ddc:	3c03b82f 	lui	v1,0xb82f
b8008de0:	3463a840 	ori	v1,v1,0xa840
b8008de4:	8c630000 	lw	v1,0(v1)
	...
b8008df0:	34630001 	ori	v1,v1,0x1
b8008df4:	ac430000 	sw	v1,0(v0)
b8008df8:	00001021 	move	v0,zero
b8008dfc:	03c0e821 	move	sp,s8
b8008e00:	8fbf001c 	lw	ra,28(sp)
b8008e04:	00000000 	nop
b8008e08:	8fbe0018 	lw	s8,24(sp)
b8008e0c:	00000000 	nop
b8008e10:	8fb00014 	lw	s0,20(sp)
b8008e14:	00000000 	nop
b8008e18:	27bd0020 	addiu	sp,sp,32
b8008e1c:	03e00008 	jr	ra
b8008e20:	00000000 	nop

b8008e24 <swic_receive_packet>:
b8008e24:	27bdffd8 	addiu	sp,sp,-40
b8008e28:	afbf0024 	sw	ra,36(sp)
b8008e2c:	afbe0020 	sw	s8,32(sp)
b8008e30:	afb0001c 	sw	s0,28(sp)
b8008e34:	03a0f021 	move	s8,sp
b8008e38:	afc40028 	sw	a0,40(s8)
b8008e3c:	afc5002c 	sw	a1,44(s8)
b8008e40:	afc00010 	sw	zero,16(s8)
b8008e44:	afc00014 	sw	zero,20(s8)
b8008e48:	3c02b82f 	lui	v0,0xb82f
b8008e4c:	3450a808 	ori	s0,v0,0xa808
b8008e50:	27c20010 	addiu	v0,s8,16
b8008e54:	00402021 	move	a0,v0
b8008e58:	0e0023f8 	jal	b8008fe0 <sys_kernel_va_to_pa>
b8008e5c:	00000000 	nop
b8008e60:	ae020000 	sw	v0,0(s0)
b8008e64:	3c02b82f 	lui	v0,0xb82f
b8008e68:	3450a848 	ori	s0,v0,0xa848
b8008e6c:	8fc20028 	lw	v0,40(s8)
	...
b8008e78:	00402021 	move	a0,v0
b8008e7c:	0e0023f8 	jal	b8008fe0 <sys_kernel_va_to_pa>
b8008e80:	00000000 	nop
b8008e84:	ae020000 	sw	v0,0(s0)
b8008e88:	3c02b82f 	lui	v0,0xb82f
b8008e8c:	3442a800 	ori	v0,v0,0xa800
b8008e90:	24030001 	li	v1,1
b8008e94:	ac430000 	sw	v1,0(v0)
b8008e98:	3c02b82f 	lui	v0,0xb82f
b8008e9c:	3442a840 	ori	v0,v0,0xa840
b8008ea0:	3c03ffff 	lui	v1,0xffff
b8008ea4:	34630001 	ori	v1,v1,0x1
b8008ea8:	ac430000 	sw	v1,0(v0)
b8008eac:	00000000 	nop
b8008eb0:	3c02b82f 	lui	v0,0xb82f
b8008eb4:	3442a80c 	ori	v0,v0,0xa80c
b8008eb8:	8c420000 	lw	v0,0(v0)
	...
b8008ec4:	30420001 	andi	v0,v0,0x1
b8008ec8:	1440fff9 	bnez	v0,b8008eb0 <swic_receive_packet+0x8c>
b8008ecc:	00000000 	nop
b8008ed0:	8fc20010 	lw	v0,16(s8)
	...
b8008edc:	00401821 	move	v1,v0
b8008ee0:	3c020fff 	lui	v0,0xfff
b8008ee4:	3442ffff 	ori	v0,v0,0xffff
b8008ee8:	00621824 	and	v1,v1,v0
b8008eec:	8fc2002c 	lw	v0,44(s8)
	...
b8008ef8:	ac430000 	sw	v1,0(v0)
b8008efc:	8fc30010 	lw	v1,16(s8)
b8008f00:	00000000 	nop
b8008f04:	3c02f000 	lui	v0,0xf000
b8008f08:	00621824 	and	v1,v1,v0
b8008f0c:	3c02a000 	lui	v0,0xa000
b8008f10:	10620004 	beq	v1,v0,b8008f24 <swic_receive_packet+0x100>
b8008f14:	00000000 	nop
b8008f18:	24020001 	li	v0,1
b8008f1c:	0a0023ca 	j	b8008f28 <swic_receive_packet+0x104>
b8008f20:	00000000 	nop
b8008f24:	00001021 	move	v0,zero
b8008f28:	03c0e821 	move	sp,s8
b8008f2c:	8fbf0024 	lw	ra,36(sp)
b8008f30:	00000000 	nop
b8008f34:	8fbe0020 	lw	s8,32(sp)
b8008f38:	00000000 	nop
b8008f3c:	8fb0001c 	lw	s0,28(sp)
b8008f40:	00000000 	nop
b8008f44:	27bd0028 	addiu	sp,sp,40
b8008f48:	03e00008 	jr	ra
b8008f4c:	00000000 	nop

b8008f50 <sys_kernel_pa_to_va>:
b8008f50:	27bdfff8 	addiu	sp,sp,-8
b8008f54:	afbe0004 	sw	s8,4(sp)
b8008f58:	03a0f021 	move	s8,sp
b8008f5c:	afc40008 	sw	a0,8(s8)
b8008f60:	8fc30008 	lw	v1,8(s8)
b8008f64:	00000000 	nop
b8008f68:	3c024000 	lui	v0,0x4000
b8008f6c:	0062102b 	sltu	v0,v1,v0
b8008f70:	10400007 	beqz	v0,b8008f90 <sys_kernel_pa_to_va+0x40>
b8008f74:	00000000 	nop
b8008f78:	8fc30008 	lw	v1,8(s8)
b8008f7c:	00000000 	nop
b8008f80:	3c02a000 	lui	v0,0xa000
b8008f84:	00621021 	addu	v0,v1,v0
b8008f88:	0a0023f2 	j	b8008fc8 <sys_kernel_pa_to_va+0x78>
b8008f8c:	00000000 	nop
b8008f90:	8fc30008 	lw	v1,8(s8)
b8008f94:	00000000 	nop
b8008f98:	3c02c000 	lui	v0,0xc000
b8008f9c:	0062102b 	sltu	v0,v1,v0
b8008fa0:	10400007 	beqz	v0,b8008fc0 <sys_kernel_pa_to_va+0x70>
b8008fa4:	00000000 	nop
b8008fa8:	8fc30008 	lw	v1,8(s8)
b8008fac:	00000000 	nop
b8008fb0:	3c02c000 	lui	v0,0xc000
b8008fb4:	00621021 	addu	v0,v1,v0
b8008fb8:	0a0023f2 	j	b8008fc8 <sys_kernel_pa_to_va+0x78>
b8008fbc:	00000000 	nop
b8008fc0:	8fc20008 	lw	v0,8(s8)
b8008fc4:	00000000 	nop
b8008fc8:	03c0e821 	move	sp,s8
b8008fcc:	8fbe0004 	lw	s8,4(sp)
b8008fd0:	00000000 	nop
b8008fd4:	27bd0008 	addiu	sp,sp,8
b8008fd8:	03e00008 	jr	ra
b8008fdc:	00000000 	nop

b8008fe0 <sys_kernel_va_to_pa>:
b8008fe0:	27bdffe8 	addiu	sp,sp,-24
b8008fe4:	afbf0014 	sw	ra,20(sp)
b8008fe8:	afbe0010 	sw	s8,16(sp)
b8008fec:	03a0f021 	move	s8,sp
b8008ff0:	afc40018 	sw	a0,24(s8)
b8008ff4:	8fc30018 	lw	v1,24(s8)
b8008ff8:	00000000 	nop
b8008ffc:	3c02e000 	lui	v0,0xe000
b8009000:	0062102b 	sltu	v0,v1,v0
b8009004:	14400005 	bnez	v0,b800901c <sys_kernel_va_to_pa+0x3c>
b8009008:	00000000 	nop
b800900c:	8fc20018 	lw	v0,24(s8)
b8009010:	00000000 	nop
b8009014:	0a002425 	j	b8009094 <sys_kernel_va_to_pa+0xb4>
b8009018:	00000000 	nop
b800901c:	8fc30018 	lw	v1,24(s8)
b8009020:	00000000 	nop
b8009024:	3c02a000 	lui	v0,0xa000
b8009028:	0062102b 	sltu	v0,v1,v0
b800902c:	14400007 	bnez	v0,b800904c <sys_kernel_va_to_pa+0x6c>
b8009030:	00000000 	nop
b8009034:	8fc30018 	lw	v1,24(s8)
b8009038:	00000000 	nop
b800903c:	3c026000 	lui	v0,0x6000
b8009040:	00621021 	addu	v0,v1,v0
b8009044:	0a002425 	j	b8009094 <sys_kernel_va_to_pa+0xb4>
b8009048:	00000000 	nop
b800904c:	8fc20018 	lw	v0,24(s8)
	...
b8009058:	04400007 	bltz	v0,b8009078 <sys_kernel_va_to_pa+0x98>
b800905c:	00000000 	nop
b8009060:	8fc30018 	lw	v1,24(s8)
b8009064:	00000000 	nop
b8009068:	3c024000 	lui	v0,0x4000
b800906c:	00621021 	addu	v0,v1,v0
b8009070:	0a002425 	j	b8009094 <sys_kernel_va_to_pa+0xb4>
b8009074:	00000000 	nop
b8009078:	8fc30018 	lw	v1,24(s8)
b800907c:	00000000 	nop
b8009080:	3c022000 	lui	v0,0x2000
b8009084:	00621025 	or	v0,v1,v0
b8009088:	00402021 	move	a0,v0
b800908c:	0e0023f8 	jal	b8008fe0 <sys_kernel_va_to_pa>
b8009090:	00000000 	nop
b8009094:	03c0e821 	move	sp,s8
b8009098:	8fbf0014 	lw	ra,20(sp)
b800909c:	00000000 	nop
b80090a0:	8fbe0010 	lw	s8,16(sp)
b80090a4:	00000000 	nop
b80090a8:	27bd0018 	addiu	sp,sp,24
b80090ac:	03e00008 	jr	ra
b80090b0:	00000000 	nop

b80090b4 <get_cpu_clock>:
b80090b4:	27bdfff8 	addiu	sp,sp,-8
b80090b8:	afbe0004 	sw	s8,4(sp)
b80090bc:	03a0f021 	move	s8,sp
b80090c0:	3c02b82f 	lui	v0,0xb82f
b80090c4:	34424000 	ori	v0,v0,0x4000
b80090c8:	8c420000 	lw	v0,0(v0)
	...
b80090d4:	30420080 	andi	v0,v0,0x80
b80090d8:	1040000c 	beqz	v0,b800910c <get_cpu_clock+0x58>
b80090dc:	00000000 	nop
b80090e0:	3c02b82f 	lui	v0,0xb82f
b80090e4:	34424000 	ori	v0,v0,0x4000
b80090e8:	8c420000 	lw	v0,0(v0)
	...
b80090f4:	3043007f 	andi	v1,v0,0x7f
b80090f8:	3c02004c 	lui	v0,0x4c
b80090fc:	34424b40 	ori	v0,v0,0x4b40
b8009100:	70621002 	mul	v0,v1,v0
b8009104:	0a002445 	j	b8009114 <get_cpu_clock+0x60>
b8009108:	00000000 	nop
b800910c:	3c02004c 	lui	v0,0x4c
b8009110:	34424b40 	ori	v0,v0,0x4b40
b8009114:	03c0e821 	move	sp,s8
b8009118:	8fbe0004 	lw	s8,4(sp)
b800911c:	00000000 	nop
b8009120:	27bd0008 	addiu	sp,sp,8
b8009124:	03e00008 	jr	ra
b8009128:	00000000 	nop

b800912c <get_dsp_clock>:
b800912c:	27bdfff8 	addiu	sp,sp,-8
b8009130:	afbe0004 	sw	s8,4(sp)
b8009134:	03a0f021 	move	s8,sp
b8009138:	3c02b82f 	lui	v0,0xb82f
b800913c:	34424000 	ori	v0,v0,0x4000
b8009140:	8c420000 	lw	v0,0(v0)
	...
b800914c:	30420001 	andi	v0,v0,0x1
b8009150:	1040000d 	beqz	v0,b8009188 <get_dsp_clock+0x5c>
b8009154:	00000000 	nop
b8009158:	3c02b82f 	lui	v0,0xb82f
b800915c:	34424000 	ori	v0,v0,0x4000
b8009160:	8c430000 	lw	v1,0(v0)
b8009164:	00000000 	nop
b8009168:	3c02007f 	lui	v0,0x7f
b800916c:	00621024 	and	v0,v1,v0
b8009170:	00021c03 	sra	v1,v0,0x10
b8009174:	3c02004c 	lui	v0,0x4c
b8009178:	34424b40 	ori	v0,v0,0x4b40
b800917c:	70621002 	mul	v0,v1,v0
b8009180:	0a002464 	j	b8009190 <get_dsp_clock+0x64>
b8009184:	00000000 	nop
b8009188:	3c02004c 	lui	v0,0x4c
b800918c:	34424b40 	ori	v0,v0,0x4b40
b8009190:	03c0e821 	move	sp,s8
b8009194:	8fbe0004 	lw	s8,4(sp)
b8009198:	00000000 	nop
b800919c:	27bd0008 	addiu	sp,sp,8
b80091a0:	03e00008 	jr	ra
b80091a4:	00000000 	nop

b80091a8 <initialize_risc_hnlr>:
b80091a8:	27bdfff0 	addiu	sp,sp,-16
b80091ac:	afbe000c 	sw	s8,12(sp)
b80091b0:	03a0f021 	move	s8,sp
b80091b4:	afc00000 	sw	zero,0(s8)
b80091b8:	0a00247e 	j	b80091f8 <initialize_risc_hnlr+0x50>
b80091bc:	00000000 	nop
b80091c0:	3c02b801 	lui	v0,0xb801
b80091c4:	8fc30000 	lw	v1,0(s8)
	...
b80091d0:	00031880 	sll	v1,v1,0x2
b80091d4:	2442cd38 	addiu	v0,v0,-13000
b80091d8:	00621021 	addu	v0,v1,v0
b80091dc:	2403ffff 	li	v1,-1
b80091e0:	ac430000 	sw	v1,0(v0)
b80091e4:	8fc20000 	lw	v0,0(s8)
	...
b80091f0:	24420001 	addiu	v0,v0,1
b80091f4:	afc20000 	sw	v0,0(s8)
b80091f8:	8fc20000 	lw	v0,0(s8)
	...
b8009204:	28420059 	slti	v0,v0,89
b8009208:	1440ffed 	bnez	v0,b80091c0 <initialize_risc_hnlr+0x18>
b800920c:	00000000 	nop
b8009210:	03c0e821 	move	sp,s8
b8009214:	8fbe000c 	lw	s8,12(sp)
b8009218:	00000000 	nop
b800921c:	27bd0010 	addiu	sp,sp,16
b8009220:	03e00008 	jr	ra
b8009224:	00000000 	nop

b8009228 <risc_set_interrupts_vector>:
b8009228:	27bdfff0 	addiu	sp,sp,-16
b800922c:	afbe000c 	sw	s8,12(sp)
b8009230:	03a0f021 	move	s8,sp
b8009234:	afc40010 	sw	a0,16(s8)
b8009238:	afc00000 	sw	zero,0(s8)
b800923c:	40026000 	mfc0	v0,c0_status
b8009240:	afc20000 	sw	v0,0(s8)
b8009244:	8fc30000 	lw	v1,0(s8)
b8009248:	00000000 	nop
b800924c:	2402fffb 	li	v0,-5
b8009250:	00621024 	and	v0,v1,v0
b8009254:	afc20000 	sw	v0,0(s8)
b8009258:	8fc20000 	lw	v0,0(s8)
b800925c:	00000000 	nop
b8009260:	40826000 	mtc0	v0,c0_status
b8009264:	8fc20010 	lw	v0,16(s8)
b8009268:	00000000 	nop
b800926c:	24030001 	li	v1,1
b8009270:	1043001d 	beq	v0,v1,b80092e8 <risc_set_interrupts_vector+0xc0>
b8009274:	00000000 	nop
b8009278:	2c430001 	sltiu	v1,v0,1
b800927c:	14600009 	bnez	v1,b80092a4 <risc_set_interrupts_vector+0x7c>
b8009280:	00000000 	nop
b8009284:	24030002 	li	v1,2
b8009288:	10430027 	beq	v0,v1,b8009328 <risc_set_interrupts_vector+0x100>
b800928c:	00000000 	nop
b8009290:	24030003 	li	v1,3
b8009294:	10430037 	beq	v0,v1,b8009374 <risc_set_interrupts_vector+0x14c>
b8009298:	00000000 	nop
b800929c:	0a0024ee 	j	b80093b8 <risc_set_interrupts_vector+0x190>
b80092a0:	00000000 	nop
b80092a4:	afc00000 	sw	zero,0(s8)
b80092a8:	8fc20000 	lw	v0,0(s8)
b80092ac:	00000000 	nop
b80092b0:	40826800 	mtc0	v0,c0_cause
b80092b4:	40026000 	mfc0	v0,c0_status
b80092b8:	afc20000 	sw	v0,0(s8)
b80092bc:	8fc30000 	lw	v1,0(s8)
b80092c0:	00000000 	nop
b80092c4:	3c02ffbf 	lui	v0,0xffbf
b80092c8:	3442ffff 	ori	v0,v0,0xffff
b80092cc:	00621024 	and	v0,v1,v0
b80092d0:	afc20000 	sw	v0,0(s8)
b80092d4:	8fc20000 	lw	v0,0(s8)
b80092d8:	00000000 	nop
b80092dc:	40826000 	mtc0	v0,c0_status
b80092e0:	0a0024ee 	j	b80093b8 <risc_set_interrupts_vector+0x190>
b80092e4:	00000000 	nop
b80092e8:	afc00000 	sw	zero,0(s8)
b80092ec:	8fc20000 	lw	v0,0(s8)
b80092f0:	00000000 	nop
b80092f4:	40826800 	mtc0	v0,c0_cause
b80092f8:	40026000 	mfc0	v0,c0_status
b80092fc:	afc20000 	sw	v0,0(s8)
b8009300:	8fc30000 	lw	v1,0(s8)
b8009304:	00000000 	nop
b8009308:	3c020040 	lui	v0,0x40
b800930c:	00621025 	or	v0,v1,v0
b8009310:	afc20000 	sw	v0,0(s8)
b8009314:	8fc20000 	lw	v0,0(s8)
b8009318:	00000000 	nop
b800931c:	40826000 	mtc0	v0,c0_status
b8009320:	0a0024ee 	j	b80093b8 <risc_set_interrupts_vector+0x190>
b8009324:	00000000 	nop
b8009328:	3c020080 	lui	v0,0x80
b800932c:	afc20000 	sw	v0,0(s8)
b8009330:	8fc20000 	lw	v0,0(s8)
b8009334:	00000000 	nop
b8009338:	40826800 	mtc0	v0,c0_cause
b800933c:	afc00000 	sw	zero,0(s8)
b8009340:	40026000 	mfc0	v0,c0_status
b8009344:	afc20000 	sw	v0,0(s8)
b8009348:	8fc30000 	lw	v1,0(s8)
b800934c:	00000000 	nop
b8009350:	3c02ffbf 	lui	v0,0xffbf
b8009354:	3442ffff 	ori	v0,v0,0xffff
b8009358:	00621024 	and	v0,v1,v0
b800935c:	afc20000 	sw	v0,0(s8)
b8009360:	8fc20000 	lw	v0,0(s8)
b8009364:	00000000 	nop
b8009368:	40826000 	mtc0	v0,c0_status
b800936c:	0a0024ee 	j	b80093b8 <risc_set_interrupts_vector+0x190>
b8009370:	00000000 	nop
b8009374:	3c020080 	lui	v0,0x80
b8009378:	afc20000 	sw	v0,0(s8)
b800937c:	8fc20000 	lw	v0,0(s8)
b8009380:	00000000 	nop
b8009384:	40826800 	mtc0	v0,c0_cause
b8009388:	afc00000 	sw	zero,0(s8)
b800938c:	40026000 	mfc0	v0,c0_status
b8009390:	afc20000 	sw	v0,0(s8)
b8009394:	8fc30000 	lw	v1,0(s8)
b8009398:	00000000 	nop
b800939c:	3c020040 	lui	v0,0x40
b80093a0:	00621025 	or	v0,v1,v0
b80093a4:	afc20000 	sw	v0,0(s8)
b80093a8:	8fc20000 	lw	v0,0(s8)
b80093ac:	00000000 	nop
b80093b0:	40826000 	mtc0	v0,c0_status
b80093b4:	00000000 	nop
b80093b8:	03c0e821 	move	sp,s8
b80093bc:	8fbe000c 	lw	s8,12(sp)
b80093c0:	00000000 	nop
b80093c4:	27bd0010 	addiu	sp,sp,16
b80093c8:	03e00008 	jr	ra
b80093cc:	00000000 	nop

b80093d0 <or_MASKR>:
b80093d0:	27bdfff0 	addiu	sp,sp,-16
b80093d4:	afbe000c 	sw	s8,12(sp)
b80093d8:	03a0f021 	move	s8,sp
b80093dc:	afc40010 	sw	a0,16(s8)
b80093e0:	afc50014 	sw	a1,20(s8)
b80093e4:	afc60018 	sw	a2,24(s8)
b80093e8:	afc00000 	sw	zero,0(s8)
b80093ec:	afc00004 	sw	zero,4(s8)
b80093f0:	8fc20010 	lw	v0,16(s8)
b80093f4:	00000000 	nop
b80093f8:	afc20000 	sw	v0,0(s8)
b80093fc:	40026000 	mfc0	v0,c0_status
b8009400:	afc20004 	sw	v0,4(s8)
b8009404:	8fc30000 	lw	v1,0(s8)
b8009408:	00000000 	nop
b800940c:	8fc20004 	lw	v0,4(s8)
b8009410:	00000000 	nop
b8009414:	00621025 	or	v0,v1,v0
b8009418:	afc20000 	sw	v0,0(s8)
b800941c:	8fc20000 	lw	v0,0(s8)
b8009420:	00000000 	nop
b8009424:	40826000 	mtc0	v0,c0_status
b8009428:	8fc20018 	lw	v0,24(s8)
b800942c:	00000000 	nop
b8009430:	1440000e 	bnez	v0,b800946c <or_MASKR+0x9c>
b8009434:	00000000 	nop
b8009438:	3c02b82f 	lui	v0,0xb82f
b800943c:	34424010 	ori	v0,v0,0x4010
b8009440:	3c03b82f 	lui	v1,0xb82f
b8009444:	34634010 	ori	v1,v1,0x4010
b8009448:	8c630000 	lw	v1,0(v1)
b800944c:	00000000 	nop
b8009450:	00602021 	move	a0,v1
b8009454:	8fc30014 	lw	v1,20(s8)
b8009458:	00000000 	nop
b800945c:	00831825 	or	v1,a0,v1
b8009460:	ac430000 	sw	v1,0(v0)
b8009464:	0a00253d 	j	b80094f4 <or_MASKR+0x124>
b8009468:	00000000 	nop
b800946c:	8fc30018 	lw	v1,24(s8)
b8009470:	00000000 	nop
b8009474:	24020001 	li	v0,1
b8009478:	1462000e 	bne	v1,v0,b80094b4 <or_MASKR+0xe4>
b800947c:	00000000 	nop
b8009480:	3c02b82f 	lui	v0,0xb82f
b8009484:	34424018 	ori	v0,v0,0x4018
b8009488:	3c03b82f 	lui	v1,0xb82f
b800948c:	34634018 	ori	v1,v1,0x4018
b8009490:	8c630000 	lw	v1,0(v1)
b8009494:	00000000 	nop
b8009498:	00602021 	move	a0,v1
b800949c:	8fc30014 	lw	v1,20(s8)
b80094a0:	00000000 	nop
b80094a4:	00831825 	or	v1,a0,v1
b80094a8:	ac430000 	sw	v1,0(v0)
b80094ac:	0a00253d 	j	b80094f4 <or_MASKR+0x124>
b80094b0:	00000000 	nop
b80094b4:	8fc30018 	lw	v1,24(s8)
b80094b8:	00000000 	nop
b80094bc:	24020002 	li	v0,2
b80094c0:	1462000c 	bne	v1,v0,b80094f4 <or_MASKR+0x124>
b80094c4:	00000000 	nop
b80094c8:	3c02b82f 	lui	v0,0xb82f
b80094cc:	34424020 	ori	v0,v0,0x4020
b80094d0:	3c03b82f 	lui	v1,0xb82f
b80094d4:	34634020 	ori	v1,v1,0x4020
b80094d8:	8c630000 	lw	v1,0(v1)
b80094dc:	00000000 	nop
b80094e0:	00602021 	move	a0,v1
b80094e4:	8fc30014 	lw	v1,20(s8)
b80094e8:	00000000 	nop
b80094ec:	00831825 	or	v1,a0,v1
b80094f0:	ac430000 	sw	v1,0(v0)
b80094f4:	03c0e821 	move	sp,s8
b80094f8:	8fbe000c 	lw	s8,12(sp)
b80094fc:	00000000 	nop
b8009500:	27bd0010 	addiu	sp,sp,16
b8009504:	03e00008 	jr	ra
b8009508:	00000000 	nop

b800950c <andnot_MASKR>:
b800950c:	27bdfff8 	addiu	sp,sp,-8
b8009510:	afbe0004 	sw	s8,4(sp)
b8009514:	03a0f021 	move	s8,sp
b8009518:	afc40008 	sw	a0,8(s8)
b800951c:	afc5000c 	sw	a1,12(s8)
b8009520:	8fc2000c 	lw	v0,12(s8)
	...
b800952c:	14400011 	bnez	v0,b8009574 <andnot_MASKR+0x68>
b8009530:	00000000 	nop
b8009534:	3c02b82f 	lui	v0,0xb82f
b8009538:	34424010 	ori	v0,v0,0x4010
b800953c:	3c03b82f 	lui	v1,0xb82f
b8009540:	34634010 	ori	v1,v1,0x4010
b8009544:	8c630000 	lw	v1,0(v1)
	...
b8009550:	00602021 	move	a0,v1
b8009554:	8fc30008 	lw	v1,8(s8)
	...
b8009560:	00031827 	nor	v1,zero,v1
b8009564:	00831824 	and	v1,a0,v1
b8009568:	ac430000 	sw	v1,0(v0)
b800956c:	0a002585 	j	b8009614 <andnot_MASKR+0x108>
b8009570:	00000000 	nop
b8009574:	8fc3000c 	lw	v1,12(s8)
b8009578:	00000000 	nop
b800957c:	24020001 	li	v0,1
b8009580:	14620011 	bne	v1,v0,b80095c8 <andnot_MASKR+0xbc>
b8009584:	00000000 	nop
b8009588:	3c02b82f 	lui	v0,0xb82f
b800958c:	34424018 	ori	v0,v0,0x4018
b8009590:	3c03b82f 	lui	v1,0xb82f
b8009594:	34634018 	ori	v1,v1,0x4018
b8009598:	8c630000 	lw	v1,0(v1)
	...
b80095a4:	00602021 	move	a0,v1
b80095a8:	8fc30008 	lw	v1,8(s8)
	...
b80095b4:	00031827 	nor	v1,zero,v1
b80095b8:	00831824 	and	v1,a0,v1
b80095bc:	ac430000 	sw	v1,0(v0)
b80095c0:	0a002585 	j	b8009614 <andnot_MASKR+0x108>
b80095c4:	00000000 	nop
b80095c8:	8fc3000c 	lw	v1,12(s8)
b80095cc:	00000000 	nop
b80095d0:	24020002 	li	v0,2
b80095d4:	1462000f 	bne	v1,v0,b8009614 <andnot_MASKR+0x108>
b80095d8:	00000000 	nop
b80095dc:	3c02b82f 	lui	v0,0xb82f
b80095e0:	34424020 	ori	v0,v0,0x4020
b80095e4:	3c03b82f 	lui	v1,0xb82f
b80095e8:	34634020 	ori	v1,v1,0x4020
b80095ec:	8c630000 	lw	v1,0(v1)
	...
b80095f8:	00602021 	move	a0,v1
b80095fc:	8fc30008 	lw	v1,8(s8)
	...
b8009608:	00031827 	nor	v1,zero,v1
b800960c:	00831824 	and	v1,a0,v1
b8009610:	ac430000 	sw	v1,0(v0)
b8009614:	03c0e821 	move	sp,s8
b8009618:	8fbe0004 	lw	s8,4(sp)
b800961c:	00000000 	nop
b8009620:	27bd0008 	addiu	sp,sp,8
b8009624:	03e00008 	jr	ra
b8009628:	00000000 	nop

b800962c <risc_enable_interrupt>:
b800962c:	27bdffe0 	addiu	sp,sp,-32
b8009630:	afbf001c 	sw	ra,28(sp)
b8009634:	afbe0018 	sw	s8,24(sp)
b8009638:	03a0f021 	move	s8,sp
b800963c:	afc40020 	sw	a0,32(s8)
b8009640:	afc00010 	sw	zero,16(s8)
b8009644:	40026000 	mfc0	v0,c0_status
b8009648:	afc20010 	sw	v0,16(s8)
b800964c:	8fc20020 	lw	v0,32(s8)
b8009650:	00000000 	nop
b8009654:	2c42004c 	sltiu	v0,v0,76
b8009658:	10400229 	beqz	v0,b8009f00 <risc_enable_interrupt+0x8d4>
b800965c:	00000000 	nop
b8009660:	8fc20020 	lw	v0,32(s8)
b8009664:	00000000 	nop
b8009668:	00021880 	sll	v1,v0,0x2
b800966c:	3c02b801 	lui	v0,0xb801
b8009670:	2442d608 	addiu	v0,v0,-10744
b8009674:	00621021 	addu	v0,v1,v0
b8009678:	8c420000 	lw	v0,0(v0)
b800967c:	00000000 	nop
b8009680:	00400008 	jr	v0
b8009684:	00000000 	nop
b8009688:	24040401 	li	a0,1025
b800968c:	3c058000 	lui	a1,0x8000
b8009690:	00003021 	move	a2,zero
b8009694:	0e0024f4 	jal	b80093d0 <or_MASKR>
b8009698:	00000000 	nop
b800969c:	0a0027c0 	j	b8009f00 <risc_enable_interrupt+0x8d4>
b80096a0:	00000000 	nop
b80096a4:	24040401 	li	a0,1025
b80096a8:	3c054000 	lui	a1,0x4000
b80096ac:	00003021 	move	a2,zero
b80096b0:	0e0024f4 	jal	b80093d0 <or_MASKR>
b80096b4:	00000000 	nop
b80096b8:	0a0027c0 	j	b8009f00 <risc_enable_interrupt+0x8d4>
b80096bc:	00000000 	nop
b80096c0:	24040401 	li	a0,1025
b80096c4:	3c052000 	lui	a1,0x2000
b80096c8:	00003021 	move	a2,zero
b80096cc:	0e0024f4 	jal	b80093d0 <or_MASKR>
b80096d0:	00000000 	nop
b80096d4:	0a0027c0 	j	b8009f00 <risc_enable_interrupt+0x8d4>
b80096d8:	00000000 	nop
b80096dc:	24040401 	li	a0,1025
b80096e0:	3c051000 	lui	a1,0x1000
b80096e4:	00003021 	move	a2,zero
b80096e8:	0e0024f4 	jal	b80093d0 <or_MASKR>
b80096ec:	00000000 	nop
b80096f0:	0a0027c0 	j	b8009f00 <risc_enable_interrupt+0x8d4>
b80096f4:	00000000 	nop
b80096f8:	24040401 	li	a0,1025
b80096fc:	3c050800 	lui	a1,0x800
b8009700:	00003021 	move	a2,zero
b8009704:	0e0024f4 	jal	b80093d0 <or_MASKR>
b8009708:	00000000 	nop
b800970c:	0a0027c0 	j	b8009f00 <risc_enable_interrupt+0x8d4>
b8009710:	00000000 	nop
b8009714:	24040401 	li	a0,1025
b8009718:	3c050400 	lui	a1,0x400
b800971c:	00003021 	move	a2,zero
b8009720:	0e0024f4 	jal	b80093d0 <or_MASKR>
b8009724:	00000000 	nop
b8009728:	0a0027c0 	j	b8009f00 <risc_enable_interrupt+0x8d4>
b800972c:	00000000 	nop
b8009730:	24040401 	li	a0,1025
b8009734:	3c050200 	lui	a1,0x200
b8009738:	00003021 	move	a2,zero
b800973c:	0e0024f4 	jal	b80093d0 <or_MASKR>
b8009740:	00000000 	nop
b8009744:	0a0027c0 	j	b8009f00 <risc_enable_interrupt+0x8d4>
b8009748:	00000000 	nop
b800974c:	24040401 	li	a0,1025
b8009750:	3c050100 	lui	a1,0x100
b8009754:	00003021 	move	a2,zero
b8009758:	0e0024f4 	jal	b80093d0 <or_MASKR>
b800975c:	00000000 	nop
b8009760:	0a0027c0 	j	b8009f00 <risc_enable_interrupt+0x8d4>
b8009764:	00000000 	nop
b8009768:	24040401 	li	a0,1025
b800976c:	3c050040 	lui	a1,0x40
b8009770:	00003021 	move	a2,zero
b8009774:	0e0024f4 	jal	b80093d0 <or_MASKR>
b8009778:	00000000 	nop
b800977c:	0a0027c0 	j	b8009f00 <risc_enable_interrupt+0x8d4>
b8009780:	00000000 	nop
b8009784:	24040401 	li	a0,1025
b8009788:	3c050020 	lui	a1,0x20
b800978c:	00003021 	move	a2,zero
b8009790:	0e0024f4 	jal	b80093d0 <or_MASKR>
b8009794:	00000000 	nop
b8009798:	0a0027c0 	j	b8009f00 <risc_enable_interrupt+0x8d4>
b800979c:	00000000 	nop
b80097a0:	24040401 	li	a0,1025
b80097a4:	3c050010 	lui	a1,0x10
b80097a8:	00003021 	move	a2,zero
b80097ac:	0e0024f4 	jal	b80093d0 <or_MASKR>
b80097b0:	00000000 	nop
b80097b4:	0a0027c0 	j	b8009f00 <risc_enable_interrupt+0x8d4>
b80097b8:	00000000 	nop
b80097bc:	24040401 	li	a0,1025
b80097c0:	3c050008 	lui	a1,0x8
b80097c4:	00003021 	move	a2,zero
b80097c8:	0e0024f4 	jal	b80093d0 <or_MASKR>
b80097cc:	00000000 	nop
b80097d0:	0a0027c0 	j	b8009f00 <risc_enable_interrupt+0x8d4>
b80097d4:	00000000 	nop
b80097d8:	24040401 	li	a0,1025
b80097dc:	3c050004 	lui	a1,0x4
b80097e0:	00003021 	move	a2,zero
b80097e4:	0e0024f4 	jal	b80093d0 <or_MASKR>
b80097e8:	00000000 	nop
b80097ec:	0a0027c0 	j	b8009f00 <risc_enable_interrupt+0x8d4>
b80097f0:	00000000 	nop
b80097f4:	24040401 	li	a0,1025
b80097f8:	3c050002 	lui	a1,0x2
b80097fc:	00003021 	move	a2,zero
b8009800:	0e0024f4 	jal	b80093d0 <or_MASKR>
b8009804:	00000000 	nop
b8009808:	0a0027c0 	j	b8009f00 <risc_enable_interrupt+0x8d4>
b800980c:	00000000 	nop
b8009810:	24040401 	li	a0,1025
b8009814:	3c050001 	lui	a1,0x1
b8009818:	00003021 	move	a2,zero
b800981c:	0e0024f4 	jal	b80093d0 <or_MASKR>
b8009820:	00000000 	nop
b8009824:	0a0027c0 	j	b8009f00 <risc_enable_interrupt+0x8d4>
b8009828:	00000000 	nop
b800982c:	24040401 	li	a0,1025
b8009830:	34058000 	li	a1,0x8000
b8009834:	00003021 	move	a2,zero
b8009838:	0e0024f4 	jal	b80093d0 <or_MASKR>
b800983c:	00000000 	nop
b8009840:	0a0027c0 	j	b8009f00 <risc_enable_interrupt+0x8d4>
b8009844:	00000000 	nop
b8009848:	24040401 	li	a0,1025
b800984c:	24054000 	li	a1,16384
b8009850:	00003021 	move	a2,zero
b8009854:	0e0024f4 	jal	b80093d0 <or_MASKR>
b8009858:	00000000 	nop
b800985c:	0a0027c0 	j	b8009f00 <risc_enable_interrupt+0x8d4>
b8009860:	00000000 	nop
b8009864:	24040401 	li	a0,1025
b8009868:	24052000 	li	a1,8192
b800986c:	00003021 	move	a2,zero
b8009870:	0e0024f4 	jal	b80093d0 <or_MASKR>
b8009874:	00000000 	nop
b8009878:	0a0027c0 	j	b8009f00 <risc_enable_interrupt+0x8d4>
b800987c:	00000000 	nop
b8009880:	24040401 	li	a0,1025
b8009884:	24051000 	li	a1,4096
b8009888:	00003021 	move	a2,zero
b800988c:	0e0024f4 	jal	b80093d0 <or_MASKR>
b8009890:	00000000 	nop
b8009894:	0a0027c0 	j	b8009f00 <risc_enable_interrupt+0x8d4>
b8009898:	00000000 	nop
b800989c:	24040401 	li	a0,1025
b80098a0:	24050800 	li	a1,2048
b80098a4:	00003021 	move	a2,zero
b80098a8:	0e0024f4 	jal	b80093d0 <or_MASKR>
b80098ac:	00000000 	nop
b80098b0:	0a0027c0 	j	b8009f00 <risc_enable_interrupt+0x8d4>
b80098b4:	00000000 	nop
b80098b8:	24040401 	li	a0,1025
b80098bc:	24050400 	li	a1,1024
b80098c0:	00003021 	move	a2,zero
b80098c4:	0e0024f4 	jal	b80093d0 <or_MASKR>
b80098c8:	00000000 	nop
b80098cc:	0a0027c0 	j	b8009f00 <risc_enable_interrupt+0x8d4>
b80098d0:	00000000 	nop
b80098d4:	24040401 	li	a0,1025
b80098d8:	24050200 	li	a1,512
b80098dc:	00003021 	move	a2,zero
b80098e0:	0e0024f4 	jal	b80093d0 <or_MASKR>
b80098e4:	00000000 	nop
b80098e8:	0a0027c0 	j	b8009f00 <risc_enable_interrupt+0x8d4>
b80098ec:	00000000 	nop
b80098f0:	24040401 	li	a0,1025
b80098f4:	24050100 	li	a1,256
b80098f8:	00003021 	move	a2,zero
b80098fc:	0e0024f4 	jal	b80093d0 <or_MASKR>
b8009900:	00000000 	nop
b8009904:	0a0027c0 	j	b8009f00 <risc_enable_interrupt+0x8d4>
b8009908:	00000000 	nop
b800990c:	24040401 	li	a0,1025
b8009910:	24050080 	li	a1,128
b8009914:	00003021 	move	a2,zero
b8009918:	0e0024f4 	jal	b80093d0 <or_MASKR>
b800991c:	00000000 	nop
b8009920:	0a0027c0 	j	b8009f00 <risc_enable_interrupt+0x8d4>
b8009924:	00000000 	nop
b8009928:	24040401 	li	a0,1025
b800992c:	24050040 	li	a1,64
b8009930:	00003021 	move	a2,zero
b8009934:	0e0024f4 	jal	b80093d0 <or_MASKR>
b8009938:	00000000 	nop
b800993c:	0a0027c0 	j	b8009f00 <risc_enable_interrupt+0x8d4>
b8009940:	00000000 	nop
b8009944:	24040401 	li	a0,1025
b8009948:	24050020 	li	a1,32
b800994c:	00003021 	move	a2,zero
b8009950:	0e0024f4 	jal	b80093d0 <or_MASKR>
b8009954:	00000000 	nop
b8009958:	0a0027c0 	j	b8009f00 <risc_enable_interrupt+0x8d4>
b800995c:	00000000 	nop
b8009960:	24040401 	li	a0,1025
b8009964:	24050010 	li	a1,16
b8009968:	00003021 	move	a2,zero
b800996c:	0e0024f4 	jal	b80093d0 <or_MASKR>
b8009970:	00000000 	nop
b8009974:	0a0027c0 	j	b8009f00 <risc_enable_interrupt+0x8d4>
b8009978:	00000000 	nop
b800997c:	24040401 	li	a0,1025
b8009980:	24050008 	li	a1,8
b8009984:	00003021 	move	a2,zero
b8009988:	0e0024f4 	jal	b80093d0 <or_MASKR>
b800998c:	00000000 	nop
b8009990:	0a0027c0 	j	b8009f00 <risc_enable_interrupt+0x8d4>
b8009994:	00000000 	nop
b8009998:	24040401 	li	a0,1025
b800999c:	24050004 	li	a1,4
b80099a0:	00003021 	move	a2,zero
b80099a4:	0e0024f4 	jal	b80093d0 <or_MASKR>
b80099a8:	00000000 	nop
b80099ac:	0a0027c0 	j	b8009f00 <risc_enable_interrupt+0x8d4>
b80099b0:	00000000 	nop
b80099b4:	24040401 	li	a0,1025
b80099b8:	24050002 	li	a1,2
b80099bc:	00003021 	move	a2,zero
b80099c0:	0e0024f4 	jal	b80093d0 <or_MASKR>
b80099c4:	00000000 	nop
b80099c8:	0a0027c0 	j	b8009f00 <risc_enable_interrupt+0x8d4>
b80099cc:	00000000 	nop
b80099d0:	24040401 	li	a0,1025
b80099d4:	24050001 	li	a1,1
b80099d8:	00003021 	move	a2,zero
b80099dc:	0e0024f4 	jal	b80093d0 <or_MASKR>
b80099e0:	00000000 	nop
b80099e4:	0a0027c0 	j	b8009f00 <risc_enable_interrupt+0x8d4>
b80099e8:	00000000 	nop
b80099ec:	24040801 	li	a0,2049
b80099f0:	3c050200 	lui	a1,0x200
b80099f4:	24060001 	li	a2,1
b80099f8:	0e0024f4 	jal	b80093d0 <or_MASKR>
b80099fc:	00000000 	nop
b8009a00:	0a0027c0 	j	b8009f00 <risc_enable_interrupt+0x8d4>
b8009a04:	00000000 	nop
b8009a08:	24040801 	li	a0,2049
b8009a0c:	3c050100 	lui	a1,0x100
b8009a10:	24060001 	li	a2,1
b8009a14:	0e0024f4 	jal	b80093d0 <or_MASKR>
b8009a18:	00000000 	nop
b8009a1c:	0a0027c0 	j	b8009f00 <risc_enable_interrupt+0x8d4>
b8009a20:	00000000 	nop
b8009a24:	24040801 	li	a0,2049
b8009a28:	3c050080 	lui	a1,0x80
b8009a2c:	24060001 	li	a2,1
b8009a30:	0e0024f4 	jal	b80093d0 <or_MASKR>
b8009a34:	00000000 	nop
b8009a38:	0a0027c0 	j	b8009f00 <risc_enable_interrupt+0x8d4>
b8009a3c:	00000000 	nop
b8009a40:	24040801 	li	a0,2049
b8009a44:	3c050040 	lui	a1,0x40
b8009a48:	24060001 	li	a2,1
b8009a4c:	0e0024f4 	jal	b80093d0 <or_MASKR>
b8009a50:	00000000 	nop
b8009a54:	0a0027c0 	j	b8009f00 <risc_enable_interrupt+0x8d4>
b8009a58:	00000000 	nop
b8009a5c:	24040801 	li	a0,2049
b8009a60:	3c050020 	lui	a1,0x20
b8009a64:	24060001 	li	a2,1
b8009a68:	0e0024f4 	jal	b80093d0 <or_MASKR>
b8009a6c:	00000000 	nop
b8009a70:	0a0027c0 	j	b8009f00 <risc_enable_interrupt+0x8d4>
b8009a74:	00000000 	nop
b8009a78:	24040801 	li	a0,2049
b8009a7c:	3c050010 	lui	a1,0x10
b8009a80:	24060001 	li	a2,1
b8009a84:	0e0024f4 	jal	b80093d0 <or_MASKR>
b8009a88:	00000000 	nop
b8009a8c:	0a0027c0 	j	b8009f00 <risc_enable_interrupt+0x8d4>
b8009a90:	00000000 	nop
b8009a94:	24040801 	li	a0,2049
b8009a98:	3c050008 	lui	a1,0x8
b8009a9c:	24060001 	li	a2,1
b8009aa0:	0e0024f4 	jal	b80093d0 <or_MASKR>
b8009aa4:	00000000 	nop
b8009aa8:	0a0027c0 	j	b8009f00 <risc_enable_interrupt+0x8d4>
b8009aac:	00000000 	nop
b8009ab0:	24040801 	li	a0,2049
b8009ab4:	3c050004 	lui	a1,0x4
b8009ab8:	24060001 	li	a2,1
b8009abc:	0e0024f4 	jal	b80093d0 <or_MASKR>
b8009ac0:	00000000 	nop
b8009ac4:	0a0027c0 	j	b8009f00 <risc_enable_interrupt+0x8d4>
b8009ac8:	00000000 	nop
b8009acc:	24040801 	li	a0,2049
b8009ad0:	3c050002 	lui	a1,0x2
b8009ad4:	24060001 	li	a2,1
b8009ad8:	0e0024f4 	jal	b80093d0 <or_MASKR>
b8009adc:	00000000 	nop
b8009ae0:	0a0027c0 	j	b8009f00 <risc_enable_interrupt+0x8d4>
b8009ae4:	00000000 	nop
b8009ae8:	24040801 	li	a0,2049
b8009aec:	3c050001 	lui	a1,0x1
b8009af0:	24060001 	li	a2,1
b8009af4:	0e0024f4 	jal	b80093d0 <or_MASKR>
b8009af8:	00000000 	nop
b8009afc:	0a0027c0 	j	b8009f00 <risc_enable_interrupt+0x8d4>
b8009b00:	00000000 	nop
b8009b04:	24040801 	li	a0,2049
b8009b08:	34058000 	li	a1,0x8000
b8009b0c:	24060001 	li	a2,1
b8009b10:	0e0024f4 	jal	b80093d0 <or_MASKR>
b8009b14:	00000000 	nop
b8009b18:	0a0027c0 	j	b8009f00 <risc_enable_interrupt+0x8d4>
b8009b1c:	00000000 	nop
b8009b20:	24040801 	li	a0,2049
b8009b24:	24054000 	li	a1,16384
b8009b28:	24060001 	li	a2,1
b8009b2c:	0e0024f4 	jal	b80093d0 <or_MASKR>
b8009b30:	00000000 	nop
b8009b34:	0a0027c0 	j	b8009f00 <risc_enable_interrupt+0x8d4>
b8009b38:	00000000 	nop
b8009b3c:	24040801 	li	a0,2049
b8009b40:	24050001 	li	a1,1
b8009b44:	24060001 	li	a2,1
b8009b48:	0e0024f4 	jal	b80093d0 <or_MASKR>
b8009b4c:	00000000 	nop
b8009b50:	0a0027c0 	j	b8009f00 <risc_enable_interrupt+0x8d4>
b8009b54:	00000000 	nop
b8009b58:	24040801 	li	a0,2049
b8009b5c:	24051000 	li	a1,4096
b8009b60:	24060001 	li	a2,1
b8009b64:	0e0024f4 	jal	b80093d0 <or_MASKR>
b8009b68:	00000000 	nop
b8009b6c:	0a0027c0 	j	b8009f00 <risc_enable_interrupt+0x8d4>
b8009b70:	00000000 	nop
b8009b74:	24040801 	li	a0,2049
b8009b78:	24050800 	li	a1,2048
b8009b7c:	24060001 	li	a2,1
b8009b80:	0e0024f4 	jal	b80093d0 <or_MASKR>
b8009b84:	00000000 	nop
b8009b88:	0a0027c0 	j	b8009f00 <risc_enable_interrupt+0x8d4>
b8009b8c:	00000000 	nop
b8009b90:	24040801 	li	a0,2049
b8009b94:	24050400 	li	a1,1024
b8009b98:	24060001 	li	a2,1
b8009b9c:	0e0024f4 	jal	b80093d0 <or_MASKR>
b8009ba0:	00000000 	nop
b8009ba4:	0a0027c0 	j	b8009f00 <risc_enable_interrupt+0x8d4>
b8009ba8:	00000000 	nop
b8009bac:	24040801 	li	a0,2049
b8009bb0:	24050200 	li	a1,512
b8009bb4:	24060001 	li	a2,1
b8009bb8:	0e0024f4 	jal	b80093d0 <or_MASKR>
b8009bbc:	00000000 	nop
b8009bc0:	0a0027c0 	j	b8009f00 <risc_enable_interrupt+0x8d4>
b8009bc4:	00000000 	nop
b8009bc8:	24040801 	li	a0,2049
b8009bcc:	24050100 	li	a1,256
b8009bd0:	24060001 	li	a2,1
b8009bd4:	0e0024f4 	jal	b80093d0 <or_MASKR>
b8009bd8:	00000000 	nop
b8009bdc:	0a0027c0 	j	b8009f00 <risc_enable_interrupt+0x8d4>
b8009be0:	00000000 	nop
b8009be4:	24040801 	li	a0,2049
b8009be8:	24050080 	li	a1,128
b8009bec:	24060001 	li	a2,1
b8009bf0:	0e0024f4 	jal	b80093d0 <or_MASKR>
b8009bf4:	00000000 	nop
b8009bf8:	0a0027c0 	j	b8009f00 <risc_enable_interrupt+0x8d4>
b8009bfc:	00000000 	nop
b8009c00:	24040801 	li	a0,2049
b8009c04:	24050040 	li	a1,64
b8009c08:	24060001 	li	a2,1
b8009c0c:	0e0024f4 	jal	b80093d0 <or_MASKR>
b8009c10:	00000000 	nop
b8009c14:	0a0027c0 	j	b8009f00 <risc_enable_interrupt+0x8d4>
b8009c18:	00000000 	nop
b8009c1c:	24040801 	li	a0,2049
b8009c20:	24050020 	li	a1,32
b8009c24:	24060001 	li	a2,1
b8009c28:	0e0024f4 	jal	b80093d0 <or_MASKR>
b8009c2c:	00000000 	nop
b8009c30:	0a0027c0 	j	b8009f00 <risc_enable_interrupt+0x8d4>
b8009c34:	00000000 	nop
b8009c38:	24040801 	li	a0,2049
b8009c3c:	24050010 	li	a1,16
b8009c40:	24060001 	li	a2,1
b8009c44:	0e0024f4 	jal	b80093d0 <or_MASKR>
b8009c48:	00000000 	nop
b8009c4c:	0a0027c0 	j	b8009f00 <risc_enable_interrupt+0x8d4>
b8009c50:	00000000 	nop
b8009c54:	24040801 	li	a0,2049
b8009c58:	24050008 	li	a1,8
b8009c5c:	24060001 	li	a2,1
b8009c60:	0e0024f4 	jal	b80093d0 <or_MASKR>
b8009c64:	00000000 	nop
b8009c68:	0a0027c0 	j	b8009f00 <risc_enable_interrupt+0x8d4>
b8009c6c:	00000000 	nop
b8009c70:	24040801 	li	a0,2049
b8009c74:	24050004 	li	a1,4
b8009c78:	24060001 	li	a2,1
b8009c7c:	0e0024f4 	jal	b80093d0 <or_MASKR>
b8009c80:	00000000 	nop
b8009c84:	0a0027c0 	j	b8009f00 <risc_enable_interrupt+0x8d4>
b8009c88:	00000000 	nop
b8009c8c:	24040801 	li	a0,2049
b8009c90:	24050002 	li	a1,2
b8009c94:	24060001 	li	a2,1
b8009c98:	0e0024f4 	jal	b80093d0 <or_MASKR>
b8009c9c:	00000000 	nop
b8009ca0:	0a0027c0 	j	b8009f00 <risc_enable_interrupt+0x8d4>
b8009ca4:	00000000 	nop
b8009ca8:	24040801 	li	a0,2049
b8009cac:	24050001 	li	a1,1
b8009cb0:	24060001 	li	a2,1
b8009cb4:	0e0024f4 	jal	b80093d0 <or_MASKR>
b8009cb8:	00000000 	nop
b8009cbc:	0a0027c0 	j	b8009f00 <risc_enable_interrupt+0x8d4>
b8009cc0:	00000000 	nop
b8009cc4:	24041001 	li	a0,4097
b8009cc8:	34058000 	li	a1,0x8000
b8009ccc:	24060002 	li	a2,2
b8009cd0:	0e0024f4 	jal	b80093d0 <or_MASKR>
b8009cd4:	00000000 	nop
b8009cd8:	0a0027c0 	j	b8009f00 <risc_enable_interrupt+0x8d4>
b8009cdc:	00000000 	nop
b8009ce0:	24041001 	li	a0,4097
b8009ce4:	24054000 	li	a1,16384
b8009ce8:	24060002 	li	a2,2
b8009cec:	0e0024f4 	jal	b80093d0 <or_MASKR>
b8009cf0:	00000000 	nop
b8009cf4:	0a0027c0 	j	b8009f00 <risc_enable_interrupt+0x8d4>
b8009cf8:	00000000 	nop
b8009cfc:	24041001 	li	a0,4097
b8009d00:	24052000 	li	a1,8192
b8009d04:	24060002 	li	a2,2
b8009d08:	0e0024f4 	jal	b80093d0 <or_MASKR>
b8009d0c:	00000000 	nop
b8009d10:	0a0027c0 	j	b8009f00 <risc_enable_interrupt+0x8d4>
b8009d14:	00000000 	nop
b8009d18:	24041001 	li	a0,4097
b8009d1c:	24051000 	li	a1,4096
b8009d20:	24060002 	li	a2,2
b8009d24:	0e0024f4 	jal	b80093d0 <or_MASKR>
b8009d28:	00000000 	nop
b8009d2c:	0a0027c0 	j	b8009f00 <risc_enable_interrupt+0x8d4>
b8009d30:	00000000 	nop
b8009d34:	24041001 	li	a0,4097
b8009d38:	24050800 	li	a1,2048
b8009d3c:	24060002 	li	a2,2
b8009d40:	0e0024f4 	jal	b80093d0 <or_MASKR>
b8009d44:	00000000 	nop
b8009d48:	0a0027c0 	j	b8009f00 <risc_enable_interrupt+0x8d4>
b8009d4c:	00000000 	nop
b8009d50:	24041001 	li	a0,4097
b8009d54:	24050400 	li	a1,1024
b8009d58:	24060002 	li	a2,2
b8009d5c:	0e0024f4 	jal	b80093d0 <or_MASKR>
b8009d60:	00000000 	nop
b8009d64:	0a0027c0 	j	b8009f00 <risc_enable_interrupt+0x8d4>
b8009d68:	00000000 	nop
b8009d6c:	24041001 	li	a0,4097
b8009d70:	24050200 	li	a1,512
b8009d74:	24060002 	li	a2,2
b8009d78:	0e0024f4 	jal	b80093d0 <or_MASKR>
b8009d7c:	00000000 	nop
b8009d80:	0a0027c0 	j	b8009f00 <risc_enable_interrupt+0x8d4>
b8009d84:	00000000 	nop
b8009d88:	24041001 	li	a0,4097
b8009d8c:	24050100 	li	a1,256
b8009d90:	24060002 	li	a2,2
b8009d94:	0e0024f4 	jal	b80093d0 <or_MASKR>
b8009d98:	00000000 	nop
b8009d9c:	0a0027c0 	j	b8009f00 <risc_enable_interrupt+0x8d4>
b8009da0:	00000000 	nop
b8009da4:	24041001 	li	a0,4097
b8009da8:	24050080 	li	a1,128
b8009dac:	24060002 	li	a2,2
b8009db0:	0e0024f4 	jal	b80093d0 <or_MASKR>
b8009db4:	00000000 	nop
b8009db8:	0a0027c0 	j	b8009f00 <risc_enable_interrupt+0x8d4>
b8009dbc:	00000000 	nop
b8009dc0:	24041001 	li	a0,4097
b8009dc4:	24050040 	li	a1,64
b8009dc8:	24060002 	li	a2,2
b8009dcc:	0e0024f4 	jal	b80093d0 <or_MASKR>
b8009dd0:	00000000 	nop
b8009dd4:	0a0027c0 	j	b8009f00 <risc_enable_interrupt+0x8d4>
b8009dd8:	00000000 	nop
b8009ddc:	24041001 	li	a0,4097
b8009de0:	24050020 	li	a1,32
b8009de4:	24060002 	li	a2,2
b8009de8:	0e0024f4 	jal	b80093d0 <or_MASKR>
b8009dec:	00000000 	nop
b8009df0:	0a0027c0 	j	b8009f00 <risc_enable_interrupt+0x8d4>
b8009df4:	00000000 	nop
b8009df8:	24041001 	li	a0,4097
b8009dfc:	24050010 	li	a1,16
b8009e00:	24060002 	li	a2,2
b8009e04:	0e0024f4 	jal	b80093d0 <or_MASKR>
b8009e08:	00000000 	nop
b8009e0c:	0a0027c0 	j	b8009f00 <risc_enable_interrupt+0x8d4>
b8009e10:	00000000 	nop
b8009e14:	24041001 	li	a0,4097
b8009e18:	24050008 	li	a1,8
b8009e1c:	24060002 	li	a2,2
b8009e20:	0e0024f4 	jal	b80093d0 <or_MASKR>
b8009e24:	00000000 	nop
b8009e28:	0a0027c0 	j	b8009f00 <risc_enable_interrupt+0x8d4>
b8009e2c:	00000000 	nop
b8009e30:	24041001 	li	a0,4097
b8009e34:	24050004 	li	a1,4
b8009e38:	24060002 	li	a2,2
b8009e3c:	0e0024f4 	jal	b80093d0 <or_MASKR>
b8009e40:	00000000 	nop
b8009e44:	0a0027c0 	j	b8009f00 <risc_enable_interrupt+0x8d4>
b8009e48:	00000000 	nop
b8009e4c:	24041001 	li	a0,4097
b8009e50:	24050002 	li	a1,2
b8009e54:	24060002 	li	a2,2
b8009e58:	0e0024f4 	jal	b80093d0 <or_MASKR>
b8009e5c:	00000000 	nop
b8009e60:	0a0027c0 	j	b8009f00 <risc_enable_interrupt+0x8d4>
b8009e64:	00000000 	nop
b8009e68:	24041001 	li	a0,4097
b8009e6c:	24050001 	li	a1,1
b8009e70:	24060002 	li	a2,2
b8009e74:	0e0024f4 	jal	b80093d0 <or_MASKR>
b8009e78:	00000000 	nop
b8009e7c:	0a0027c0 	j	b8009f00 <risc_enable_interrupt+0x8d4>
b8009e80:	00000000 	nop
b8009e84:	afc00010 	sw	zero,16(s8)
b8009e88:	40026000 	mfc0	v0,c0_status
b8009e8c:	afc20010 	sw	v0,16(s8)
b8009e90:	8fc20010 	lw	v0,16(s8)
b8009e94:	00000000 	nop
b8009e98:	34424001 	ori	v0,v0,0x4001
b8009e9c:	afc20010 	sw	v0,16(s8)
b8009ea0:	8fc20010 	lw	v0,16(s8)
b8009ea4:	00000000 	nop
b8009ea8:	40826000 	mtc0	v0,c0_status
b8009eac:	3c02b848 	lui	v0,0xb848
b8009eb0:	34421000 	ori	v0,v0,0x1000
b8009eb4:	3c03b848 	lui	v1,0xb848
b8009eb8:	34631000 	ori	v1,v1,0x1000
b8009ebc:	8c630000 	lw	v1,0(v1)
b8009ec0:	00000000 	nop
b8009ec4:	34630101 	ori	v1,v1,0x101
b8009ec8:	ac430000 	sw	v1,0(v0)
b8009ecc:	0a0027c0 	j	b8009f00 <risc_enable_interrupt+0x8d4>
b8009ed0:	00000000 	nop
b8009ed4:	afc00010 	sw	zero,16(s8)
b8009ed8:	40026000 	mfc0	v0,c0_status
b8009edc:	afc20010 	sw	v0,16(s8)
b8009ee0:	8fc20010 	lw	v0,16(s8)
b8009ee4:	00000000 	nop
b8009ee8:	34428001 	ori	v0,v0,0x8001
b8009eec:	afc20010 	sw	v0,16(s8)
b8009ef0:	8fc20010 	lw	v0,16(s8)
b8009ef4:	00000000 	nop
b8009ef8:	40826000 	mtc0	v0,c0_status
b8009efc:	00000000 	nop
b8009f00:	03c0e821 	move	sp,s8
b8009f04:	8fbf001c 	lw	ra,28(sp)
b8009f08:	00000000 	nop
b8009f0c:	8fbe0018 	lw	s8,24(sp)
b8009f10:	00000000 	nop
b8009f14:	27bd0020 	addiu	sp,sp,32
b8009f18:	03e00008 	jr	ra
b8009f1c:	00000000 	nop

b8009f20 <risc_disable_interrupt>:
b8009f20:	27bdffe0 	addiu	sp,sp,-32
b8009f24:	afbf001c 	sw	ra,28(sp)
b8009f28:	afbe0018 	sw	s8,24(sp)
b8009f2c:	03a0f021 	move	s8,sp
b8009f30:	afc40020 	sw	a0,32(s8)
b8009f34:	afc00010 	sw	zero,16(s8)
b8009f38:	8fc20020 	lw	v0,32(s8)
b8009f3c:	00000000 	nop
b8009f40:	2c42004c 	sltiu	v0,v0,76
b8009f44:	104001d9 	beqz	v0,b800a6ac <risc_disable_interrupt+0x78c>
b8009f48:	00000000 	nop
b8009f4c:	8fc20020 	lw	v0,32(s8)
b8009f50:	00000000 	nop
b8009f54:	00021880 	sll	v1,v0,0x2
b8009f58:	3c02b801 	lui	v0,0xb801
b8009f5c:	2442d738 	addiu	v0,v0,-10440
b8009f60:	00621021 	addu	v0,v1,v0
b8009f64:	8c420000 	lw	v0,0(v0)
b8009f68:	00000000 	nop
b8009f6c:	00400008 	jr	v0
b8009f70:	00000000 	nop
b8009f74:	3c048000 	lui	a0,0x8000
b8009f78:	00002821 	move	a1,zero
b8009f7c:	0e002543 	jal	b800950c <andnot_MASKR>
b8009f80:	00000000 	nop
b8009f84:	0a0029ab 	j	b800a6ac <risc_disable_interrupt+0x78c>
b8009f88:	00000000 	nop
b8009f8c:	3c044000 	lui	a0,0x4000
b8009f90:	00002821 	move	a1,zero
b8009f94:	0e002543 	jal	b800950c <andnot_MASKR>
b8009f98:	00000000 	nop
b8009f9c:	0a0029ab 	j	b800a6ac <risc_disable_interrupt+0x78c>
b8009fa0:	00000000 	nop
b8009fa4:	3c042000 	lui	a0,0x2000
b8009fa8:	00002821 	move	a1,zero
b8009fac:	0e002543 	jal	b800950c <andnot_MASKR>
b8009fb0:	00000000 	nop
b8009fb4:	0a0029ab 	j	b800a6ac <risc_disable_interrupt+0x78c>
b8009fb8:	00000000 	nop
b8009fbc:	3c041000 	lui	a0,0x1000
b8009fc0:	00002821 	move	a1,zero
b8009fc4:	0e002543 	jal	b800950c <andnot_MASKR>
b8009fc8:	00000000 	nop
b8009fcc:	0a0029ab 	j	b800a6ac <risc_disable_interrupt+0x78c>
b8009fd0:	00000000 	nop
b8009fd4:	3c040800 	lui	a0,0x800
b8009fd8:	00002821 	move	a1,zero
b8009fdc:	0e002543 	jal	b800950c <andnot_MASKR>
b8009fe0:	00000000 	nop
b8009fe4:	0a0029ab 	j	b800a6ac <risc_disable_interrupt+0x78c>
b8009fe8:	00000000 	nop
b8009fec:	3c040400 	lui	a0,0x400
b8009ff0:	00002821 	move	a1,zero
b8009ff4:	0e002543 	jal	b800950c <andnot_MASKR>
b8009ff8:	00000000 	nop
b8009ffc:	0a0029ab 	j	b800a6ac <risc_disable_interrupt+0x78c>
b800a000:	00000000 	nop
b800a004:	3c040200 	lui	a0,0x200
b800a008:	00002821 	move	a1,zero
b800a00c:	0e002543 	jal	b800950c <andnot_MASKR>
b800a010:	00000000 	nop
b800a014:	0a0029ab 	j	b800a6ac <risc_disable_interrupt+0x78c>
b800a018:	00000000 	nop
b800a01c:	3c040100 	lui	a0,0x100
b800a020:	00002821 	move	a1,zero
b800a024:	0e002543 	jal	b800950c <andnot_MASKR>
b800a028:	00000000 	nop
b800a02c:	0a0029ab 	j	b800a6ac <risc_disable_interrupt+0x78c>
b800a030:	00000000 	nop
b800a034:	3c040040 	lui	a0,0x40
b800a038:	00002821 	move	a1,zero
b800a03c:	0e002543 	jal	b800950c <andnot_MASKR>
b800a040:	00000000 	nop
b800a044:	0a0029ab 	j	b800a6ac <risc_disable_interrupt+0x78c>
b800a048:	00000000 	nop
b800a04c:	3c040020 	lui	a0,0x20
b800a050:	00002821 	move	a1,zero
b800a054:	0e002543 	jal	b800950c <andnot_MASKR>
b800a058:	00000000 	nop
b800a05c:	0a0029ab 	j	b800a6ac <risc_disable_interrupt+0x78c>
b800a060:	00000000 	nop
b800a064:	3c040010 	lui	a0,0x10
b800a068:	00002821 	move	a1,zero
b800a06c:	0e002543 	jal	b800950c <andnot_MASKR>
b800a070:	00000000 	nop
b800a074:	0a0029ab 	j	b800a6ac <risc_disable_interrupt+0x78c>
b800a078:	00000000 	nop
b800a07c:	3c040008 	lui	a0,0x8
b800a080:	00002821 	move	a1,zero
b800a084:	0e002543 	jal	b800950c <andnot_MASKR>
b800a088:	00000000 	nop
b800a08c:	0a0029ab 	j	b800a6ac <risc_disable_interrupt+0x78c>
b800a090:	00000000 	nop
b800a094:	3c040004 	lui	a0,0x4
b800a098:	00002821 	move	a1,zero
b800a09c:	0e002543 	jal	b800950c <andnot_MASKR>
b800a0a0:	00000000 	nop
b800a0a4:	0a0029ab 	j	b800a6ac <risc_disable_interrupt+0x78c>
b800a0a8:	00000000 	nop
b800a0ac:	3c040002 	lui	a0,0x2
b800a0b0:	00002821 	move	a1,zero
b800a0b4:	0e002543 	jal	b800950c <andnot_MASKR>
b800a0b8:	00000000 	nop
b800a0bc:	0a0029ab 	j	b800a6ac <risc_disable_interrupt+0x78c>
b800a0c0:	00000000 	nop
b800a0c4:	3c040001 	lui	a0,0x1
b800a0c8:	00002821 	move	a1,zero
b800a0cc:	0e002543 	jal	b800950c <andnot_MASKR>
b800a0d0:	00000000 	nop
b800a0d4:	0a0029ab 	j	b800a6ac <risc_disable_interrupt+0x78c>
b800a0d8:	00000000 	nop
b800a0dc:	34048000 	li	a0,0x8000
b800a0e0:	00002821 	move	a1,zero
b800a0e4:	0e002543 	jal	b800950c <andnot_MASKR>
b800a0e8:	00000000 	nop
b800a0ec:	0a0029ab 	j	b800a6ac <risc_disable_interrupt+0x78c>
b800a0f0:	00000000 	nop
b800a0f4:	24044000 	li	a0,16384
b800a0f8:	00002821 	move	a1,zero
b800a0fc:	0e002543 	jal	b800950c <andnot_MASKR>
b800a100:	00000000 	nop
b800a104:	0a0029ab 	j	b800a6ac <risc_disable_interrupt+0x78c>
b800a108:	00000000 	nop
b800a10c:	24042000 	li	a0,8192
b800a110:	00002821 	move	a1,zero
b800a114:	0e002543 	jal	b800950c <andnot_MASKR>
b800a118:	00000000 	nop
b800a11c:	0a0029ab 	j	b800a6ac <risc_disable_interrupt+0x78c>
b800a120:	00000000 	nop
b800a124:	24041000 	li	a0,4096
b800a128:	00002821 	move	a1,zero
b800a12c:	0e002543 	jal	b800950c <andnot_MASKR>
b800a130:	00000000 	nop
b800a134:	0a0029ab 	j	b800a6ac <risc_disable_interrupt+0x78c>
b800a138:	00000000 	nop
b800a13c:	24040800 	li	a0,2048
b800a140:	00002821 	move	a1,zero
b800a144:	0e002543 	jal	b800950c <andnot_MASKR>
b800a148:	00000000 	nop
b800a14c:	0a0029ab 	j	b800a6ac <risc_disable_interrupt+0x78c>
b800a150:	00000000 	nop
b800a154:	24040400 	li	a0,1024
b800a158:	00002821 	move	a1,zero
b800a15c:	0e002543 	jal	b800950c <andnot_MASKR>
b800a160:	00000000 	nop
b800a164:	0a0029ab 	j	b800a6ac <risc_disable_interrupt+0x78c>
b800a168:	00000000 	nop
b800a16c:	24040200 	li	a0,512
b800a170:	00002821 	move	a1,zero
b800a174:	0e002543 	jal	b800950c <andnot_MASKR>
b800a178:	00000000 	nop
b800a17c:	0a0029ab 	j	b800a6ac <risc_disable_interrupt+0x78c>
b800a180:	00000000 	nop
b800a184:	24040100 	li	a0,256
b800a188:	00002821 	move	a1,zero
b800a18c:	0e002543 	jal	b800950c <andnot_MASKR>
b800a190:	00000000 	nop
b800a194:	0a0029ab 	j	b800a6ac <risc_disable_interrupt+0x78c>
b800a198:	00000000 	nop
b800a19c:	24040080 	li	a0,128
b800a1a0:	00002821 	move	a1,zero
b800a1a4:	0e002543 	jal	b800950c <andnot_MASKR>
b800a1a8:	00000000 	nop
b800a1ac:	0a0029ab 	j	b800a6ac <risc_disable_interrupt+0x78c>
b800a1b0:	00000000 	nop
b800a1b4:	24040040 	li	a0,64
b800a1b8:	00002821 	move	a1,zero
b800a1bc:	0e002543 	jal	b800950c <andnot_MASKR>
b800a1c0:	00000000 	nop
b800a1c4:	0a0029ab 	j	b800a6ac <risc_disable_interrupt+0x78c>
b800a1c8:	00000000 	nop
b800a1cc:	24040020 	li	a0,32
b800a1d0:	00002821 	move	a1,zero
b800a1d4:	0e002543 	jal	b800950c <andnot_MASKR>
b800a1d8:	00000000 	nop
b800a1dc:	0a0029ab 	j	b800a6ac <risc_disable_interrupt+0x78c>
b800a1e0:	00000000 	nop
b800a1e4:	24040010 	li	a0,16
b800a1e8:	00002821 	move	a1,zero
b800a1ec:	0e002543 	jal	b800950c <andnot_MASKR>
b800a1f0:	00000000 	nop
b800a1f4:	0a0029ab 	j	b800a6ac <risc_disable_interrupt+0x78c>
b800a1f8:	00000000 	nop
b800a1fc:	24040008 	li	a0,8
b800a200:	00002821 	move	a1,zero
b800a204:	0e002543 	jal	b800950c <andnot_MASKR>
b800a208:	00000000 	nop
b800a20c:	0a0029ab 	j	b800a6ac <risc_disable_interrupt+0x78c>
b800a210:	00000000 	nop
b800a214:	24040004 	li	a0,4
b800a218:	00002821 	move	a1,zero
b800a21c:	0e002543 	jal	b800950c <andnot_MASKR>
b800a220:	00000000 	nop
b800a224:	0a0029ab 	j	b800a6ac <risc_disable_interrupt+0x78c>
b800a228:	00000000 	nop
b800a22c:	24040002 	li	a0,2
b800a230:	00002821 	move	a1,zero
b800a234:	0e002543 	jal	b800950c <andnot_MASKR>
b800a238:	00000000 	nop
b800a23c:	0a0029ab 	j	b800a6ac <risc_disable_interrupt+0x78c>
b800a240:	00000000 	nop
b800a244:	24040001 	li	a0,1
b800a248:	00002821 	move	a1,zero
b800a24c:	0e002543 	jal	b800950c <andnot_MASKR>
b800a250:	00000000 	nop
b800a254:	0a0029ab 	j	b800a6ac <risc_disable_interrupt+0x78c>
b800a258:	00000000 	nop
b800a25c:	3c040200 	lui	a0,0x200
b800a260:	24050001 	li	a1,1
b800a264:	0e002543 	jal	b800950c <andnot_MASKR>
b800a268:	00000000 	nop
b800a26c:	0a0029ab 	j	b800a6ac <risc_disable_interrupt+0x78c>
b800a270:	00000000 	nop
b800a274:	3c040100 	lui	a0,0x100
b800a278:	24050001 	li	a1,1
b800a27c:	0e002543 	jal	b800950c <andnot_MASKR>
b800a280:	00000000 	nop
b800a284:	0a0029ab 	j	b800a6ac <risc_disable_interrupt+0x78c>
b800a288:	00000000 	nop
b800a28c:	3c040080 	lui	a0,0x80
b800a290:	24050001 	li	a1,1
b800a294:	0e002543 	jal	b800950c <andnot_MASKR>
b800a298:	00000000 	nop
b800a29c:	0a0029ab 	j	b800a6ac <risc_disable_interrupt+0x78c>
b800a2a0:	00000000 	nop
b800a2a4:	3c040040 	lui	a0,0x40
b800a2a8:	24050001 	li	a1,1
b800a2ac:	0e002543 	jal	b800950c <andnot_MASKR>
b800a2b0:	00000000 	nop
b800a2b4:	0a0029ab 	j	b800a6ac <risc_disable_interrupt+0x78c>
b800a2b8:	00000000 	nop
b800a2bc:	3c040020 	lui	a0,0x20
b800a2c0:	24050001 	li	a1,1
b800a2c4:	0e002543 	jal	b800950c <andnot_MASKR>
b800a2c8:	00000000 	nop
b800a2cc:	0a0029ab 	j	b800a6ac <risc_disable_interrupt+0x78c>
b800a2d0:	00000000 	nop
b800a2d4:	3c040010 	lui	a0,0x10
b800a2d8:	24050001 	li	a1,1
b800a2dc:	0e002543 	jal	b800950c <andnot_MASKR>
b800a2e0:	00000000 	nop
b800a2e4:	0a0029ab 	j	b800a6ac <risc_disable_interrupt+0x78c>
b800a2e8:	00000000 	nop
b800a2ec:	3c040008 	lui	a0,0x8
b800a2f0:	24050001 	li	a1,1
b800a2f4:	0e002543 	jal	b800950c <andnot_MASKR>
b800a2f8:	00000000 	nop
b800a2fc:	0a0029ab 	j	b800a6ac <risc_disable_interrupt+0x78c>
b800a300:	00000000 	nop
b800a304:	3c040004 	lui	a0,0x4
b800a308:	24050001 	li	a1,1
b800a30c:	0e002543 	jal	b800950c <andnot_MASKR>
b800a310:	00000000 	nop
b800a314:	0a0029ab 	j	b800a6ac <risc_disable_interrupt+0x78c>
b800a318:	00000000 	nop
b800a31c:	3c040002 	lui	a0,0x2
b800a320:	24050001 	li	a1,1
b800a324:	0e002543 	jal	b800950c <andnot_MASKR>
b800a328:	00000000 	nop
b800a32c:	0a0029ab 	j	b800a6ac <risc_disable_interrupt+0x78c>
b800a330:	00000000 	nop
b800a334:	3c040001 	lui	a0,0x1
b800a338:	24050001 	li	a1,1
b800a33c:	0e002543 	jal	b800950c <andnot_MASKR>
b800a340:	00000000 	nop
b800a344:	0a0029ab 	j	b800a6ac <risc_disable_interrupt+0x78c>
b800a348:	00000000 	nop
b800a34c:	34048000 	li	a0,0x8000
b800a350:	24050001 	li	a1,1
b800a354:	0e002543 	jal	b800950c <andnot_MASKR>
b800a358:	00000000 	nop
b800a35c:	0a0029ab 	j	b800a6ac <risc_disable_interrupt+0x78c>
b800a360:	00000000 	nop
b800a364:	24044000 	li	a0,16384
b800a368:	24050001 	li	a1,1
b800a36c:	0e002543 	jal	b800950c <andnot_MASKR>
b800a370:	00000000 	nop
b800a374:	0a0029ab 	j	b800a6ac <risc_disable_interrupt+0x78c>
b800a378:	00000000 	nop
b800a37c:	24040001 	li	a0,1
b800a380:	24050001 	li	a1,1
b800a384:	0e002543 	jal	b800950c <andnot_MASKR>
b800a388:	00000000 	nop
b800a38c:	0a0029ab 	j	b800a6ac <risc_disable_interrupt+0x78c>
b800a390:	00000000 	nop
b800a394:	24041000 	li	a0,4096
b800a398:	24050001 	li	a1,1
b800a39c:	0e002543 	jal	b800950c <andnot_MASKR>
b800a3a0:	00000000 	nop
b800a3a4:	0a0029ab 	j	b800a6ac <risc_disable_interrupt+0x78c>
b800a3a8:	00000000 	nop
b800a3ac:	24040800 	li	a0,2048
b800a3b0:	24050001 	li	a1,1
b800a3b4:	0e002543 	jal	b800950c <andnot_MASKR>
b800a3b8:	00000000 	nop
b800a3bc:	0a0029ab 	j	b800a6ac <risc_disable_interrupt+0x78c>
b800a3c0:	00000000 	nop
b800a3c4:	24040400 	li	a0,1024
b800a3c8:	24050001 	li	a1,1
b800a3cc:	0e002543 	jal	b800950c <andnot_MASKR>
b800a3d0:	00000000 	nop
b800a3d4:	0a0029ab 	j	b800a6ac <risc_disable_interrupt+0x78c>
b800a3d8:	00000000 	nop
b800a3dc:	24040200 	li	a0,512
b800a3e0:	24050001 	li	a1,1
b800a3e4:	0e002543 	jal	b800950c <andnot_MASKR>
b800a3e8:	00000000 	nop
b800a3ec:	0a0029ab 	j	b800a6ac <risc_disable_interrupt+0x78c>
b800a3f0:	00000000 	nop
b800a3f4:	24040100 	li	a0,256
b800a3f8:	24050001 	li	a1,1
b800a3fc:	0e002543 	jal	b800950c <andnot_MASKR>
b800a400:	00000000 	nop
b800a404:	0a0029ab 	j	b800a6ac <risc_disable_interrupt+0x78c>
b800a408:	00000000 	nop
b800a40c:	24040080 	li	a0,128
b800a410:	24050001 	li	a1,1
b800a414:	0e002543 	jal	b800950c <andnot_MASKR>
b800a418:	00000000 	nop
b800a41c:	0a0029ab 	j	b800a6ac <risc_disable_interrupt+0x78c>
b800a420:	00000000 	nop
b800a424:	24040040 	li	a0,64
b800a428:	24050001 	li	a1,1
b800a42c:	0e002543 	jal	b800950c <andnot_MASKR>
b800a430:	00000000 	nop
b800a434:	0a0029ab 	j	b800a6ac <risc_disable_interrupt+0x78c>
b800a438:	00000000 	nop
b800a43c:	24040020 	li	a0,32
b800a440:	24050001 	li	a1,1
b800a444:	0e002543 	jal	b800950c <andnot_MASKR>
b800a448:	00000000 	nop
b800a44c:	0a0029ab 	j	b800a6ac <risc_disable_interrupt+0x78c>
b800a450:	00000000 	nop
b800a454:	24040010 	li	a0,16
b800a458:	24050001 	li	a1,1
b800a45c:	0e002543 	jal	b800950c <andnot_MASKR>
b800a460:	00000000 	nop
b800a464:	0a0029ab 	j	b800a6ac <risc_disable_interrupt+0x78c>
b800a468:	00000000 	nop
b800a46c:	24040008 	li	a0,8
b800a470:	24050001 	li	a1,1
b800a474:	0e002543 	jal	b800950c <andnot_MASKR>
b800a478:	00000000 	nop
b800a47c:	0a0029ab 	j	b800a6ac <risc_disable_interrupt+0x78c>
b800a480:	00000000 	nop
b800a484:	24040004 	li	a0,4
b800a488:	24050001 	li	a1,1
b800a48c:	0e002543 	jal	b800950c <andnot_MASKR>
b800a490:	00000000 	nop
b800a494:	0a0029ab 	j	b800a6ac <risc_disable_interrupt+0x78c>
b800a498:	00000000 	nop
b800a49c:	24040002 	li	a0,2
b800a4a0:	24050001 	li	a1,1
b800a4a4:	0e002543 	jal	b800950c <andnot_MASKR>
b800a4a8:	00000000 	nop
b800a4ac:	0a0029ab 	j	b800a6ac <risc_disable_interrupt+0x78c>
b800a4b0:	00000000 	nop
b800a4b4:	24040001 	li	a0,1
b800a4b8:	24050001 	li	a1,1
b800a4bc:	0e002543 	jal	b800950c <andnot_MASKR>
b800a4c0:	00000000 	nop
b800a4c4:	0a0029ab 	j	b800a6ac <risc_disable_interrupt+0x78c>
b800a4c8:	00000000 	nop
b800a4cc:	34048000 	li	a0,0x8000
b800a4d0:	24050002 	li	a1,2
b800a4d4:	0e002543 	jal	b800950c <andnot_MASKR>
b800a4d8:	00000000 	nop
b800a4dc:	0a0029ab 	j	b800a6ac <risc_disable_interrupt+0x78c>
b800a4e0:	00000000 	nop
b800a4e4:	24044000 	li	a0,16384
b800a4e8:	24050002 	li	a1,2
b800a4ec:	0e002543 	jal	b800950c <andnot_MASKR>
b800a4f0:	00000000 	nop
b800a4f4:	0a0029ab 	j	b800a6ac <risc_disable_interrupt+0x78c>
b800a4f8:	00000000 	nop
b800a4fc:	24042000 	li	a0,8192
b800a500:	24050002 	li	a1,2
b800a504:	0e002543 	jal	b800950c <andnot_MASKR>
b800a508:	00000000 	nop
b800a50c:	0a0029ab 	j	b800a6ac <risc_disable_interrupt+0x78c>
b800a510:	00000000 	nop
b800a514:	24041000 	li	a0,4096
b800a518:	24050002 	li	a1,2
b800a51c:	0e002543 	jal	b800950c <andnot_MASKR>
b800a520:	00000000 	nop
b800a524:	0a0029ab 	j	b800a6ac <risc_disable_interrupt+0x78c>
b800a528:	00000000 	nop
b800a52c:	24040800 	li	a0,2048
b800a530:	24050002 	li	a1,2
b800a534:	0e002543 	jal	b800950c <andnot_MASKR>
b800a538:	00000000 	nop
b800a53c:	0a0029ab 	j	b800a6ac <risc_disable_interrupt+0x78c>
b800a540:	00000000 	nop
b800a544:	24040400 	li	a0,1024
b800a548:	24050002 	li	a1,2
b800a54c:	0e002543 	jal	b800950c <andnot_MASKR>
b800a550:	00000000 	nop
b800a554:	0a0029ab 	j	b800a6ac <risc_disable_interrupt+0x78c>
b800a558:	00000000 	nop
b800a55c:	24040200 	li	a0,512
b800a560:	24050002 	li	a1,2
b800a564:	0e002543 	jal	b800950c <andnot_MASKR>
b800a568:	00000000 	nop
b800a56c:	0a0029ab 	j	b800a6ac <risc_disable_interrupt+0x78c>
b800a570:	00000000 	nop
b800a574:	24040100 	li	a0,256
b800a578:	24050002 	li	a1,2
b800a57c:	0e002543 	jal	b800950c <andnot_MASKR>
b800a580:	00000000 	nop
b800a584:	0a0029ab 	j	b800a6ac <risc_disable_interrupt+0x78c>
b800a588:	00000000 	nop
b800a58c:	24040080 	li	a0,128
b800a590:	24050002 	li	a1,2
b800a594:	0e002543 	jal	b800950c <andnot_MASKR>
b800a598:	00000000 	nop
b800a59c:	0a0029ab 	j	b800a6ac <risc_disable_interrupt+0x78c>
b800a5a0:	00000000 	nop
b800a5a4:	24040040 	li	a0,64
b800a5a8:	24050002 	li	a1,2
b800a5ac:	0e002543 	jal	b800950c <andnot_MASKR>
b800a5b0:	00000000 	nop
b800a5b4:	0a0029ab 	j	b800a6ac <risc_disable_interrupt+0x78c>
b800a5b8:	00000000 	nop
b800a5bc:	24040020 	li	a0,32
b800a5c0:	24050002 	li	a1,2
b800a5c4:	0e002543 	jal	b800950c <andnot_MASKR>
b800a5c8:	00000000 	nop
b800a5cc:	0a0029ab 	j	b800a6ac <risc_disable_interrupt+0x78c>
b800a5d0:	00000000 	nop
b800a5d4:	24040010 	li	a0,16
b800a5d8:	24050002 	li	a1,2
b800a5dc:	0e002543 	jal	b800950c <andnot_MASKR>
b800a5e0:	00000000 	nop
b800a5e4:	0a0029ab 	j	b800a6ac <risc_disable_interrupt+0x78c>
b800a5e8:	00000000 	nop
b800a5ec:	24040008 	li	a0,8
b800a5f0:	24050002 	li	a1,2
b800a5f4:	0e002543 	jal	b800950c <andnot_MASKR>
b800a5f8:	00000000 	nop
b800a5fc:	0a0029ab 	j	b800a6ac <risc_disable_interrupt+0x78c>
b800a600:	00000000 	nop
b800a604:	24040004 	li	a0,4
b800a608:	24050002 	li	a1,2
b800a60c:	0e002543 	jal	b800950c <andnot_MASKR>
b800a610:	00000000 	nop
b800a614:	0a0029ab 	j	b800a6ac <risc_disable_interrupt+0x78c>
b800a618:	00000000 	nop
b800a61c:	24040002 	li	a0,2
b800a620:	24050002 	li	a1,2
b800a624:	0e002543 	jal	b800950c <andnot_MASKR>
b800a628:	00000000 	nop
b800a62c:	0a0029ab 	j	b800a6ac <risc_disable_interrupt+0x78c>
b800a630:	00000000 	nop
b800a634:	24040001 	li	a0,1
b800a638:	24050002 	li	a1,2
b800a63c:	0e002543 	jal	b800950c <andnot_MASKR>
b800a640:	00000000 	nop
b800a644:	0a0029ab 	j	b800a6ac <risc_disable_interrupt+0x78c>
b800a648:	00000000 	nop
b800a64c:	3c02b848 	lui	v0,0xb848
b800a650:	34421000 	ori	v0,v0,0x1000
b800a654:	3c03b848 	lui	v1,0xb848
b800a658:	34631000 	ori	v1,v1,0x1000
b800a65c:	8c640000 	lw	a0,0(v1)
b800a660:	00000000 	nop
b800a664:	2403fefe 	li	v1,-258
b800a668:	00831824 	and	v1,a0,v1
b800a66c:	ac430000 	sw	v1,0(v0)
b800a670:	0a0029ab 	j	b800a6ac <risc_disable_interrupt+0x78c>
b800a674:	00000000 	nop
b800a678:	afc00010 	sw	zero,16(s8)
b800a67c:	40026000 	mfc0	v0,c0_status
b800a680:	afc20010 	sw	v0,16(s8)
b800a684:	8fc30010 	lw	v1,16(s8)
b800a688:	00000000 	nop
b800a68c:	3c02ffff 	lui	v0,0xffff
b800a690:	34427fff 	ori	v0,v0,0x7fff
b800a694:	00621024 	and	v0,v1,v0
b800a698:	afc20010 	sw	v0,16(s8)
b800a69c:	8fc20010 	lw	v0,16(s8)
b800a6a0:	00000000 	nop
b800a6a4:	40826000 	mtc0	v0,c0_status
b800a6a8:	00000000 	nop
b800a6ac:	03c0e821 	move	sp,s8
b800a6b0:	8fbf001c 	lw	ra,28(sp)
b800a6b4:	00000000 	nop
b800a6b8:	8fbe0018 	lw	s8,24(sp)
b800a6bc:	00000000 	nop
b800a6c0:	27bd0020 	addiu	sp,sp,32
b800a6c4:	03e00008 	jr	ra
b800a6c8:	00000000 	nop

b800a6cc <risc_disable_interrupts>:
b800a6cc:	27bdfff0 	addiu	sp,sp,-16
b800a6d0:	afbe000c 	sw	s8,12(sp)
b800a6d4:	03a0f021 	move	s8,sp
b800a6d8:	afc00000 	sw	zero,0(s8)
b800a6dc:	40026000 	mfc0	v0,c0_status
b800a6e0:	afc20000 	sw	v0,0(s8)
b800a6e4:	8fc30000 	lw	v1,0(s8)
b800a6e8:	00000000 	nop
b800a6ec:	2402fffe 	li	v0,-2
b800a6f0:	00621024 	and	v0,v1,v0
b800a6f4:	afc20000 	sw	v0,0(s8)
b800a6f8:	8fc20000 	lw	v0,0(s8)
b800a6fc:	00000000 	nop
b800a700:	40826000 	mtc0	v0,c0_status
b800a704:	03c0e821 	move	sp,s8
b800a708:	8fbe000c 	lw	s8,12(sp)
b800a70c:	00000000 	nop
b800a710:	27bd0010 	addiu	sp,sp,16
b800a714:	03e00008 	jr	ra
b800a718:	00000000 	nop

b800a71c <risc_enable_interrupts>:
b800a71c:	27bdfff0 	addiu	sp,sp,-16
b800a720:	afbe000c 	sw	s8,12(sp)
b800a724:	03a0f021 	move	s8,sp
b800a728:	afc00000 	sw	zero,0(s8)
b800a72c:	40026000 	mfc0	v0,c0_status
b800a730:	afc20000 	sw	v0,0(s8)
b800a734:	8fc20000 	lw	v0,0(s8)
b800a738:	00000000 	nop
b800a73c:	34420001 	ori	v0,v0,0x1
b800a740:	afc20000 	sw	v0,0(s8)
b800a744:	8fc20000 	lw	v0,0(s8)
b800a748:	00000000 	nop
b800a74c:	40826000 	mtc0	v0,c0_status
b800a750:	03c0e821 	move	sp,s8
b800a754:	8fbe000c 	lw	s8,12(sp)
b800a758:	00000000 	nop
b800a75c:	27bd0010 	addiu	sp,sp,16
b800a760:	03e00008 	jr	ra
b800a764:	00000000 	nop

b800a768 <risc_register_interrupt>:
b800a768:	27bdfff8 	addiu	sp,sp,-8
b800a76c:	afbe0004 	sw	s8,4(sp)
b800a770:	03a0f021 	move	s8,sp
b800a774:	afc40008 	sw	a0,8(s8)
b800a778:	afc5000c 	sw	a1,12(s8)
b800a77c:	8fc20008 	lw	v0,8(s8)
	...
b800a788:	1040000f 	beqz	v0,b800a7c8 <risc_register_interrupt+0x60>
b800a78c:	00000000 	nop
b800a790:	3c02b801 	lui	v0,0xb801
b800a794:	8fc3000c 	lw	v1,12(s8)
	...
b800a7a0:	00031880 	sll	v1,v1,0x2
b800a7a4:	2442cd38 	addiu	v0,v0,-13000
b800a7a8:	00621021 	addu	v0,v1,v0
b800a7ac:	8fc30008 	lw	v1,8(s8)
	...
b800a7b8:	ac430000 	sw	v1,0(v0)
b800a7bc:	00001021 	move	v0,zero
b800a7c0:	0a0029f3 	j	b800a7cc <risc_register_interrupt+0x64>
b800a7c4:	00000000 	nop
b800a7c8:	24020002 	li	v0,2
b800a7cc:	03c0e821 	move	sp,s8
b800a7d0:	8fbe0004 	lw	s8,4(sp)
b800a7d4:	00000000 	nop
b800a7d8:	27bd0008 	addiu	sp,sp,8
b800a7dc:	03e00008 	jr	ra
b800a7e0:	00000000 	nop

b800a7e4 <get_cause_risc>:
b800a7e4:	27bdfff8 	addiu	sp,sp,-8
b800a7e8:	afbe0004 	sw	s8,4(sp)
b800a7ec:	03a0f021 	move	s8,sp
b800a7f0:	afc40008 	sw	a0,8(s8)
b800a7f4:	8fc20008 	lw	v0,8(s8)
	...
b800a800:	30420400 	andi	v0,v0,0x400
b800a804:	10400155 	beqz	v0,b800ad5c <get_cause_risc+0x578>
b800a808:	00000000 	nop
b800a80c:	3c02b82f 	lui	v0,0xb82f
b800a810:	34424014 	ori	v0,v0,0x4014
b800a814:	8c420000 	lw	v0,0(v0)
	...
b800a820:	04410004 	bgez	v0,b800a834 <get_cause_risc+0x50>
b800a824:	00000000 	nop
b800a828:	00001021 	move	v0,zero
b800a82c:	0a002dd2 	j	b800b748 <get_cause_risc+0xf64>
b800a830:	00000000 	nop
b800a834:	3c02b82f 	lui	v0,0xb82f
b800a838:	34424014 	ori	v0,v0,0x4014
b800a83c:	8c430000 	lw	v1,0(v0)
b800a840:	00000000 	nop
b800a844:	3c024000 	lui	v0,0x4000
b800a848:	00621024 	and	v0,v1,v0
b800a84c:	10400004 	beqz	v0,b800a860 <get_cause_risc+0x7c>
b800a850:	00000000 	nop
b800a854:	24020001 	li	v0,1
b800a858:	0a002dd2 	j	b800b748 <get_cause_risc+0xf64>
b800a85c:	00000000 	nop
b800a860:	3c02b82f 	lui	v0,0xb82f
b800a864:	34424014 	ori	v0,v0,0x4014
b800a868:	8c430000 	lw	v1,0(v0)
b800a86c:	00000000 	nop
b800a870:	3c022000 	lui	v0,0x2000
b800a874:	00621024 	and	v0,v1,v0
b800a878:	10400004 	beqz	v0,b800a88c <get_cause_risc+0xa8>
b800a87c:	00000000 	nop
b800a880:	24020002 	li	v0,2
b800a884:	0a002dd2 	j	b800b748 <get_cause_risc+0xf64>
b800a888:	00000000 	nop
b800a88c:	3c02b82f 	lui	v0,0xb82f
b800a890:	34424014 	ori	v0,v0,0x4014
b800a894:	8c430000 	lw	v1,0(v0)
b800a898:	00000000 	nop
b800a89c:	3c021000 	lui	v0,0x1000
b800a8a0:	00621024 	and	v0,v1,v0
b800a8a4:	10400004 	beqz	v0,b800a8b8 <get_cause_risc+0xd4>
b800a8a8:	00000000 	nop
b800a8ac:	24020003 	li	v0,3
b800a8b0:	0a002dd2 	j	b800b748 <get_cause_risc+0xf64>
b800a8b4:	00000000 	nop
b800a8b8:	3c02b82f 	lui	v0,0xb82f
b800a8bc:	34424014 	ori	v0,v0,0x4014
b800a8c0:	8c430000 	lw	v1,0(v0)
b800a8c4:	00000000 	nop
b800a8c8:	3c020800 	lui	v0,0x800
b800a8cc:	00621024 	and	v0,v1,v0
b800a8d0:	10400004 	beqz	v0,b800a8e4 <get_cause_risc+0x100>
b800a8d4:	00000000 	nop
b800a8d8:	24020004 	li	v0,4
b800a8dc:	0a002dd2 	j	b800b748 <get_cause_risc+0xf64>
b800a8e0:	00000000 	nop
b800a8e4:	3c02b82f 	lui	v0,0xb82f
b800a8e8:	34424014 	ori	v0,v0,0x4014
b800a8ec:	8c430000 	lw	v1,0(v0)
b800a8f0:	00000000 	nop
b800a8f4:	3c020400 	lui	v0,0x400
b800a8f8:	00621024 	and	v0,v1,v0
b800a8fc:	10400004 	beqz	v0,b800a910 <get_cause_risc+0x12c>
b800a900:	00000000 	nop
b800a904:	24020005 	li	v0,5
b800a908:	0a002dd2 	j	b800b748 <get_cause_risc+0xf64>
b800a90c:	00000000 	nop
b800a910:	3c02b82f 	lui	v0,0xb82f
b800a914:	34424014 	ori	v0,v0,0x4014
b800a918:	8c430000 	lw	v1,0(v0)
b800a91c:	00000000 	nop
b800a920:	3c020200 	lui	v0,0x200
b800a924:	00621024 	and	v0,v1,v0
b800a928:	10400004 	beqz	v0,b800a93c <get_cause_risc+0x158>
b800a92c:	00000000 	nop
b800a930:	24020006 	li	v0,6
b800a934:	0a002dd2 	j	b800b748 <get_cause_risc+0xf64>
b800a938:	00000000 	nop
b800a93c:	3c02b82f 	lui	v0,0xb82f
b800a940:	34424014 	ori	v0,v0,0x4014
b800a944:	8c430000 	lw	v1,0(v0)
b800a948:	00000000 	nop
b800a94c:	3c020100 	lui	v0,0x100
b800a950:	00621024 	and	v0,v1,v0
b800a954:	10400004 	beqz	v0,b800a968 <get_cause_risc+0x184>
b800a958:	00000000 	nop
b800a95c:	24020007 	li	v0,7
b800a960:	0a002dd2 	j	b800b748 <get_cause_risc+0xf64>
b800a964:	00000000 	nop
b800a968:	3c02b82f 	lui	v0,0xb82f
b800a96c:	34424014 	ori	v0,v0,0x4014
b800a970:	8c430000 	lw	v1,0(v0)
b800a974:	00000000 	nop
b800a978:	3c020040 	lui	v0,0x40
b800a97c:	00621024 	and	v0,v1,v0
b800a980:	10400004 	beqz	v0,b800a994 <get_cause_risc+0x1b0>
b800a984:	00000000 	nop
b800a988:	24020008 	li	v0,8
b800a98c:	0a002dd2 	j	b800b748 <get_cause_risc+0xf64>
b800a990:	00000000 	nop
b800a994:	3c02b82f 	lui	v0,0xb82f
b800a998:	34424014 	ori	v0,v0,0x4014
b800a99c:	8c430000 	lw	v1,0(v0)
b800a9a0:	00000000 	nop
b800a9a4:	3c020020 	lui	v0,0x20
b800a9a8:	00621024 	and	v0,v1,v0
b800a9ac:	10400004 	beqz	v0,b800a9c0 <get_cause_risc+0x1dc>
b800a9b0:	00000000 	nop
b800a9b4:	24020009 	li	v0,9
b800a9b8:	0a002dd2 	j	b800b748 <get_cause_risc+0xf64>
b800a9bc:	00000000 	nop
b800a9c0:	3c02b82f 	lui	v0,0xb82f
b800a9c4:	34424014 	ori	v0,v0,0x4014
b800a9c8:	8c430000 	lw	v1,0(v0)
b800a9cc:	00000000 	nop
b800a9d0:	3c020010 	lui	v0,0x10
b800a9d4:	00621024 	and	v0,v1,v0
b800a9d8:	10400004 	beqz	v0,b800a9ec <get_cause_risc+0x208>
b800a9dc:	00000000 	nop
b800a9e0:	2402000a 	li	v0,10
b800a9e4:	0a002dd2 	j	b800b748 <get_cause_risc+0xf64>
b800a9e8:	00000000 	nop
b800a9ec:	3c02b82f 	lui	v0,0xb82f
b800a9f0:	34424014 	ori	v0,v0,0x4014
b800a9f4:	8c430000 	lw	v1,0(v0)
b800a9f8:	00000000 	nop
b800a9fc:	3c020008 	lui	v0,0x8
b800aa00:	00621024 	and	v0,v1,v0
b800aa04:	10400004 	beqz	v0,b800aa18 <get_cause_risc+0x234>
b800aa08:	00000000 	nop
b800aa0c:	2402000b 	li	v0,11
b800aa10:	0a002dd2 	j	b800b748 <get_cause_risc+0xf64>
b800aa14:	00000000 	nop
b800aa18:	3c02b82f 	lui	v0,0xb82f
b800aa1c:	34424014 	ori	v0,v0,0x4014
b800aa20:	8c430000 	lw	v1,0(v0)
b800aa24:	00000000 	nop
b800aa28:	3c020004 	lui	v0,0x4
b800aa2c:	00621024 	and	v0,v1,v0
b800aa30:	10400004 	beqz	v0,b800aa44 <get_cause_risc+0x260>
b800aa34:	00000000 	nop
b800aa38:	2402000c 	li	v0,12
b800aa3c:	0a002dd2 	j	b800b748 <get_cause_risc+0xf64>
b800aa40:	00000000 	nop
b800aa44:	3c02b82f 	lui	v0,0xb82f
b800aa48:	34424014 	ori	v0,v0,0x4014
b800aa4c:	8c430000 	lw	v1,0(v0)
b800aa50:	00000000 	nop
b800aa54:	3c020002 	lui	v0,0x2
b800aa58:	00621024 	and	v0,v1,v0
b800aa5c:	10400004 	beqz	v0,b800aa70 <get_cause_risc+0x28c>
b800aa60:	00000000 	nop
b800aa64:	2402000d 	li	v0,13
b800aa68:	0a002dd2 	j	b800b748 <get_cause_risc+0xf64>
b800aa6c:	00000000 	nop
b800aa70:	3c02b82f 	lui	v0,0xb82f
b800aa74:	34424014 	ori	v0,v0,0x4014
b800aa78:	8c430000 	lw	v1,0(v0)
b800aa7c:	00000000 	nop
b800aa80:	3c020001 	lui	v0,0x1
b800aa84:	00621024 	and	v0,v1,v0
b800aa88:	10400004 	beqz	v0,b800aa9c <get_cause_risc+0x2b8>
b800aa8c:	00000000 	nop
b800aa90:	2402000e 	li	v0,14
b800aa94:	0a002dd2 	j	b800b748 <get_cause_risc+0xf64>
b800aa98:	00000000 	nop
b800aa9c:	3c02b82f 	lui	v0,0xb82f
b800aaa0:	34424014 	ori	v0,v0,0x4014
b800aaa4:	8c420000 	lw	v0,0(v0)
	...
b800aab0:	30428000 	andi	v0,v0,0x8000
b800aab4:	10400004 	beqz	v0,b800aac8 <get_cause_risc+0x2e4>
b800aab8:	00000000 	nop
b800aabc:	2402000f 	li	v0,15
b800aac0:	0a002dd2 	j	b800b748 <get_cause_risc+0xf64>
b800aac4:	00000000 	nop
b800aac8:	3c02b82f 	lui	v0,0xb82f
b800aacc:	34424014 	ori	v0,v0,0x4014
b800aad0:	8c420000 	lw	v0,0(v0)
	...
b800aadc:	30424000 	andi	v0,v0,0x4000
b800aae0:	10400004 	beqz	v0,b800aaf4 <get_cause_risc+0x310>
b800aae4:	00000000 	nop
b800aae8:	24020010 	li	v0,16
b800aaec:	0a002dd2 	j	b800b748 <get_cause_risc+0xf64>
b800aaf0:	00000000 	nop
b800aaf4:	3c02b82f 	lui	v0,0xb82f
b800aaf8:	34424014 	ori	v0,v0,0x4014
b800aafc:	8c420000 	lw	v0,0(v0)
	...
b800ab08:	30422000 	andi	v0,v0,0x2000
b800ab0c:	10400004 	beqz	v0,b800ab20 <get_cause_risc+0x33c>
b800ab10:	00000000 	nop
b800ab14:	24020011 	li	v0,17
b800ab18:	0a002dd2 	j	b800b748 <get_cause_risc+0xf64>
b800ab1c:	00000000 	nop
b800ab20:	3c02b82f 	lui	v0,0xb82f
b800ab24:	34424014 	ori	v0,v0,0x4014
b800ab28:	8c420000 	lw	v0,0(v0)
	...
b800ab34:	30421000 	andi	v0,v0,0x1000
b800ab38:	10400004 	beqz	v0,b800ab4c <get_cause_risc+0x368>
b800ab3c:	00000000 	nop
b800ab40:	24020012 	li	v0,18
b800ab44:	0a002dd2 	j	b800b748 <get_cause_risc+0xf64>
b800ab48:	00000000 	nop
b800ab4c:	3c02b82f 	lui	v0,0xb82f
b800ab50:	34424014 	ori	v0,v0,0x4014
b800ab54:	8c420000 	lw	v0,0(v0)
	...
b800ab60:	30420800 	andi	v0,v0,0x800
b800ab64:	10400004 	beqz	v0,b800ab78 <get_cause_risc+0x394>
b800ab68:	00000000 	nop
b800ab6c:	24020013 	li	v0,19
b800ab70:	0a002dd2 	j	b800b748 <get_cause_risc+0xf64>
b800ab74:	00000000 	nop
b800ab78:	3c02b82f 	lui	v0,0xb82f
b800ab7c:	34424014 	ori	v0,v0,0x4014
b800ab80:	8c420000 	lw	v0,0(v0)
	...
b800ab8c:	30420400 	andi	v0,v0,0x400
b800ab90:	10400004 	beqz	v0,b800aba4 <get_cause_risc+0x3c0>
b800ab94:	00000000 	nop
b800ab98:	24020014 	li	v0,20
b800ab9c:	0a002dd2 	j	b800b748 <get_cause_risc+0xf64>
b800aba0:	00000000 	nop
b800aba4:	3c02b82f 	lui	v0,0xb82f
b800aba8:	34424014 	ori	v0,v0,0x4014
b800abac:	8c420000 	lw	v0,0(v0)
	...
b800abb8:	30420200 	andi	v0,v0,0x200
b800abbc:	10400004 	beqz	v0,b800abd0 <get_cause_risc+0x3ec>
b800abc0:	00000000 	nop
b800abc4:	24020015 	li	v0,21
b800abc8:	0a002dd2 	j	b800b748 <get_cause_risc+0xf64>
b800abcc:	00000000 	nop
b800abd0:	3c02b82f 	lui	v0,0xb82f
b800abd4:	34424014 	ori	v0,v0,0x4014
b800abd8:	8c420000 	lw	v0,0(v0)
	...
b800abe4:	30420100 	andi	v0,v0,0x100
b800abe8:	10400004 	beqz	v0,b800abfc <get_cause_risc+0x418>
b800abec:	00000000 	nop
b800abf0:	24020016 	li	v0,22
b800abf4:	0a002dd2 	j	b800b748 <get_cause_risc+0xf64>
b800abf8:	00000000 	nop
b800abfc:	3c02b82f 	lui	v0,0xb82f
b800ac00:	34424014 	ori	v0,v0,0x4014
b800ac04:	8c420000 	lw	v0,0(v0)
	...
b800ac10:	30420080 	andi	v0,v0,0x80
b800ac14:	10400004 	beqz	v0,b800ac28 <get_cause_risc+0x444>
b800ac18:	00000000 	nop
b800ac1c:	24020017 	li	v0,23
b800ac20:	0a002dd2 	j	b800b748 <get_cause_risc+0xf64>
b800ac24:	00000000 	nop
b800ac28:	3c02b82f 	lui	v0,0xb82f
b800ac2c:	34424014 	ori	v0,v0,0x4014
b800ac30:	8c420000 	lw	v0,0(v0)
	...
b800ac3c:	30420040 	andi	v0,v0,0x40
b800ac40:	10400004 	beqz	v0,b800ac54 <get_cause_risc+0x470>
b800ac44:	00000000 	nop
b800ac48:	24020018 	li	v0,24
b800ac4c:	0a002dd2 	j	b800b748 <get_cause_risc+0xf64>
b800ac50:	00000000 	nop
b800ac54:	3c02b82f 	lui	v0,0xb82f
b800ac58:	34424014 	ori	v0,v0,0x4014
b800ac5c:	8c420000 	lw	v0,0(v0)
	...
b800ac68:	30420020 	andi	v0,v0,0x20
b800ac6c:	10400004 	beqz	v0,b800ac80 <get_cause_risc+0x49c>
b800ac70:	00000000 	nop
b800ac74:	24020019 	li	v0,25
b800ac78:	0a002dd2 	j	b800b748 <get_cause_risc+0xf64>
b800ac7c:	00000000 	nop
b800ac80:	3c02b82f 	lui	v0,0xb82f
b800ac84:	34424014 	ori	v0,v0,0x4014
b800ac88:	8c420000 	lw	v0,0(v0)
	...
b800ac94:	30420010 	andi	v0,v0,0x10
b800ac98:	10400004 	beqz	v0,b800acac <get_cause_risc+0x4c8>
b800ac9c:	00000000 	nop
b800aca0:	2402001a 	li	v0,26
b800aca4:	0a002dd2 	j	b800b748 <get_cause_risc+0xf64>
b800aca8:	00000000 	nop
b800acac:	3c02b82f 	lui	v0,0xb82f
b800acb0:	34424014 	ori	v0,v0,0x4014
b800acb4:	8c420000 	lw	v0,0(v0)
	...
b800acc0:	30420008 	andi	v0,v0,0x8
b800acc4:	10400004 	beqz	v0,b800acd8 <get_cause_risc+0x4f4>
b800acc8:	00000000 	nop
b800accc:	2402001b 	li	v0,27
b800acd0:	0a002dd2 	j	b800b748 <get_cause_risc+0xf64>
b800acd4:	00000000 	nop
b800acd8:	3c02b82f 	lui	v0,0xb82f
b800acdc:	34424014 	ori	v0,v0,0x4014
b800ace0:	8c420000 	lw	v0,0(v0)
	...
b800acec:	30420004 	andi	v0,v0,0x4
b800acf0:	10400004 	beqz	v0,b800ad04 <get_cause_risc+0x520>
b800acf4:	00000000 	nop
b800acf8:	2402001c 	li	v0,28
b800acfc:	0a002dd2 	j	b800b748 <get_cause_risc+0xf64>
b800ad00:	00000000 	nop
b800ad04:	3c02b82f 	lui	v0,0xb82f
b800ad08:	34424014 	ori	v0,v0,0x4014
b800ad0c:	8c420000 	lw	v0,0(v0)
	...
b800ad18:	30420002 	andi	v0,v0,0x2
b800ad1c:	10400004 	beqz	v0,b800ad30 <get_cause_risc+0x54c>
b800ad20:	00000000 	nop
b800ad24:	2402001d 	li	v0,29
b800ad28:	0a002dd2 	j	b800b748 <get_cause_risc+0xf64>
b800ad2c:	00000000 	nop
b800ad30:	3c02b82f 	lui	v0,0xb82f
b800ad34:	34424014 	ori	v0,v0,0x4014
b800ad38:	8c420000 	lw	v0,0(v0)
	...
b800ad44:	30420001 	andi	v0,v0,0x1
b800ad48:	1040027f 	beqz	v0,b800b748 <get_cause_risc+0xf64>
b800ad4c:	00000000 	nop
b800ad50:	2402001e 	li	v0,30
b800ad54:	0a002dd2 	j	b800b748 <get_cause_risc+0xf64>
b800ad58:	00000000 	nop
b800ad5c:	8fc20008 	lw	v0,8(s8)
	...
b800ad68:	30420800 	andi	v0,v0,0x800
b800ad6c:	104000b1 	beqz	v0,b800b034 <get_cause_risc+0x850>
b800ad70:	00000000 	nop
b800ad74:	3c02b82f 	lui	v0,0xb82f
b800ad78:	3442401c 	ori	v0,v0,0x401c
b800ad7c:	8c420000 	lw	v0,0(v0)
	...
b800ad88:	30428000 	andi	v0,v0,0x8000
b800ad8c:	10400004 	beqz	v0,b800ada0 <get_cause_risc+0x5bc>
b800ad90:	00000000 	nop
b800ad94:	2402001f 	li	v0,31
b800ad98:	0a002dd2 	j	b800b748 <get_cause_risc+0xf64>
b800ad9c:	00000000 	nop
b800ada0:	3c02b82f 	lui	v0,0xb82f
b800ada4:	3442401c 	ori	v0,v0,0x401c
b800ada8:	8c420000 	lw	v0,0(v0)
	...
b800adb4:	30424000 	andi	v0,v0,0x4000
b800adb8:	10400004 	beqz	v0,b800adcc <get_cause_risc+0x5e8>
b800adbc:	00000000 	nop
b800adc0:	24020020 	li	v0,32
b800adc4:	0a002dd2 	j	b800b748 <get_cause_risc+0xf64>
b800adc8:	00000000 	nop
b800adcc:	3c02b82f 	lui	v0,0xb82f
b800add0:	3442401c 	ori	v0,v0,0x401c
b800add4:	8c420000 	lw	v0,0(v0)
	...
b800ade0:	30422000 	andi	v0,v0,0x2000
b800ade4:	10400004 	beqz	v0,b800adf8 <get_cause_risc+0x614>
b800ade8:	00000000 	nop
b800adec:	24020021 	li	v0,33
b800adf0:	0a002dd2 	j	b800b748 <get_cause_risc+0xf64>
b800adf4:	00000000 	nop
b800adf8:	3c02b82f 	lui	v0,0xb82f
b800adfc:	3442401c 	ori	v0,v0,0x401c
b800ae00:	8c420000 	lw	v0,0(v0)
	...
b800ae0c:	30421000 	andi	v0,v0,0x1000
b800ae10:	10400004 	beqz	v0,b800ae24 <get_cause_risc+0x640>
b800ae14:	00000000 	nop
b800ae18:	24020022 	li	v0,34
b800ae1c:	0a002dd2 	j	b800b748 <get_cause_risc+0xf64>
b800ae20:	00000000 	nop
b800ae24:	3c02b82f 	lui	v0,0xb82f
b800ae28:	3442401c 	ori	v0,v0,0x401c
b800ae2c:	8c420000 	lw	v0,0(v0)
	...
b800ae38:	30420800 	andi	v0,v0,0x800
b800ae3c:	10400004 	beqz	v0,b800ae50 <get_cause_risc+0x66c>
b800ae40:	00000000 	nop
b800ae44:	24020023 	li	v0,35
b800ae48:	0a002dd2 	j	b800b748 <get_cause_risc+0xf64>
b800ae4c:	00000000 	nop
b800ae50:	3c02b82f 	lui	v0,0xb82f
b800ae54:	3442401c 	ori	v0,v0,0x401c
b800ae58:	8c420000 	lw	v0,0(v0)
	...
b800ae64:	30420400 	andi	v0,v0,0x400
b800ae68:	10400004 	beqz	v0,b800ae7c <get_cause_risc+0x698>
b800ae6c:	00000000 	nop
b800ae70:	24020024 	li	v0,36
b800ae74:	0a002dd2 	j	b800b748 <get_cause_risc+0xf64>
b800ae78:	00000000 	nop
b800ae7c:	3c02b82f 	lui	v0,0xb82f
b800ae80:	3442401c 	ori	v0,v0,0x401c
b800ae84:	8c420000 	lw	v0,0(v0)
	...
b800ae90:	30420200 	andi	v0,v0,0x200
b800ae94:	10400004 	beqz	v0,b800aea8 <get_cause_risc+0x6c4>
b800ae98:	00000000 	nop
b800ae9c:	24020025 	li	v0,37
b800aea0:	0a002dd2 	j	b800b748 <get_cause_risc+0xf64>
b800aea4:	00000000 	nop
b800aea8:	3c02b82f 	lui	v0,0xb82f
b800aeac:	3442401c 	ori	v0,v0,0x401c
b800aeb0:	8c420000 	lw	v0,0(v0)
	...
b800aebc:	30420100 	andi	v0,v0,0x100
b800aec0:	10400004 	beqz	v0,b800aed4 <get_cause_risc+0x6f0>
b800aec4:	00000000 	nop
b800aec8:	24020026 	li	v0,38
b800aecc:	0a002dd2 	j	b800b748 <get_cause_risc+0xf64>
b800aed0:	00000000 	nop
b800aed4:	3c02b82f 	lui	v0,0xb82f
b800aed8:	3442401c 	ori	v0,v0,0x401c
b800aedc:	8c420000 	lw	v0,0(v0)
	...
b800aee8:	30420080 	andi	v0,v0,0x80
b800aeec:	10400004 	beqz	v0,b800af00 <get_cause_risc+0x71c>
b800aef0:	00000000 	nop
b800aef4:	24020027 	li	v0,39
b800aef8:	0a002dd2 	j	b800b748 <get_cause_risc+0xf64>
b800aefc:	00000000 	nop
b800af00:	3c02b82f 	lui	v0,0xb82f
b800af04:	3442401c 	ori	v0,v0,0x401c
b800af08:	8c420000 	lw	v0,0(v0)
	...
b800af14:	30420040 	andi	v0,v0,0x40
b800af18:	10400004 	beqz	v0,b800af2c <get_cause_risc+0x748>
b800af1c:	00000000 	nop
b800af20:	24020028 	li	v0,40
b800af24:	0a002dd2 	j	b800b748 <get_cause_risc+0xf64>
b800af28:	00000000 	nop
b800af2c:	3c02b82f 	lui	v0,0xb82f
b800af30:	3442401c 	ori	v0,v0,0x401c
b800af34:	8c420000 	lw	v0,0(v0)
	...
b800af40:	30420020 	andi	v0,v0,0x20
b800af44:	10400004 	beqz	v0,b800af58 <get_cause_risc+0x774>
b800af48:	00000000 	nop
b800af4c:	24020029 	li	v0,41
b800af50:	0a002dd2 	j	b800b748 <get_cause_risc+0xf64>
b800af54:	00000000 	nop
b800af58:	3c02b82f 	lui	v0,0xb82f
b800af5c:	3442401c 	ori	v0,v0,0x401c
b800af60:	8c420000 	lw	v0,0(v0)
	...
b800af6c:	30420010 	andi	v0,v0,0x10
b800af70:	10400004 	beqz	v0,b800af84 <get_cause_risc+0x7a0>
b800af74:	00000000 	nop
b800af78:	2402002a 	li	v0,42
b800af7c:	0a002dd2 	j	b800b748 <get_cause_risc+0xf64>
b800af80:	00000000 	nop
b800af84:	3c02b82f 	lui	v0,0xb82f
b800af88:	3442401c 	ori	v0,v0,0x401c
b800af8c:	8c420000 	lw	v0,0(v0)
	...
b800af98:	30420008 	andi	v0,v0,0x8
b800af9c:	10400004 	beqz	v0,b800afb0 <get_cause_risc+0x7cc>
b800afa0:	00000000 	nop
b800afa4:	2402002b 	li	v0,43
b800afa8:	0a002dd2 	j	b800b748 <get_cause_risc+0xf64>
b800afac:	00000000 	nop
b800afb0:	3c02b82f 	lui	v0,0xb82f
b800afb4:	3442401c 	ori	v0,v0,0x401c
b800afb8:	8c420000 	lw	v0,0(v0)
	...
b800afc4:	30420004 	andi	v0,v0,0x4
b800afc8:	10400004 	beqz	v0,b800afdc <get_cause_risc+0x7f8>
b800afcc:	00000000 	nop
b800afd0:	2402002c 	li	v0,44
b800afd4:	0a002dd2 	j	b800b748 <get_cause_risc+0xf64>
b800afd8:	00000000 	nop
b800afdc:	3c02b82f 	lui	v0,0xb82f
b800afe0:	3442401c 	ori	v0,v0,0x401c
b800afe4:	8c420000 	lw	v0,0(v0)
	...
b800aff0:	30420002 	andi	v0,v0,0x2
b800aff4:	10400004 	beqz	v0,b800b008 <get_cause_risc+0x824>
b800aff8:	00000000 	nop
b800affc:	2402002d 	li	v0,45
b800b000:	0a002dd2 	j	b800b748 <get_cause_risc+0xf64>
b800b004:	00000000 	nop
b800b008:	3c02b82f 	lui	v0,0xb82f
b800b00c:	3442401c 	ori	v0,v0,0x401c
b800b010:	8c420000 	lw	v0,0(v0)
	...
b800b01c:	30420001 	andi	v0,v0,0x1
b800b020:	104001c9 	beqz	v0,b800b748 <get_cause_risc+0xf64>
b800b024:	00000000 	nop
b800b028:	2402002e 	li	v0,46
b800b02c:	0a002dd2 	j	b800b748 <get_cause_risc+0xf64>
b800b030:	00000000 	nop
b800b034:	8fc20008 	lw	v0,8(s8)
	...
b800b040:	30421000 	andi	v0,v0,0x1000
b800b044:	1040011f 	beqz	v0,b800b4c4 <get_cause_risc+0xce0>
b800b048:	00000000 	nop
b800b04c:	3c02b82f 	lui	v0,0xb82f
b800b050:	3442401c 	ori	v0,v0,0x401c
b800b054:	8c430000 	lw	v1,0(v0)
b800b058:	00000000 	nop
b800b05c:	3c020200 	lui	v0,0x200
b800b060:	00621024 	and	v0,v1,v0
b800b064:	10400004 	beqz	v0,b800b078 <get_cause_risc+0x894>
b800b068:	00000000 	nop
b800b06c:	24020030 	li	v0,48
b800b070:	0a002dd2 	j	b800b748 <get_cause_risc+0xf64>
b800b074:	00000000 	nop
b800b078:	3c02b82f 	lui	v0,0xb82f
b800b07c:	3442401c 	ori	v0,v0,0x401c
b800b080:	8c430000 	lw	v1,0(v0)
b800b084:	00000000 	nop
b800b088:	3c020100 	lui	v0,0x100
b800b08c:	00621024 	and	v0,v1,v0
b800b090:	10400004 	beqz	v0,b800b0a4 <get_cause_risc+0x8c0>
b800b094:	00000000 	nop
b800b098:	24020031 	li	v0,49
b800b09c:	0a002dd2 	j	b800b748 <get_cause_risc+0xf64>
b800b0a0:	00000000 	nop
b800b0a4:	3c02b82f 	lui	v0,0xb82f
b800b0a8:	3442401c 	ori	v0,v0,0x401c
b800b0ac:	8c430000 	lw	v1,0(v0)
b800b0b0:	00000000 	nop
b800b0b4:	3c020080 	lui	v0,0x80
b800b0b8:	00621024 	and	v0,v1,v0
b800b0bc:	10400004 	beqz	v0,b800b0d0 <get_cause_risc+0x8ec>
b800b0c0:	00000000 	nop
b800b0c4:	24020032 	li	v0,50
b800b0c8:	0a002dd2 	j	b800b748 <get_cause_risc+0xf64>
b800b0cc:	00000000 	nop
b800b0d0:	3c02b82f 	lui	v0,0xb82f
b800b0d4:	3442401c 	ori	v0,v0,0x401c
b800b0d8:	8c430000 	lw	v1,0(v0)
b800b0dc:	00000000 	nop
b800b0e0:	3c020040 	lui	v0,0x40
b800b0e4:	00621024 	and	v0,v1,v0
b800b0e8:	10400004 	beqz	v0,b800b0fc <get_cause_risc+0x918>
b800b0ec:	00000000 	nop
b800b0f0:	24020033 	li	v0,51
b800b0f4:	0a002dd2 	j	b800b748 <get_cause_risc+0xf64>
b800b0f8:	00000000 	nop
b800b0fc:	3c02b82f 	lui	v0,0xb82f
b800b100:	3442401c 	ori	v0,v0,0x401c
b800b104:	8c430000 	lw	v1,0(v0)
b800b108:	00000000 	nop
b800b10c:	3c020020 	lui	v0,0x20
b800b110:	00621024 	and	v0,v1,v0
b800b114:	10400004 	beqz	v0,b800b128 <get_cause_risc+0x944>
b800b118:	00000000 	nop
b800b11c:	24020034 	li	v0,52
b800b120:	0a002dd2 	j	b800b748 <get_cause_risc+0xf64>
b800b124:	00000000 	nop
b800b128:	3c02b82f 	lui	v0,0xb82f
b800b12c:	3442401c 	ori	v0,v0,0x401c
b800b130:	8c430000 	lw	v1,0(v0)
b800b134:	00000000 	nop
b800b138:	3c020010 	lui	v0,0x10
b800b13c:	00621024 	and	v0,v1,v0
b800b140:	10400004 	beqz	v0,b800b154 <get_cause_risc+0x970>
b800b144:	00000000 	nop
b800b148:	24020035 	li	v0,53
b800b14c:	0a002dd2 	j	b800b748 <get_cause_risc+0xf64>
b800b150:	00000000 	nop
b800b154:	3c02b82f 	lui	v0,0xb82f
b800b158:	3442401c 	ori	v0,v0,0x401c
b800b15c:	8c430000 	lw	v1,0(v0)
b800b160:	00000000 	nop
b800b164:	3c020008 	lui	v0,0x8
b800b168:	00621024 	and	v0,v1,v0
b800b16c:	10400004 	beqz	v0,b800b180 <get_cause_risc+0x99c>
b800b170:	00000000 	nop
b800b174:	24020036 	li	v0,54
b800b178:	0a002dd2 	j	b800b748 <get_cause_risc+0xf64>
b800b17c:	00000000 	nop
b800b180:	3c02b82f 	lui	v0,0xb82f
b800b184:	3442401c 	ori	v0,v0,0x401c
b800b188:	8c430000 	lw	v1,0(v0)
b800b18c:	00000000 	nop
b800b190:	3c020004 	lui	v0,0x4
b800b194:	00621024 	and	v0,v1,v0
b800b198:	10400004 	beqz	v0,b800b1ac <get_cause_risc+0x9c8>
b800b19c:	00000000 	nop
b800b1a0:	24020037 	li	v0,55
b800b1a4:	0a002dd2 	j	b800b748 <get_cause_risc+0xf64>
b800b1a8:	00000000 	nop
b800b1ac:	3c02b82f 	lui	v0,0xb82f
b800b1b0:	3442401c 	ori	v0,v0,0x401c
b800b1b4:	8c430000 	lw	v1,0(v0)
b800b1b8:	00000000 	nop
b800b1bc:	3c020002 	lui	v0,0x2
b800b1c0:	00621024 	and	v0,v1,v0
b800b1c4:	10400004 	beqz	v0,b800b1d8 <get_cause_risc+0x9f4>
b800b1c8:	00000000 	nop
b800b1cc:	24020038 	li	v0,56
b800b1d0:	0a002dd2 	j	b800b748 <get_cause_risc+0xf64>
b800b1d4:	00000000 	nop
b800b1d8:	3c02b82f 	lui	v0,0xb82f
b800b1dc:	3442401c 	ori	v0,v0,0x401c
b800b1e0:	8c430000 	lw	v1,0(v0)
b800b1e4:	00000000 	nop
b800b1e8:	3c020001 	lui	v0,0x1
b800b1ec:	00621024 	and	v0,v1,v0
b800b1f0:	10400004 	beqz	v0,b800b204 <get_cause_risc+0xa20>
b800b1f4:	00000000 	nop
b800b1f8:	24020039 	li	v0,57
b800b1fc:	0a002dd2 	j	b800b748 <get_cause_risc+0xf64>
b800b200:	00000000 	nop
b800b204:	3c02b82f 	lui	v0,0xb82f
b800b208:	34424024 	ori	v0,v0,0x4024
b800b20c:	8c420000 	lw	v0,0(v0)
	...
b800b218:	30428000 	andi	v0,v0,0x8000
b800b21c:	10400004 	beqz	v0,b800b230 <get_cause_risc+0xa4c>
b800b220:	00000000 	nop
b800b224:	2402003a 	li	v0,58
b800b228:	0a002dd2 	j	b800b748 <get_cause_risc+0xf64>
b800b22c:	00000000 	nop
b800b230:	3c02b82f 	lui	v0,0xb82f
b800b234:	34424024 	ori	v0,v0,0x4024
b800b238:	8c420000 	lw	v0,0(v0)
	...
b800b244:	30424000 	andi	v0,v0,0x4000
b800b248:	10400004 	beqz	v0,b800b25c <get_cause_risc+0xa78>
b800b24c:	00000000 	nop
b800b250:	2402003b 	li	v0,59
b800b254:	0a002dd2 	j	b800b748 <get_cause_risc+0xf64>
b800b258:	00000000 	nop
b800b25c:	3c02b82f 	lui	v0,0xb82f
b800b260:	34424024 	ori	v0,v0,0x4024
b800b264:	8c420000 	lw	v0,0(v0)
	...
b800b270:	30422000 	andi	v0,v0,0x2000
b800b274:	10400004 	beqz	v0,b800b288 <get_cause_risc+0xaa4>
b800b278:	00000000 	nop
b800b27c:	2402003c 	li	v0,60
b800b280:	0a002dd2 	j	b800b748 <get_cause_risc+0xf64>
b800b284:	00000000 	nop
b800b288:	3c02b82f 	lui	v0,0xb82f
b800b28c:	34424024 	ori	v0,v0,0x4024
b800b290:	8c420000 	lw	v0,0(v0)
	...
b800b29c:	30421000 	andi	v0,v0,0x1000
b800b2a0:	10400004 	beqz	v0,b800b2b4 <get_cause_risc+0xad0>
b800b2a4:	00000000 	nop
b800b2a8:	2402003d 	li	v0,61
b800b2ac:	0a002dd2 	j	b800b748 <get_cause_risc+0xf64>
b800b2b0:	00000000 	nop
b800b2b4:	3c02b82f 	lui	v0,0xb82f
b800b2b8:	34424024 	ori	v0,v0,0x4024
b800b2bc:	8c420000 	lw	v0,0(v0)
	...
b800b2c8:	30420800 	andi	v0,v0,0x800
b800b2cc:	10400004 	beqz	v0,b800b2e0 <get_cause_risc+0xafc>
b800b2d0:	00000000 	nop
b800b2d4:	2402003e 	li	v0,62
b800b2d8:	0a002dd2 	j	b800b748 <get_cause_risc+0xf64>
b800b2dc:	00000000 	nop
b800b2e0:	3c02b82f 	lui	v0,0xb82f
b800b2e4:	34424024 	ori	v0,v0,0x4024
b800b2e8:	8c420000 	lw	v0,0(v0)
	...
b800b2f4:	30420400 	andi	v0,v0,0x400
b800b2f8:	10400004 	beqz	v0,b800b30c <get_cause_risc+0xb28>
b800b2fc:	00000000 	nop
b800b300:	2402003f 	li	v0,63
b800b304:	0a002dd2 	j	b800b748 <get_cause_risc+0xf64>
b800b308:	00000000 	nop
b800b30c:	3c02b82f 	lui	v0,0xb82f
b800b310:	34424024 	ori	v0,v0,0x4024
b800b314:	8c420000 	lw	v0,0(v0)
	...
b800b320:	30420200 	andi	v0,v0,0x200
b800b324:	10400004 	beqz	v0,b800b338 <get_cause_risc+0xb54>
b800b328:	00000000 	nop
b800b32c:	24020040 	li	v0,64
b800b330:	0a002dd2 	j	b800b748 <get_cause_risc+0xf64>
b800b334:	00000000 	nop
b800b338:	3c02b82f 	lui	v0,0xb82f
b800b33c:	34424024 	ori	v0,v0,0x4024
b800b340:	8c420000 	lw	v0,0(v0)
	...
b800b34c:	30420100 	andi	v0,v0,0x100
b800b350:	10400004 	beqz	v0,b800b364 <get_cause_risc+0xb80>
b800b354:	00000000 	nop
b800b358:	24020041 	li	v0,65
b800b35c:	0a002dd2 	j	b800b748 <get_cause_risc+0xf64>
b800b360:	00000000 	nop
b800b364:	3c02b82f 	lui	v0,0xb82f
b800b368:	34424024 	ori	v0,v0,0x4024
b800b36c:	8c420000 	lw	v0,0(v0)
	...
b800b378:	30420080 	andi	v0,v0,0x80
b800b37c:	10400004 	beqz	v0,b800b390 <get_cause_risc+0xbac>
b800b380:	00000000 	nop
b800b384:	24020042 	li	v0,66
b800b388:	0a002dd2 	j	b800b748 <get_cause_risc+0xf64>
b800b38c:	00000000 	nop
b800b390:	3c02b82f 	lui	v0,0xb82f
b800b394:	34424024 	ori	v0,v0,0x4024
b800b398:	8c420000 	lw	v0,0(v0)
	...
b800b3a4:	30420040 	andi	v0,v0,0x40
b800b3a8:	10400004 	beqz	v0,b800b3bc <get_cause_risc+0xbd8>
b800b3ac:	00000000 	nop
b800b3b0:	24020043 	li	v0,67
b800b3b4:	0a002dd2 	j	b800b748 <get_cause_risc+0xf64>
b800b3b8:	00000000 	nop
b800b3bc:	3c02b82f 	lui	v0,0xb82f
b800b3c0:	34424024 	ori	v0,v0,0x4024
b800b3c4:	8c420000 	lw	v0,0(v0)
	...
b800b3d0:	30420020 	andi	v0,v0,0x20
b800b3d4:	10400004 	beqz	v0,b800b3e8 <get_cause_risc+0xc04>
b800b3d8:	00000000 	nop
b800b3dc:	24020044 	li	v0,68
b800b3e0:	0a002dd2 	j	b800b748 <get_cause_risc+0xf64>
b800b3e4:	00000000 	nop
b800b3e8:	3c02b82f 	lui	v0,0xb82f
b800b3ec:	34424024 	ori	v0,v0,0x4024
b800b3f0:	8c420000 	lw	v0,0(v0)
	...
b800b3fc:	30420010 	andi	v0,v0,0x10
b800b400:	10400004 	beqz	v0,b800b414 <get_cause_risc+0xc30>
b800b404:	00000000 	nop
b800b408:	24020045 	li	v0,69
b800b40c:	0a002dd2 	j	b800b748 <get_cause_risc+0xf64>
b800b410:	00000000 	nop
b800b414:	3c02b82f 	lui	v0,0xb82f
b800b418:	34424024 	ori	v0,v0,0x4024
b800b41c:	8c420000 	lw	v0,0(v0)
	...
b800b428:	30420008 	andi	v0,v0,0x8
b800b42c:	10400004 	beqz	v0,b800b440 <get_cause_risc+0xc5c>
b800b430:	00000000 	nop
b800b434:	24020046 	li	v0,70
b800b438:	0a002dd2 	j	b800b748 <get_cause_risc+0xf64>
b800b43c:	00000000 	nop
b800b440:	3c02b82f 	lui	v0,0xb82f
b800b444:	34424024 	ori	v0,v0,0x4024
b800b448:	8c420000 	lw	v0,0(v0)
	...
b800b454:	30420004 	andi	v0,v0,0x4
b800b458:	10400004 	beqz	v0,b800b46c <get_cause_risc+0xc88>
b800b45c:	00000000 	nop
b800b460:	24020047 	li	v0,71
b800b464:	0a002dd2 	j	b800b748 <get_cause_risc+0xf64>
b800b468:	00000000 	nop
b800b46c:	3c02b82f 	lui	v0,0xb82f
b800b470:	34424024 	ori	v0,v0,0x4024
b800b474:	8c420000 	lw	v0,0(v0)
	...
b800b480:	30420002 	andi	v0,v0,0x2
b800b484:	10400004 	beqz	v0,b800b498 <get_cause_risc+0xcb4>
b800b488:	00000000 	nop
b800b48c:	24020048 	li	v0,72
b800b490:	0a002dd2 	j	b800b748 <get_cause_risc+0xf64>
b800b494:	00000000 	nop
b800b498:	3c02b82f 	lui	v0,0xb82f
b800b49c:	34424024 	ori	v0,v0,0x4024
b800b4a0:	8c420000 	lw	v0,0(v0)
	...
b800b4ac:	30420001 	andi	v0,v0,0x1
b800b4b0:	104000a5 	beqz	v0,b800b748 <get_cause_risc+0xf64>
b800b4b4:	00000000 	nop
b800b4b8:	24020049 	li	v0,73
b800b4bc:	0a002dd2 	j	b800b748 <get_cause_risc+0xf64>
b800b4c0:	00000000 	nop
b800b4c4:	8fc20008 	lw	v0,8(s8)
	...
b800b4d0:	30424000 	andi	v0,v0,0x4000
b800b4d4:	10400004 	beqz	v0,b800b4e8 <get_cause_risc+0xd04>
b800b4d8:	00000000 	nop
b800b4dc:	2402004a 	li	v0,74
b800b4e0:	0a002dd2 	j	b800b748 <get_cause_risc+0xf64>
b800b4e4:	00000000 	nop
b800b4e8:	8fc20008 	lw	v0,8(s8)
	...
b800b4f4:	30428000 	andi	v0,v0,0x8000
b800b4f8:	10400004 	beqz	v0,b800b50c <get_cause_risc+0xd28>
b800b4fc:	00000000 	nop
b800b500:	2402004b 	li	v0,75
b800b504:	0a002dd2 	j	b800b748 <get_cause_risc+0xf64>
b800b508:	00000000 	nop
b800b50c:	8fc20008 	lw	v0,8(s8)
	...
b800b518:	3042007f 	andi	v0,v0,0x7f
b800b51c:	00021882 	srl	v1,v0,0x2
b800b520:	24020001 	li	v0,1
b800b524:	14620004 	bne	v1,v0,b800b538 <get_cause_risc+0xd54>
b800b528:	00000000 	nop
b800b52c:	2402004c 	li	v0,76
b800b530:	0a002dd2 	j	b800b748 <get_cause_risc+0xf64>
b800b534:	00000000 	nop
b800b538:	8fc20008 	lw	v0,8(s8)
	...
b800b544:	3042007f 	andi	v0,v0,0x7f
b800b548:	00021882 	srl	v1,v0,0x2
b800b54c:	24020002 	li	v0,2
b800b550:	14620004 	bne	v1,v0,b800b564 <get_cause_risc+0xd80>
b800b554:	00000000 	nop
b800b558:	2402004d 	li	v0,77
b800b55c:	0a002dd2 	j	b800b748 <get_cause_risc+0xf64>
b800b560:	00000000 	nop
b800b564:	8fc20008 	lw	v0,8(s8)
	...
b800b570:	3042007f 	andi	v0,v0,0x7f
b800b574:	00021882 	srl	v1,v0,0x2
b800b578:	24020003 	li	v0,3
b800b57c:	14620004 	bne	v1,v0,b800b590 <get_cause_risc+0xdac>
b800b580:	00000000 	nop
b800b584:	2402004e 	li	v0,78
b800b588:	0a002dd2 	j	b800b748 <get_cause_risc+0xf64>
b800b58c:	00000000 	nop
b800b590:	8fc20008 	lw	v0,8(s8)
	...
b800b59c:	3042007f 	andi	v0,v0,0x7f
b800b5a0:	00021882 	srl	v1,v0,0x2
b800b5a4:	24020004 	li	v0,4
b800b5a8:	14620004 	bne	v1,v0,b800b5bc <get_cause_risc+0xdd8>
b800b5ac:	00000000 	nop
b800b5b0:	2402004f 	li	v0,79
b800b5b4:	0a002dd2 	j	b800b748 <get_cause_risc+0xf64>
b800b5b8:	00000000 	nop
b800b5bc:	8fc20008 	lw	v0,8(s8)
	...
b800b5c8:	3042007f 	andi	v0,v0,0x7f
b800b5cc:	00021882 	srl	v1,v0,0x2
b800b5d0:	24020005 	li	v0,5
b800b5d4:	14620004 	bne	v1,v0,b800b5e8 <get_cause_risc+0xe04>
b800b5d8:	00000000 	nop
b800b5dc:	24020050 	li	v0,80
b800b5e0:	0a002dd2 	j	b800b748 <get_cause_risc+0xf64>
b800b5e4:	00000000 	nop
b800b5e8:	8fc20008 	lw	v0,8(s8)
	...
b800b5f4:	3042007f 	andi	v0,v0,0x7f
b800b5f8:	00021882 	srl	v1,v0,0x2
b800b5fc:	24020008 	li	v0,8
b800b600:	14620004 	bne	v1,v0,b800b614 <get_cause_risc+0xe30>
b800b604:	00000000 	nop
b800b608:	24020051 	li	v0,81
b800b60c:	0a002dd2 	j	b800b748 <get_cause_risc+0xf64>
b800b610:	00000000 	nop
b800b614:	8fc20008 	lw	v0,8(s8)
	...
b800b620:	3042007f 	andi	v0,v0,0x7f
b800b624:	00021882 	srl	v1,v0,0x2
b800b628:	24020009 	li	v0,9
b800b62c:	14620004 	bne	v1,v0,b800b640 <get_cause_risc+0xe5c>
b800b630:	00000000 	nop
b800b634:	24020052 	li	v0,82
b800b638:	0a002dd2 	j	b800b748 <get_cause_risc+0xf64>
b800b63c:	00000000 	nop
b800b640:	8fc20008 	lw	v0,8(s8)
	...
b800b64c:	3042007f 	andi	v0,v0,0x7f
b800b650:	00021882 	srl	v1,v0,0x2
b800b654:	2402000a 	li	v0,10
b800b658:	14620004 	bne	v1,v0,b800b66c <get_cause_risc+0xe88>
b800b65c:	00000000 	nop
b800b660:	24020053 	li	v0,83
b800b664:	0a002dd2 	j	b800b748 <get_cause_risc+0xf64>
b800b668:	00000000 	nop
b800b66c:	8fc20008 	lw	v0,8(s8)
	...
b800b678:	3042007f 	andi	v0,v0,0x7f
b800b67c:	00021882 	srl	v1,v0,0x2
b800b680:	2402000b 	li	v0,11
b800b684:	14620004 	bne	v1,v0,b800b698 <get_cause_risc+0xeb4>
b800b688:	00000000 	nop
b800b68c:	24020054 	li	v0,84
b800b690:	0a002dd2 	j	b800b748 <get_cause_risc+0xf64>
b800b694:	00000000 	nop
b800b698:	8fc20008 	lw	v0,8(s8)
	...
b800b6a4:	3042007f 	andi	v0,v0,0x7f
b800b6a8:	00021882 	srl	v1,v0,0x2
b800b6ac:	2402000c 	li	v0,12
b800b6b0:	14620004 	bne	v1,v0,b800b6c4 <get_cause_risc+0xee0>
b800b6b4:	00000000 	nop
b800b6b8:	24020055 	li	v0,85
b800b6bc:	0a002dd2 	j	b800b748 <get_cause_risc+0xf64>
b800b6c0:	00000000 	nop
b800b6c4:	8fc20008 	lw	v0,8(s8)
	...
b800b6d0:	3042007f 	andi	v0,v0,0x7f
b800b6d4:	00021882 	srl	v1,v0,0x2
b800b6d8:	2402000d 	li	v0,13
b800b6dc:	14620004 	bne	v1,v0,b800b6f0 <get_cause_risc+0xf0c>
b800b6e0:	00000000 	nop
b800b6e4:	24020056 	li	v0,86
b800b6e8:	0a002dd2 	j	b800b748 <get_cause_risc+0xf64>
b800b6ec:	00000000 	nop
b800b6f0:	8fc20008 	lw	v0,8(s8)
	...
b800b6fc:	3042007f 	andi	v0,v0,0x7f
b800b700:	00021882 	srl	v1,v0,0x2
b800b704:	2402000f 	li	v0,15
b800b708:	14620004 	bne	v1,v0,b800b71c <get_cause_risc+0xf38>
b800b70c:	00000000 	nop
b800b710:	24020057 	li	v0,87
b800b714:	0a002dd2 	j	b800b748 <get_cause_risc+0xf64>
b800b718:	00000000 	nop
b800b71c:	8fc20008 	lw	v0,8(s8)
	...
b800b728:	3042007f 	andi	v0,v0,0x7f
b800b72c:	00021882 	srl	v1,v0,0x2
b800b730:	24020018 	li	v0,24
b800b734:	14620004 	bne	v1,v0,b800b748 <get_cause_risc+0xf64>
b800b738:	00000000 	nop
b800b73c:	24020058 	li	v0,88
b800b740:	0a002dd2 	j	b800b748 <get_cause_risc+0xf64>
b800b744:	00000000 	nop
b800b748:	03c0e821 	move	sp,s8
b800b74c:	8fbe0004 	lw	s8,4(sp)
b800b750:	00000000 	nop
b800b754:	27bd0008 	addiu	sp,sp,8
b800b758:	03e00008 	jr	ra
b800b75c:	00000000 	nop

b800b760 <risc_common_handler>:
b800b760:	27bdffe0 	addiu	sp,sp,-32
b800b764:	afbf001c 	sw	ra,28(sp)
b800b768:	afbe0018 	sw	s8,24(sp)
b800b76c:	03a0f021 	move	s8,sp
b800b770:	afc00010 	sw	zero,16(s8)
b800b774:	afc00014 	sw	zero,20(s8)
b800b778:	40026800 	mfc0	v0,c0_cause
b800b77c:	afc20010 	sw	v0,16(s8)
b800b780:	8fc40010 	lw	a0,16(s8)
b800b784:	00000000 	nop
b800b788:	0e0029f9 	jal	b800a7e4 <get_cause_risc>
b800b78c:	00000000 	nop
b800b790:	afc20014 	sw	v0,20(s8)
b800b794:	8fc20014 	lw	v0,20(s8)
b800b798:	00000000 	nop
b800b79c:	2842001f 	slti	v0,v0,31
b800b7a0:	144000ac 	bnez	v0,b800ba54 <risc_common_handler+0x2f4>
b800b7a4:	00000000 	nop
b800b7a8:	8fc20014 	lw	v0,20(s8)
b800b7ac:	00000000 	nop
b800b7b0:	2842002f 	slti	v0,v0,47
b800b7b4:	104000a7 	beqz	v0,b800ba54 <risc_common_handler+0x2f4>
b800b7b8:	00000000 	nop
b800b7bc:	3c02b801 	lui	v0,0xb801
b800b7c0:	2442cd38 	addiu	v0,v0,-13000
b800b7c4:	8c4300bc 	lw	v1,188(v0)
b800b7c8:	00000000 	nop
b800b7cc:	2402ffff 	li	v0,-1
b800b7d0:	106200a0 	beq	v1,v0,b800ba54 <risc_common_handler+0x2f4>
b800b7d4:	00000000 	nop
b800b7d8:	8fc20014 	lw	v0,20(s8)
b800b7dc:	00000000 	nop
b800b7e0:	2442ffe1 	addiu	v0,v0,-31
b800b7e4:	2c430010 	sltiu	v1,v0,16
b800b7e8:	106000f0 	beqz	v1,b800bbac <risc_common_handler+0x44c>
b800b7ec:	00000000 	nop
b800b7f0:	00021880 	sll	v1,v0,0x2
b800b7f4:	3c02b801 	lui	v0,0xb801
b800b7f8:	2442d868 	addiu	v0,v0,-10136
b800b7fc:	00621021 	addu	v0,v1,v0
b800b800:	8c420000 	lw	v0,0(v0)
b800b804:	00000000 	nop
b800b808:	00400008 	jr	v0
b800b80c:	00000000 	nop
b800b810:	3c02b801 	lui	v0,0xb801
b800b814:	2442cd38 	addiu	v0,v0,-13000
b800b818:	8c4200bc 	lw	v0,188(v0)
b800b81c:	00000000 	nop
b800b820:	24040011 	li	a0,17
b800b824:	0040f809 	jalr	v0
b800b828:	00000000 	nop
b800b82c:	0a002e93 	j	b800ba4c <risc_common_handler+0x2ec>
b800b830:	00000000 	nop
b800b834:	3c02b801 	lui	v0,0xb801
b800b838:	2442cd38 	addiu	v0,v0,-13000
b800b83c:	8c4200bc 	lw	v0,188(v0)
b800b840:	00000000 	nop
b800b844:	24040010 	li	a0,16
b800b848:	0040f809 	jalr	v0
b800b84c:	00000000 	nop
b800b850:	0a002e93 	j	b800ba4c <risc_common_handler+0x2ec>
b800b854:	00000000 	nop
b800b858:	3c02b801 	lui	v0,0xb801
b800b85c:	2442cd38 	addiu	v0,v0,-13000
b800b860:	8c4200bc 	lw	v0,188(v0)
b800b864:	00000000 	nop
b800b868:	2404000f 	li	a0,15
b800b86c:	0040f809 	jalr	v0
b800b870:	00000000 	nop
b800b874:	0a002e93 	j	b800ba4c <risc_common_handler+0x2ec>
b800b878:	00000000 	nop
b800b87c:	3c02b801 	lui	v0,0xb801
b800b880:	2442cd38 	addiu	v0,v0,-13000
b800b884:	8c4200bc 	lw	v0,188(v0)
b800b888:	00000000 	nop
b800b88c:	2404000e 	li	a0,14
b800b890:	0040f809 	jalr	v0
b800b894:	00000000 	nop
b800b898:	0a002e93 	j	b800ba4c <risc_common_handler+0x2ec>
b800b89c:	00000000 	nop
b800b8a0:	3c02b801 	lui	v0,0xb801
b800b8a4:	2442cd38 	addiu	v0,v0,-13000
b800b8a8:	8c4200bc 	lw	v0,188(v0)
b800b8ac:	00000000 	nop
b800b8b0:	2404000d 	li	a0,13
b800b8b4:	0040f809 	jalr	v0
b800b8b8:	00000000 	nop
b800b8bc:	0a002e93 	j	b800ba4c <risc_common_handler+0x2ec>
b800b8c0:	00000000 	nop
b800b8c4:	3c02b801 	lui	v0,0xb801
b800b8c8:	2442cd38 	addiu	v0,v0,-13000
b800b8cc:	8c4200bc 	lw	v0,188(v0)
b800b8d0:	00000000 	nop
b800b8d4:	2404000c 	li	a0,12
b800b8d8:	0040f809 	jalr	v0
b800b8dc:	00000000 	nop
b800b8e0:	0a002e93 	j	b800ba4c <risc_common_handler+0x2ec>
b800b8e4:	00000000 	nop
b800b8e8:	3c02b801 	lui	v0,0xb801
b800b8ec:	2442cd38 	addiu	v0,v0,-13000
b800b8f0:	8c4200bc 	lw	v0,188(v0)
b800b8f4:	00000000 	nop
b800b8f8:	2404000b 	li	a0,11
b800b8fc:	0040f809 	jalr	v0
b800b900:	00000000 	nop
b800b904:	0a002e93 	j	b800ba4c <risc_common_handler+0x2ec>
b800b908:	00000000 	nop
b800b90c:	3c02b801 	lui	v0,0xb801
b800b910:	2442cd38 	addiu	v0,v0,-13000
b800b914:	8c4200bc 	lw	v0,188(v0)
b800b918:	00000000 	nop
b800b91c:	2404000a 	li	a0,10
b800b920:	0040f809 	jalr	v0
b800b924:	00000000 	nop
b800b928:	0a002e93 	j	b800ba4c <risc_common_handler+0x2ec>
b800b92c:	00000000 	nop
b800b930:	3c02b801 	lui	v0,0xb801
b800b934:	2442cd38 	addiu	v0,v0,-13000
b800b938:	8c4200bc 	lw	v0,188(v0)
b800b93c:	00000000 	nop
b800b940:	24040007 	li	a0,7
b800b944:	0040f809 	jalr	v0
b800b948:	00000000 	nop
b800b94c:	0a002e93 	j	b800ba4c <risc_common_handler+0x2ec>
b800b950:	00000000 	nop
b800b954:	3c02b801 	lui	v0,0xb801
b800b958:	2442cd38 	addiu	v0,v0,-13000
b800b95c:	8c4200bc 	lw	v0,188(v0)
b800b960:	00000000 	nop
b800b964:	24040006 	li	a0,6
b800b968:	0040f809 	jalr	v0
b800b96c:	00000000 	nop
b800b970:	0a002e93 	j	b800ba4c <risc_common_handler+0x2ec>
b800b974:	00000000 	nop
b800b978:	3c02b801 	lui	v0,0xb801
b800b97c:	2442cd38 	addiu	v0,v0,-13000
b800b980:	8c4200bc 	lw	v0,188(v0)
b800b984:	00000000 	nop
b800b988:	24040005 	li	a0,5
b800b98c:	0040f809 	jalr	v0
b800b990:	00000000 	nop
b800b994:	0a002e93 	j	b800ba4c <risc_common_handler+0x2ec>
b800b998:	00000000 	nop
b800b99c:	3c02b801 	lui	v0,0xb801
b800b9a0:	2442cd38 	addiu	v0,v0,-13000
b800b9a4:	8c4200bc 	lw	v0,188(v0)
b800b9a8:	00000000 	nop
b800b9ac:	24040004 	li	a0,4
b800b9b0:	0040f809 	jalr	v0
b800b9b4:	00000000 	nop
b800b9b8:	0a002e93 	j	b800ba4c <risc_common_handler+0x2ec>
b800b9bc:	00000000 	nop
b800b9c0:	3c02b801 	lui	v0,0xb801
b800b9c4:	2442cd38 	addiu	v0,v0,-13000
b800b9c8:	8c4200bc 	lw	v0,188(v0)
b800b9cc:	00000000 	nop
b800b9d0:	24040003 	li	a0,3
b800b9d4:	0040f809 	jalr	v0
b800b9d8:	00000000 	nop
b800b9dc:	0a002e93 	j	b800ba4c <risc_common_handler+0x2ec>
b800b9e0:	00000000 	nop
b800b9e4:	3c02b801 	lui	v0,0xb801
b800b9e8:	2442cd38 	addiu	v0,v0,-13000
b800b9ec:	8c4200bc 	lw	v0,188(v0)
b800b9f0:	00000000 	nop
b800b9f4:	24040002 	li	a0,2
b800b9f8:	0040f809 	jalr	v0
b800b9fc:	00000000 	nop
b800ba00:	0a002e93 	j	b800ba4c <risc_common_handler+0x2ec>
b800ba04:	00000000 	nop
b800ba08:	3c02b801 	lui	v0,0xb801
b800ba0c:	2442cd38 	addiu	v0,v0,-13000
b800ba10:	8c4200bc 	lw	v0,188(v0)
b800ba14:	00000000 	nop
b800ba18:	24040001 	li	a0,1
b800ba1c:	0040f809 	jalr	v0
b800ba20:	00000000 	nop
b800ba24:	0a002e93 	j	b800ba4c <risc_common_handler+0x2ec>
b800ba28:	00000000 	nop
b800ba2c:	3c02b801 	lui	v0,0xb801
b800ba30:	2442cd38 	addiu	v0,v0,-13000
b800ba34:	8c4200bc 	lw	v0,188(v0)
b800ba38:	00000000 	nop
b800ba3c:	00002021 	move	a0,zero
b800ba40:	0040f809 	jalr	v0
b800ba44:	00000000 	nop
b800ba48:	00000000 	nop
b800ba4c:	0a002eeb 	j	b800bbac <risc_common_handler+0x44c>
b800ba50:	00000000 	nop
b800ba54:	8fc30014 	lw	v1,20(s8)
b800ba58:	00000000 	nop
b800ba5c:	2402004a 	li	v0,74
b800ba60:	1462003a 	bne	v1,v0,b800bb4c <risc_common_handler+0x3ec>
b800ba64:	00000000 	nop
b800ba68:	3c02b801 	lui	v0,0xb801
b800ba6c:	2442cd38 	addiu	v0,v0,-13000
b800ba70:	8c430128 	lw	v1,296(v0)
b800ba74:	00000000 	nop
b800ba78:	2402ffff 	li	v0,-1
b800ba7c:	10620033 	beq	v1,v0,b800bb4c <risc_common_handler+0x3ec>
b800ba80:	00000000 	nop
b800ba84:	3c02b848 	lui	v0,0xb848
b800ba88:	34420100 	ori	v0,v0,0x100
b800ba8c:	8c420000 	lw	v0,0(v0)
b800ba90:	00000000 	nop
b800ba94:	30420001 	andi	v0,v0,0x1
b800ba98:	10400012 	beqz	v0,b800bae4 <risc_common_handler+0x384>
b800ba9c:	00000000 	nop
b800baa0:	3c02b801 	lui	v0,0xb801
b800baa4:	8fc30014 	lw	v1,20(s8)
b800baa8:	00000000 	nop
b800baac:	00031880 	sll	v1,v1,0x2
b800bab0:	2442cd38 	addiu	v0,v0,-13000
b800bab4:	00621021 	addu	v0,v1,v0
b800bab8:	8c420000 	lw	v0,0(v0)
b800babc:	00000000 	nop
b800bac0:	3c03b848 	lui	v1,0xb848
b800bac4:	3463003c 	ori	v1,v1,0x3c
b800bac8:	8c630000 	lw	v1,0(v1)
b800bacc:	00000000 	nop
b800bad0:	00602021 	move	a0,v1
b800bad4:	0040f809 	jalr	v0
b800bad8:	00000000 	nop
b800badc:	0a002ed1 	j	b800bb44 <risc_common_handler+0x3e4>
b800bae0:	00000000 	nop
b800bae4:	3c02b888 	lui	v0,0xb888
b800bae8:	34420100 	ori	v0,v0,0x100
b800baec:	8c420000 	lw	v0,0(v0)
b800baf0:	00000000 	nop
b800baf4:	30420001 	andi	v0,v0,0x1
b800baf8:	10400012 	beqz	v0,b800bb44 <risc_common_handler+0x3e4>
b800bafc:	00000000 	nop
b800bb00:	3c02b801 	lui	v0,0xb801
b800bb04:	8fc30014 	lw	v1,20(s8)
b800bb08:	00000000 	nop
b800bb0c:	00031880 	sll	v1,v1,0x2
b800bb10:	2442cd38 	addiu	v0,v0,-13000
b800bb14:	00621021 	addu	v0,v1,v0
b800bb18:	8c420000 	lw	v0,0(v0)
b800bb1c:	00000000 	nop
b800bb20:	3c03b888 	lui	v1,0xb888
b800bb24:	3463003c 	ori	v1,v1,0x3c
b800bb28:	8c630000 	lw	v1,0(v1)
b800bb2c:	00000000 	nop
b800bb30:	00602021 	move	a0,v1
b800bb34:	0040f809 	jalr	v0
b800bb38:	00000000 	nop
b800bb3c:	0a002eec 	j	b800bbb0 <risc_common_handler+0x450>
b800bb40:	00000000 	nop
b800bb44:	0a002eec 	j	b800bbb0 <risc_common_handler+0x450>
b800bb48:	00000000 	nop
b800bb4c:	3c02b801 	lui	v0,0xb801
b800bb50:	8fc30014 	lw	v1,20(s8)
b800bb54:	00000000 	nop
b800bb58:	00031880 	sll	v1,v1,0x2
b800bb5c:	2442cd38 	addiu	v0,v0,-13000
b800bb60:	00621021 	addu	v0,v1,v0
b800bb64:	8c430000 	lw	v1,0(v0)
b800bb68:	00000000 	nop
b800bb6c:	2402ffff 	li	v0,-1
b800bb70:	1062000f 	beq	v1,v0,b800bbb0 <risc_common_handler+0x450>
b800bb74:	00000000 	nop
b800bb78:	3c02b801 	lui	v0,0xb801
b800bb7c:	8fc30014 	lw	v1,20(s8)
b800bb80:	00000000 	nop
b800bb84:	00031880 	sll	v1,v1,0x2
b800bb88:	2442cd38 	addiu	v0,v0,-13000
b800bb8c:	00621021 	addu	v0,v1,v0
b800bb90:	8c420000 	lw	v0,0(v0)
b800bb94:	00000000 	nop
b800bb98:	2404ffff 	li	a0,-1
b800bb9c:	0040f809 	jalr	v0
b800bba0:	00000000 	nop
b800bba4:	0a002eec 	j	b800bbb0 <risc_common_handler+0x450>
b800bba8:	00000000 	nop
b800bbac:	00000000 	nop
b800bbb0:	03c0e821 	move	sp,s8
b800bbb4:	8fbf001c 	lw	ra,28(sp)
b800bbb8:	00000000 	nop
b800bbbc:	8fbe0018 	lw	s8,24(sp)
b800bbc0:	00000000 	nop
b800bbc4:	27bd0020 	addiu	sp,sp,32
b800bbc8:	03e00008 	jr	ra
b800bbcc:	00000000 	nop

b800bbd0 <assign_dma_rx_desc>:
b800bbd0:	27bdfff8 	addiu	sp,sp,-8
b800bbd4:	afbe0004 	sw	s8,4(sp)
b800bbd8:	03a0f021 	move	s8,sp
b800bbdc:	afc40008 	sw	a0,8(s8)
b800bbe0:	3c02b801 	lui	v0,0xb801
b800bbe4:	8fc30008 	lw	v1,8(s8)
	...
b800bbf0:	ac43db60 	sw	v1,-9376(v0)
b800bbf4:	03c0e821 	move	sp,s8
b800bbf8:	8fbe0004 	lw	s8,4(sp)
b800bbfc:	00000000 	nop
b800bc00:	27bd0008 	addiu	sp,sp,8
b800bc04:	03e00008 	jr	ra
b800bc08:	00000000 	nop

b800bc0c <assign_dma_rx_data>:
b800bc0c:	27bdfff8 	addiu	sp,sp,-8
b800bc10:	afbe0004 	sw	s8,4(sp)
b800bc14:	03a0f021 	move	s8,sp
b800bc18:	afc40008 	sw	a0,8(s8)
b800bc1c:	3c02b801 	lui	v0,0xb801
b800bc20:	8fc30008 	lw	v1,8(s8)
	...
b800bc2c:	ac43db70 	sw	v1,-9360(v0)
b800bc30:	03c0e821 	move	sp,s8
b800bc34:	8fbe0004 	lw	s8,4(sp)
b800bc38:	00000000 	nop
b800bc3c:	27bd0008 	addiu	sp,sp,8
b800bc40:	03e00008 	jr	ra
b800bc44:	00000000 	nop

b800bc48 <assign_dma_tx_desc>:
b800bc48:	27bdfff8 	addiu	sp,sp,-8
b800bc4c:	afbe0004 	sw	s8,4(sp)
b800bc50:	03a0f021 	move	s8,sp
b800bc54:	afc40008 	sw	a0,8(s8)
b800bc58:	3c02b801 	lui	v0,0xb801
b800bc5c:	8fc30008 	lw	v1,8(s8)
	...
b800bc68:	ac43db7c 	sw	v1,-9348(v0)
b800bc6c:	03c0e821 	move	sp,s8
b800bc70:	8fbe0004 	lw	s8,4(sp)
b800bc74:	00000000 	nop
b800bc78:	27bd0008 	addiu	sp,sp,8
b800bc7c:	03e00008 	jr	ra
b800bc80:	00000000 	nop

b800bc84 <assign_dma_tx_data>:
b800bc84:	27bdfff8 	addiu	sp,sp,-8
b800bc88:	afbe0004 	sw	s8,4(sp)
b800bc8c:	03a0f021 	move	s8,sp
b800bc90:	afc40008 	sw	a0,8(s8)
b800bc94:	3c02b801 	lui	v0,0xb801
b800bc98:	8fc30008 	lw	v1,8(s8)
	...
b800bca4:	ac43db74 	sw	v1,-9356(v0)
b800bca8:	03c0e821 	move	sp,s8
b800bcac:	8fbe0004 	lw	s8,4(sp)
b800bcb0:	00000000 	nop
b800bcb4:	27bd0008 	addiu	sp,sp,8
b800bcb8:	03e00008 	jr	ra
b800bcbc:	00000000 	nop

b800bcc0 <configure_wn>:
b800bcc0:	27bdffd8 	addiu	sp,sp,-40
b800bcc4:	afbf0024 	sw	ra,36(sp)
b800bcc8:	afbe0020 	sw	s8,32(sp)
b800bccc:	afb0001c 	sw	s0,28(sp)
b800bcd0:	03a0f021 	move	s8,sp
b800bcd4:	afc40028 	sw	a0,40(s8)
b800bcd8:	afc5002c 	sw	a1,44(s8)
b800bcdc:	afc60030 	sw	a2,48(s8)
b800bce0:	afc70034 	sw	a3,52(s8)
b800bce4:	8fc20030 	lw	v0,48(s8)
	...
b800bcf0:	30420007 	andi	v0,v0,0x7
b800bcf4:	10400008 	beqz	v0,b800bd18 <configure_wn+0x58>
b800bcf8:	00000000 	nop
b800bcfc:	8fc20030 	lw	v0,48(s8)
	...
b800bd08:	24420008 	addiu	v0,v0,8
b800bd0c:	afc20010 	sw	v0,16(s8)
b800bd10:	0a002f4a 	j	b800bd28 <configure_wn+0x68>
b800bd14:	00000000 	nop
b800bd18:	8fc20030 	lw	v0,48(s8)
	...
b800bd24:	afc20010 	sw	v0,16(s8)
b800bd28:	8fc20028 	lw	v0,40(s8)
	...
b800bd34:	8c420000 	lw	v0,0(v0)
b800bd38:	00000000 	nop
b800bd3c:	8fc30034 	lw	v1,52(s8)
	...
b800bd48:	3063000f 	andi	v1,v1,0xf
b800bd4c:	00032080 	sll	a0,v1,0x2
b800bd50:	8fc30010 	lw	v1,16(s8)
	...
b800bd5c:	000318c3 	sra	v1,v1,0x3
b800bd60:	2463ffff 	addiu	v1,v1,-1
b800bd64:	00031c00 	sll	v1,v1,0x10
b800bd68:	00832025 	or	a0,a0,v1
b800bd6c:	8fc30038 	lw	v1,56(s8)
	...
b800bd78:	30630001 	andi	v1,v1,0x1
b800bd7c:	00031b40 	sll	v1,v1,0xd
b800bd80:	00831825 	or	v1,a0,v1
b800bd84:	ac430000 	sw	v1,0(v0)
b800bd88:	8fc20028 	lw	v0,40(s8)
	...
b800bd94:	8c500000 	lw	s0,0(v0)
b800bd98:	00000000 	nop
b800bd9c:	8fc2002c 	lw	v0,44(s8)
	...
b800bda8:	00402021 	move	a0,v0
b800bdac:	0e0023f8 	jal	b8008fe0 <sys_kernel_va_to_pa>
b800bdb0:	00000000 	nop
b800bdb4:	ae020008 	sw	v0,8(s0)
b800bdb8:	8fc20028 	lw	v0,40(s8)
	...
b800bdc4:	8c420000 	lw	v0,0(v0)
	...
b800bdd0:	ac400004 	sw	zero,4(v0)
b800bdd4:	24020001 	li	v0,1
b800bdd8:	03c0e821 	move	sp,s8
b800bddc:	8fbf0024 	lw	ra,36(sp)
b800bde0:	00000000 	nop
b800bde4:	8fbe0020 	lw	s8,32(sp)
b800bde8:	00000000 	nop
b800bdec:	8fb0001c 	lw	s0,28(sp)
b800bdf0:	00000000 	nop
b800bdf4:	27bd0028 	addiu	sp,sp,40
b800bdf8:	03e00008 	jr	ra
b800bdfc:	00000000 	nop

b800be00 <is_run>:
b800be00:	27bdfff8 	addiu	sp,sp,-8
b800be04:	afbe0004 	sw	s8,4(sp)
b800be08:	03a0f021 	move	s8,sp
b800be0c:	afc40008 	sw	a0,8(s8)
b800be10:	8fc20008 	lw	v0,8(s8)
	...
b800be1c:	8c420000 	lw	v0,0(v0)
	...
b800be28:	8c420000 	lw	v0,0(v0)
	...
b800be34:	30420001 	andi	v0,v0,0x1
b800be38:	03c0e821 	move	sp,s8
b800be3c:	8fbe0004 	lw	s8,4(sp)
b800be40:	00000000 	nop
b800be44:	27bd0008 	addiu	sp,sp,8
b800be48:	03e00008 	jr	ra
b800be4c:	00000000 	nop

b800be50 <wait_not_run>:
b800be50:	27bdffe8 	addiu	sp,sp,-24
b800be54:	afbf0014 	sw	ra,20(sp)
b800be58:	afbe0010 	sw	s8,16(sp)
b800be5c:	03a0f021 	move	s8,sp
b800be60:	afc40018 	sw	a0,24(s8)
b800be64:	00000000 	nop
b800be68:	8fc40018 	lw	a0,24(s8)
b800be6c:	00000000 	nop
b800be70:	0e002f80 	jal	b800be00 <is_run>
b800be74:	00000000 	nop
b800be78:	1440fffb 	bnez	v0,b800be68 <wait_not_run+0x18>
b800be7c:	00000000 	nop
b800be80:	24020001 	li	v0,1
b800be84:	03c0e821 	move	sp,s8
b800be88:	8fbf0014 	lw	ra,20(sp)
b800be8c:	00000000 	nop
b800be90:	8fbe0010 	lw	s8,16(sp)
b800be94:	00000000 	nop
b800be98:	27bd0018 	addiu	sp,sp,24
b800be9c:	03e00008 	jr	ra
b800bea0:	00000000 	nop

b800bea4 <start>:
b800bea4:	27bdfff8 	addiu	sp,sp,-8
b800bea8:	afbe0004 	sw	s8,4(sp)
b800beac:	03a0f021 	move	s8,sp
b800beb0:	afc40008 	sw	a0,8(s8)
b800beb4:	8fc20008 	lw	v0,8(s8)
	...
b800bec0:	8c420000 	lw	v0,0(v0)
b800bec4:	00000000 	nop
b800bec8:	24030001 	li	v1,1
b800becc:	ac43000c 	sw	v1,12(v0)
b800bed0:	24020001 	li	v0,1
b800bed4:	03c0e821 	move	sp,s8
b800bed8:	8fbe0004 	lw	s8,4(sp)
b800bedc:	00000000 	nop
b800bee0:	27bd0008 	addiu	sp,sp,8
b800bee4:	03e00008 	jr	ra
b800bee8:	00000000 	nop

b800beec <start_wn>:
b800beec:	27bdffe0 	addiu	sp,sp,-32
b800bef0:	afbf001c 	sw	ra,28(sp)
b800bef4:	afbe0018 	sw	s8,24(sp)
b800bef8:	03a0f021 	move	s8,sp
b800befc:	afc40020 	sw	a0,32(s8)
b800bf00:	afc50024 	sw	a1,36(s8)
b800bf04:	afc60028 	sw	a2,40(s8)
b800bf08:	afc7002c 	sw	a3,44(s8)
b800bf0c:	afa00010 	sw	zero,16(sp)
b800bf10:	8fc40020 	lw	a0,32(s8)
b800bf14:	00000000 	nop
b800bf18:	8fc50024 	lw	a1,36(s8)
b800bf1c:	00000000 	nop
b800bf20:	8fc60028 	lw	a2,40(s8)
b800bf24:	00000000 	nop
b800bf28:	8fc7002c 	lw	a3,44(s8)
b800bf2c:	00000000 	nop
b800bf30:	0e002f30 	jal	b800bcc0 <configure_wn>
b800bf34:	00000000 	nop
b800bf38:	8fc40020 	lw	a0,32(s8)
b800bf3c:	00000000 	nop
b800bf40:	0e002fa9 	jal	b800bea4 <start>
b800bf44:	00000000 	nop
b800bf48:	03c0e821 	move	sp,s8
b800bf4c:	8fbf001c 	lw	ra,28(sp)
b800bf50:	00000000 	nop
b800bf54:	8fbe0018 	lw	s8,24(sp)
b800bf58:	00000000 	nop
b800bf5c:	27bd0020 	addiu	sp,sp,32
b800bf60:	03e00008 	jr	ra
b800bf64:	00000000 	nop

b800bf68 <get_raw_addr>:
b800bf68:	27bdfff8 	addiu	sp,sp,-8
b800bf6c:	afbe0004 	sw	s8,4(sp)
b800bf70:	03a0f021 	move	s8,sp
b800bf74:	afc40008 	sw	a0,8(s8)
b800bf78:	8fc20008 	lw	v0,8(s8)
	...
b800bf84:	8c420000 	lw	v0,0(v0)
	...
b800bf90:	8c420008 	lw	v0,8(v0)
b800bf94:	00000000 	nop
b800bf98:	03c0e821 	move	sp,s8
b800bf9c:	8fbe0004 	lw	s8,4(sp)
b800bfa0:	00000000 	nop
b800bfa4:	27bd0008 	addiu	sp,sp,8
b800bfa8:	03e00008 	jr	ra
b800bfac:	00000000 	nop

b800bfb0 <__divdi3>:
b800bfb0:	00c05821 	move	t3,a2
b800bfb4:	00e01021 	move	v0,a3
b800bfb8:	00006021 	move	t4,zero
b800bfbc:	04a10006 	bgez	a1,b800bfd8 <__divdi3+0x28>
b800bfc0:	00000000 	nop
b800bfc4:	00042023 	negu	a0,a0
b800bfc8:	0004182b 	sltu	v1,zero,a0
b800bfcc:	00052823 	negu	a1,a1
b800bfd0:	00a32823 	subu	a1,a1,v1
b800bfd4:	240cffff 	li	t4,-1
b800bfd8:	04e10006 	bgez	a3,b800bff4 <__divdi3+0x44>
b800bfdc:	00000000 	nop
b800bfe0:	00065823 	negu	t3,a2
b800bfe4:	000b182b 	sltu	v1,zero,t3
b800bfe8:	00071023 	negu	v0,a3
b800bfec:	000c6027 	nor	t4,zero,t4
b800bff0:	00431023 	subu	v0,v0,v1
b800bff4:	01604021 	move	t0,t3
b800bff8:	00804821 	move	t1,a0
b800bffc:	00a03821 	move	a3,a1
b800c000:	144000b5 	bnez	v0,b800c2d8 <__divdi3+0x328>
b800c004:	00000000 	nop
b800c008:	00ab182b 	sltu	v1,a1,t3
b800c00c:	1060003b 	beqz	v1,b800c0fc <__divdi3+0x14c>
b800c010:	00000000 	nop
b800c014:	71621020 	clz	v0,t3
b800c018:	10400007 	beqz	v0,b800c038 <__divdi3+0x88>
b800c01c:	00000000 	nop
b800c020:	00021823 	negu	v1,v0
b800c024:	00453804 	sllv	a3,a1,v0
b800c028:	00641806 	srlv	v1,a0,v1
b800c02c:	004b4004 	sllv	t0,t3,v0
b800c030:	00673825 	or	a3,v1,a3
b800c034:	00444804 	sllv	t1,a0,v0
b800c038:	00081c02 	srl	v1,t0,0x10
b800c03c:	00e3001b 	divu	zero,a3,v1
b800c040:	310affff 	andi	t2,t0,0xffff
b800c044:	00091402 	srl	v0,t1,0x10
b800c048:	00003012 	mflo	a2
b800c04c:	00002010 	mfhi	a0
b800c050:	00e3001b 	divu	zero,a3,v1
b800c054:	00042400 	sll	a0,a0,0x10
b800c058:	00822025 	or	a0,a0,v0
b800c05c:	00c01021 	move	v0,a2
b800c060:	70ca2802 	mul	a1,a2,t2
b800c064:	0085382b 	sltu	a3,a0,a1
b800c068:	10e0000b 	beqz	a3,b800c098 <__divdi3+0xe8>
b800c06c:	00000000 	nop
b800c070:	00882021 	addu	a0,a0,t0
b800c074:	0088382b 	sltu	a3,a0,t0
b800c078:	24c2ffff 	addiu	v0,a2,-1
b800c07c:	14e00006 	bnez	a3,b800c098 <__divdi3+0xe8>
b800c080:	00000000 	nop
b800c084:	0085382b 	sltu	a3,a0,a1
b800c088:	10e00003 	beqz	a3,b800c098 <__divdi3+0xe8>
b800c08c:	00000000 	nop
b800c090:	24c2fffe 	addiu	v0,a2,-2
b800c094:	00882021 	addu	a0,a0,t0
b800c098:	00852023 	subu	a0,a0,a1
b800c09c:	0083001b 	divu	zero,a0,v1
b800c0a0:	3129ffff 	andi	t1,t1,0xffff
b800c0a4:	00002812 	mflo	a1
b800c0a8:	00003010 	mfhi	a2
b800c0ac:	0083001b 	divu	zero,a0,v1
b800c0b0:	00061c00 	sll	v1,a2,0x10
b800c0b4:	00694825 	or	t1,v1,t1
b800c0b8:	00a01821 	move	v1,a1
b800c0bc:	70aa2002 	mul	a0,a1,t2
b800c0c0:	0124302b 	sltu	a2,t1,a0
b800c0c4:	10c00009 	beqz	a2,b800c0ec <__divdi3+0x13c>
b800c0c8:	00000000 	nop
b800c0cc:	01284821 	addu	t1,t1,t0
b800c0d0:	0128402b 	sltu	t0,t1,t0
b800c0d4:	24a3ffff 	addiu	v1,a1,-1
b800c0d8:	15000004 	bnez	t0,b800c0ec <__divdi3+0x13c>
b800c0dc:	00000000 	nop
b800c0e0:	0124202b 	sltu	a0,t1,a0
b800c0e4:	24a5fffe 	addiu	a1,a1,-2
b800c0e8:	00a4180b 	movn	v1,a1,a0
b800c0ec:	00021400 	sll	v0,v0,0x10
b800c0f0:	00621025 	or	v0,v1,v0
b800c0f4:	0a003112 	j	b800c448 <__divdi3+0x498>
b800c0f8:	00000000 	nop
b800c0fc:	15600004 	bnez	t3,b800c110 <__divdi3+0x160>
b800c100:	00000000 	nop
b800c104:	24080001 	li	t0,1
b800c108:	0102001b 	divu	zero,t0,v0
b800c10c:	00004012 	mflo	t0
b800c110:	71021020 	clz	v0,t0
b800c114:	14400005 	bnez	v0,b800c12c <__divdi3+0x17c>
b800c118:	00000000 	nop
b800c11c:	00a82823 	subu	a1,a1,t0
b800c120:	24030001 	li	v1,1
b800c124:	0a003085 	j	b800c214 <__divdi3+0x264>
b800c128:	00000000 	nop
b800c12c:	24060020 	li	a2,32
b800c130:	00c23023 	subu	a2,a2,v0
b800c134:	00484004 	sllv	t0,t0,v0
b800c138:	00c51806 	srlv	v1,a1,a2
b800c13c:	00444804 	sllv	t1,a0,v0
b800c140:	00452804 	sllv	a1,a1,v0
b800c144:	00081402 	srl	v0,t0,0x10
b800c148:	0062001b 	divu	zero,v1,v0
b800c14c:	00c45006 	srlv	t2,a0,a2
b800c150:	01455025 	or	t2,t2,a1
b800c154:	3105ffff 	andi	a1,t0,0xffff
b800c158:	00003812 	mflo	a3
b800c15c:	00002010 	mfhi	a0
b800c160:	0062001b 	divu	zero,v1,v0
b800c164:	00042400 	sll	a0,a0,0x10
b800c168:	000a1c02 	srl	v1,t2,0x10
b800c16c:	00642025 	or	a0,v1,a0
b800c170:	00e01821 	move	v1,a3
b800c174:	70e53002 	mul	a2,a3,a1
b800c178:	0086582b 	sltu	t3,a0,a2
b800c17c:	1160000b 	beqz	t3,b800c1ac <__divdi3+0x1fc>
b800c180:	00000000 	nop
b800c184:	00882021 	addu	a0,a0,t0
b800c188:	0088582b 	sltu	t3,a0,t0
b800c18c:	24e3ffff 	addiu	v1,a3,-1
b800c190:	15600006 	bnez	t3,b800c1ac <__divdi3+0x1fc>
b800c194:	00000000 	nop
b800c198:	0086582b 	sltu	t3,a0,a2
b800c19c:	11600003 	beqz	t3,b800c1ac <__divdi3+0x1fc>
b800c1a0:	00000000 	nop
b800c1a4:	24e3fffe 	addiu	v1,a3,-2
b800c1a8:	00882021 	addu	a0,a0,t0
b800c1ac:	00862023 	subu	a0,a0,a2
b800c1b0:	0082001b 	divu	zero,a0,v0
b800c1b4:	314affff 	andi	t2,t2,0xffff
b800c1b8:	00003012 	mflo	a2
b800c1bc:	00003810 	mfhi	a3
b800c1c0:	0082001b 	divu	zero,a0,v0
b800c1c4:	00c01021 	move	v0,a2
b800c1c8:	70c52002 	mul	a0,a2,a1
b800c1cc:	00072c00 	sll	a1,a3,0x10
b800c1d0:	00aa2825 	or	a1,a1,t2
b800c1d4:	00a4382b 	sltu	a3,a1,a0
b800c1d8:	10e0000b 	beqz	a3,b800c208 <__divdi3+0x258>
b800c1dc:	00000000 	nop
b800c1e0:	00a82821 	addu	a1,a1,t0
b800c1e4:	00a8382b 	sltu	a3,a1,t0
b800c1e8:	24c2ffff 	addiu	v0,a2,-1
b800c1ec:	14e00006 	bnez	a3,b800c208 <__divdi3+0x258>
b800c1f0:	00000000 	nop
b800c1f4:	00a4382b 	sltu	a3,a1,a0
b800c1f8:	10e00003 	beqz	a3,b800c208 <__divdi3+0x258>
b800c1fc:	00000000 	nop
b800c200:	24c2fffe 	addiu	v0,a2,-2
b800c204:	00a82821 	addu	a1,a1,t0
b800c208:	00031c00 	sll	v1,v1,0x10
b800c20c:	00a42823 	subu	a1,a1,a0
b800c210:	00431825 	or	v1,v0,v1
b800c214:	00082402 	srl	a0,t0,0x10
b800c218:	00a4001b 	divu	zero,a1,a0
b800c21c:	310affff 	andi	t2,t0,0xffff
b800c220:	00003812 	mflo	a3
b800c224:	00001010 	mfhi	v0
b800c228:	00a4001b 	divu	zero,a1,a0
b800c22c:	00022c00 	sll	a1,v0,0x10
b800c230:	00091402 	srl	v0,t1,0x10
b800c234:	00a22825 	or	a1,a1,v0
b800c238:	00e01021 	move	v0,a3
b800c23c:	70ea3002 	mul	a2,a3,t2
b800c240:	00a6582b 	sltu	t3,a1,a2
b800c244:	1160000b 	beqz	t3,b800c274 <__divdi3+0x2c4>
b800c248:	00000000 	nop
b800c24c:	00a82821 	addu	a1,a1,t0
b800c250:	00a8582b 	sltu	t3,a1,t0
b800c254:	24e2ffff 	addiu	v0,a3,-1
b800c258:	15600006 	bnez	t3,b800c274 <__divdi3+0x2c4>
b800c25c:	00000000 	nop
b800c260:	00a6582b 	sltu	t3,a1,a2
b800c264:	11600003 	beqz	t3,b800c274 <__divdi3+0x2c4>
b800c268:	00000000 	nop
b800c26c:	24e2fffe 	addiu	v0,a3,-2
b800c270:	00a82821 	addu	a1,a1,t0
b800c274:	00a62823 	subu	a1,a1,a2
b800c278:	00a4001b 	divu	zero,a1,a0
b800c27c:	3129ffff 	andi	t1,t1,0xffff
b800c280:	00003012 	mflo	a2
b800c284:	00003810 	mfhi	a3
b800c288:	00a4001b 	divu	zero,a1,a0
b800c28c:	00072400 	sll	a0,a3,0x10
b800c290:	00894825 	or	t1,a0,t1
b800c294:	00c02021 	move	a0,a2
b800c298:	70ca2802 	mul	a1,a2,t2
b800c29c:	0125382b 	sltu	a3,t1,a1
b800c2a0:	10e00009 	beqz	a3,b800c2c8 <__divdi3+0x318>
b800c2a4:	00000000 	nop
b800c2a8:	01284821 	addu	t1,t1,t0
b800c2ac:	0128402b 	sltu	t0,t1,t0
b800c2b0:	24c4ffff 	addiu	a0,a2,-1
b800c2b4:	15000004 	bnez	t0,b800c2c8 <__divdi3+0x318>
b800c2b8:	00000000 	nop
b800c2bc:	0125282b 	sltu	a1,t1,a1
b800c2c0:	24c6fffe 	addiu	a2,a2,-2
b800c2c4:	00c5200b 	movn	a0,a2,a1
b800c2c8:	00021400 	sll	v0,v0,0x10
b800c2cc:	00821025 	or	v0,a0,v0
b800c2d0:	0a003117 	j	b800c45c <__divdi3+0x4ac>
b800c2d4:	00000000 	nop
b800c2d8:	00a2182b 	sltu	v1,a1,v0
b800c2dc:	1460005d 	bnez	v1,b800c454 <__divdi3+0x4a4>
b800c2e0:	00000000 	nop
b800c2e4:	704a5020 	clz	t2,v0
b800c2e8:	1540000d 	bnez	t2,b800c320 <__divdi3+0x370>
b800c2ec:	00000000 	nop
b800c2f0:	0045282b 	sltu	a1,v0,a1
b800c2f4:	00001821 	move	v1,zero
b800c2f8:	10a00004 	beqz	a1,b800c30c <__divdi3+0x35c>
b800c2fc:	00000000 	nop
b800c300:	24020001 	li	v0,1
b800c304:	0a003117 	j	b800c45c <__divdi3+0x4ac>
b800c308:	00000000 	nop
b800c30c:	008b202b 	sltu	a0,a0,t3
b800c310:	1080fffb 	beqz	a0,b800c300 <__divdi3+0x350>
b800c314:	00000000 	nop
b800c318:	0a003116 	j	b800c458 <__divdi3+0x4a8>
b800c31c:	00000000 	nop
b800c320:	24090020 	li	t1,32
b800c324:	012a4823 	subu	t1,t1,t2
b800c328:	01421004 	sllv	v0,v0,t2
b800c32c:	012b3806 	srlv	a3,t3,t1
b800c330:	00e23825 	or	a3,a3,v0
b800c334:	00074402 	srl	t0,a3,0x10
b800c338:	01251006 	srlv	v0,a1,t1
b800c33c:	0048001b 	divu	zero,v0,t0
b800c340:	01244806 	srlv	t1,a0,t1
b800c344:	01452804 	sllv	a1,a1,t2
b800c348:	30efffff 	andi	t7,a3,0xffff
b800c34c:	01252825 	or	a1,t1,a1
b800c350:	014b3004 	sllv	a2,t3,t2
b800c354:	00007012 	mflo	t6
b800c358:	00004810 	mfhi	t1
b800c35c:	0048001b 	divu	zero,v0,t0
b800c360:	00094c00 	sll	t1,t1,0x10
b800c364:	00051402 	srl	v0,a1,0x10
b800c368:	01224825 	or	t1,t1,v0
b800c36c:	01c01021 	move	v0,t6
b800c370:	71cf6802 	mul	t5,t6,t7
b800c374:	012d182b 	sltu	v1,t1,t5
b800c378:	1060000b 	beqz	v1,b800c3a8 <__divdi3+0x3f8>
b800c37c:	00000000 	nop
b800c380:	01274821 	addu	t1,t1,a3
b800c384:	0127182b 	sltu	v1,t1,a3
b800c388:	25c2ffff 	addiu	v0,t6,-1
b800c38c:	14600006 	bnez	v1,b800c3a8 <__divdi3+0x3f8>
b800c390:	00000000 	nop
b800c394:	012d182b 	sltu	v1,t1,t5
b800c398:	10600003 	beqz	v1,b800c3a8 <__divdi3+0x3f8>
b800c39c:	00000000 	nop
b800c3a0:	25c2fffe 	addiu	v0,t6,-2
b800c3a4:	01274821 	addu	t1,t1,a3
b800c3a8:	012d4823 	subu	t1,t1,t5
b800c3ac:	0128001b 	divu	zero,t1,t0
b800c3b0:	30a5ffff 	andi	a1,a1,0xffff
b800c3b4:	00006812 	mflo	t5
b800c3b8:	00001810 	mfhi	v1
b800c3bc:	0128001b 	divu	zero,t1,t0
b800c3c0:	00031c00 	sll	v1,v1,0x10
b800c3c4:	00651825 	or	v1,v1,a1
b800c3c8:	01a02821 	move	a1,t5
b800c3cc:	71af4002 	mul	t0,t5,t7
b800c3d0:	0068482b 	sltu	t1,v1,t0
b800c3d4:	1120000b 	beqz	t1,b800c404 <__divdi3+0x454>
b800c3d8:	00000000 	nop
b800c3dc:	00671821 	addu	v1,v1,a3
b800c3e0:	0067482b 	sltu	t1,v1,a3
b800c3e4:	25a5ffff 	addiu	a1,t5,-1
b800c3e8:	15200006 	bnez	t1,b800c404 <__divdi3+0x454>
b800c3ec:	00000000 	nop
b800c3f0:	0068482b 	sltu	t1,v1,t0
b800c3f4:	11200003 	beqz	t1,b800c404 <__divdi3+0x454>
b800c3f8:	00000000 	nop
b800c3fc:	25a5fffe 	addiu	a1,t5,-2
b800c400:	00671821 	addu	v1,v1,a3
b800c404:	00021400 	sll	v0,v0,0x10
b800c408:	00a21025 	or	v0,a1,v0
b800c40c:	00460019 	multu	v0,a2
b800c410:	00684023 	subu	t0,v1,t0
b800c414:	00003810 	mfhi	a3
b800c418:	00003012 	mflo	a2
b800c41c:	0107182b 	sltu	v1,t0,a3
b800c420:	14600008 	bnez	v1,b800c444 <__divdi3+0x494>
b800c424:	00000000 	nop
b800c428:	00001821 	move	v1,zero
b800c42c:	14e8000b 	bne	a3,t0,b800c45c <__divdi3+0x4ac>
b800c430:	00000000 	nop
b800c434:	01442004 	sllv	a0,a0,t2
b800c438:	0086302b 	sltu	a2,a0,a2
b800c43c:	10c00007 	beqz	a2,b800c45c <__divdi3+0x4ac>
b800c440:	00000000 	nop
b800c444:	2442ffff 	addiu	v0,v0,-1
b800c448:	00001821 	move	v1,zero
b800c44c:	0a003117 	j	b800c45c <__divdi3+0x4ac>
b800c450:	00000000 	nop
b800c454:	00001821 	move	v1,zero
b800c458:	00001021 	move	v0,zero
b800c45c:	11800005 	beqz	t4,b800c474 <__divdi3+0x4c4>
b800c460:	00000000 	nop
b800c464:	00021023 	negu	v0,v0
b800c468:	0002202b 	sltu	a0,zero,v0
b800c46c:	00031823 	negu	v1,v1
b800c470:	00641823 	subu	v1,v1,a0
b800c474:	03e00008 	jr	ra
b800c478:	00000000 	nop

b800c47c <__do_global_ctors_aux>:
b800c47c:	27bdffe0 	addiu	sp,sp,-32
b800c480:	afb00014 	sw	s0,20(sp)
b800c484:	3c10b801 	lui	s0,0xb801
b800c488:	afb10018 	sw	s1,24(sp)
b800c48c:	afbf001c 	sw	ra,28(sp)
b800c490:	2610d2c4 	addiu	s0,s0,-11580
b800c494:	2411ffff 	li	s1,-1
b800c498:	8e020000 	lw	v0,0(s0)
	...
b800c4a4:	10510006 	beq	v0,s1,b800c4c0 <__do_global_ctors_aux+0x44>
b800c4a8:	00000000 	nop
b800c4ac:	0040f809 	jalr	v0
b800c4b0:	00000000 	nop
b800c4b4:	2610fffc 	addiu	s0,s0,-4
b800c4b8:	0a003126 	j	b800c498 <__do_global_ctors_aux+0x1c>
b800c4bc:	00000000 	nop
b800c4c0:	8fbf001c 	lw	ra,28(sp)
b800c4c4:	00000000 	nop
b800c4c8:	8fb10018 	lw	s1,24(sp)
b800c4cc:	00000000 	nop
b800c4d0:	8fb00014 	lw	s0,20(sp)
b800c4d4:	00000000 	nop
b800c4d8:	27bd0020 	addiu	sp,sp,32
b800c4dc:	03e00008 	jr	ra
b800c4e0:	00000000 	nop

b800c4e4 <atexit>:
b800c4e4:	3c19b801 	lui	t9,0xb801
b800c4e8:	00802821 	move	a1,a0
b800c4ec:	00003021 	move	a2,zero
b800c4f0:	00002021 	move	a0,zero
b800c4f4:	00003821 	move	a3,zero
b800c4f8:	2739c8c4 	addiu	t9,t9,-14140
b800c4fc:	03200008 	jr	t9
b800c500:	00000000 	nop

b800c504 <atoi>:
b800c504:	3c19b801 	lui	t9,0xb801
b800c508:	00002821 	move	a1,zero
b800c50c:	2406000a 	li	a2,10
b800c510:	2739c894 	addiu	t9,t9,-14188
b800c514:	03200008 	jr	t9
b800c518:	00000000 	nop

b800c51c <_atoi_r>:
b800c51c:	3c19b801 	lui	t9,0xb801
b800c520:	00003021 	move	a2,zero
b800c524:	2407000a 	li	a3,10
b800c528:	2739c660 	addiu	t9,t9,-14752
b800c52c:	03200008 	jr	t9
b800c530:	00000000 	nop

b800c534 <exit>:
b800c534:	27bdffe8 	addiu	sp,sp,-24
b800c538:	3c02b801 	lui	v0,0xb801
b800c53c:	2442ca28 	addiu	v0,v0,-13784
b800c540:	afb00010 	sw	s0,16(sp)
b800c544:	afbf0014 	sw	ra,20(sp)
b800c548:	00002821 	move	a1,zero
b800c54c:	00808021 	move	s0,a0
b800c550:	0040f809 	jalr	v0
b800c554:	00000000 	nop
b800c558:	3c02b801 	lui	v0,0xb801
b800c55c:	8c44d8a8 	lw	a0,-10072(v0)
	...
b800c568:	8c82003c 	lw	v0,60(a0)
	...
b800c574:	10400003 	beqz	v0,b800c584 <exit+0x50>
b800c578:	00000000 	nop
b800c57c:	0040f809 	jalr	v0
b800c580:	00000000 	nop
b800c584:	3c02b800 	lui	v0,0xb800
b800c588:	02002021 	move	a0,s0
b800c58c:	24421474 	addiu	v0,v0,5236
b800c590:	0040f809 	jalr	v0
b800c594:	00000000 	nop

b800c598 <strcmp>:
b800c598:	00851025 	or	v0,a0,a1
b800c59c:	30420001 	andi	v0,v0,0x1
b800c5a0:	1440001a 	bnez	v0,b800c60c <strcmp+0x74>
b800c5a4:	00000000 	nop
b800c5a8:	90830000 	lbu	v1,0(a0)
b800c5ac:	00000000 	nop
b800c5b0:	90a20000 	lbu	v0,0(a1)
b800c5b4:	00000000 	nop
b800c5b8:	24840002 	addiu	a0,a0,2
b800c5bc:	1060001b 	beqz	v1,b800c62c <strcmp+0x94>
b800c5c0:	00000000 	nop
b800c5c4:	9086ffff 	lbu	a2,-1(a0)
b800c5c8:	00000000 	nop
b800c5cc:	14620017 	bne	v1,v0,b800c62c <strcmp+0x94>
b800c5d0:	00000000 	nop
b800c5d4:	90a20001 	lbu	v0,1(a1)
b800c5d8:	00000000 	nop
b800c5dc:	24a50002 	addiu	a1,a1,2
b800c5e0:	10c00005 	beqz	a2,b800c5f8 <strcmp+0x60>
b800c5e4:	00000000 	nop
b800c5e8:	90830000 	lbu	v1,0(a0)
b800c5ec:	00000000 	nop
b800c5f0:	10c2ffef 	beq	a2,v0,b800c5b0 <strcmp+0x18>
b800c5f4:	00000000 	nop
b800c5f8:	00c21023 	subu	v0,a2,v0
b800c5fc:	03e00008 	jr	ra
b800c600:	00000000 	nop
b800c604:	14620009 	bne	v1,v0,b800c62c <strcmp+0x94>
b800c608:	00000000 	nop
b800c60c:	24840001 	addiu	a0,a0,1
b800c610:	9083ffff 	lbu	v1,-1(a0)
b800c614:	00000000 	nop
b800c618:	24a50001 	addiu	a1,a1,1
b800c61c:	90a2ffff 	lbu	v0,-1(a1)
b800c620:	00000000 	nop
b800c624:	1460fff7 	bnez	v1,b800c604 <strcmp+0x6c>
b800c628:	00000000 	nop
b800c62c:	00621023 	subu	v0,v1,v0
b800c630:	03e00008 	jr	ra
b800c634:	00000000 	nop

b800c638 <strlen>:
b800c638:	24820001 	addiu	v0,a0,1
b800c63c:	90830000 	lbu	v1,0(a0)
	...
b800c648:	24840001 	addiu	a0,a0,1
b800c64c:	1460fffb 	bnez	v1,b800c63c <strlen+0x4>
b800c650:	00000000 	nop
b800c654:	00821023 	subu	v0,a0,v0
b800c658:	03e00008 	jr	ra
b800c65c:	00000000 	nop

b800c660 <_strtol_r>:
b800c660:	3c02b801 	lui	v0,0xb801
b800c664:	8c4bd2c0 	lw	t3,-11584(v0)
b800c668:	00000000 	nop
b800c66c:	00a01021 	move	v0,a1
b800c670:	24430001 	addiu	v1,v0,1
b800c674:	9068ffff 	lbu	t0,-1(v1)
	...
b800c680:	01684821 	addu	t1,t3,t0
b800c684:	91290001 	lbu	t1,1(t1)
	...
b800c690:	31290008 	andi	t1,t1,0x8
b800c694:	11200004 	beqz	t1,b800c6a8 <_strtol_r+0x48>
b800c698:	00000000 	nop
b800c69c:	00601021 	move	v0,v1
b800c6a0:	0a00319c 	j	b800c670 <_strtol_r+0x10>
b800c6a4:	00000000 	nop
b800c6a8:	27bdfff8 	addiu	sp,sp,-8
b800c6ac:	2409002d 	li	t1,45
b800c6b0:	afb00004 	sw	s0,4(sp)
b800c6b4:	15090007 	bne	t0,t1,b800c6d4 <_strtol_r+0x74>
b800c6b8:	00000000 	nop
b800c6bc:	24430002 	addiu	v1,v0,2
b800c6c0:	90480001 	lbu	t0,1(v0)
b800c6c4:	00000000 	nop
b800c6c8:	240a0001 	li	t2,1
b800c6cc:	0a0031bc 	j	b800c6f0 <_strtol_r+0x90>
b800c6d0:	00000000 	nop
b800c6d4:	2409002b 	li	t1,43
b800c6d8:	00005021 	move	t2,zero
b800c6dc:	15090004 	bne	t0,t1,b800c6f0 <_strtol_r+0x90>
b800c6e0:	00000000 	nop
b800c6e4:	90480001 	lbu	t0,1(v0)
b800c6e8:	00000000 	nop
b800c6ec:	24430002 	addiu	v1,v0,2
b800c6f0:	2402ffef 	li	v0,-17
b800c6f4:	00e21024 	and	v0,a3,v0
b800c6f8:	14400012 	bnez	v0,b800c744 <_strtol_r+0xe4>
b800c6fc:	00000000 	nop
b800c700:	24020030 	li	v0,48
b800c704:	1502000d 	bne	t0,v0,b800c73c <_strtol_r+0xdc>
b800c708:	00000000 	nop
b800c70c:	90690000 	lbu	t1,0(v1)
b800c710:	00000000 	nop
b800c714:	24020058 	li	v0,88
b800c718:	312900df 	andi	t1,t1,0xdf
b800c71c:	15220055 	bne	t1,v0,b800c874 <_strtol_r+0x214>
b800c720:	00000000 	nop
b800c724:	90680001 	lbu	t0,1(v1)
b800c728:	00000000 	nop
b800c72c:	24070010 	li	a3,16
b800c730:	24630002 	addiu	v1,v1,2
b800c734:	0a0031d1 	j	b800c744 <_strtol_r+0xe4>
b800c738:	00000000 	nop
b800c73c:	2402000a 	li	v0,10
b800c740:	0047380a 	movz	a3,v0,a3
b800c744:	3c028000 	lui	v0,0x8000
b800c748:	15400003 	bnez	t2,b800c758 <_strtol_r+0xf8>
b800c74c:	00000000 	nop
b800c750:	3c027fff 	lui	v0,0x7fff
b800c754:	3442ffff 	ori	v0,v0,0xffff
b800c758:	0047001b 	divu	zero,v0,a3
b800c75c:	00004821 	move	t1,zero
b800c760:	00001021 	move	v0,zero
b800c764:	240f0057 	li	t7,87
b800c768:	24180037 	li	t8,55
b800c76c:	2419ffff 	li	t9,-1
b800c770:	00007010 	mfhi	t6
b800c774:	00006812 	mflo	t5
b800c778:	01686021 	addu	t4,t3,t0
b800c77c:	918c0001 	lbu	t4,1(t4)
	...
b800c788:	31900004 	andi	s0,t4,0x4
b800c78c:	12000004 	beqz	s0,b800c7a0 <_strtol_r+0x140>
b800c790:	00000000 	nop
b800c794:	2508ffd0 	addiu	t0,t0,-48
b800c798:	0a0031ef 	j	b800c7bc <_strtol_r+0x15c>
b800c79c:	00000000 	nop
b800c7a0:	318c0003 	andi	t4,t4,0x3
b800c7a4:	1180001b 	beqz	t4,b800c814 <_strtol_r+0x1b4>
b800c7a8:	00000000 	nop
b800c7ac:	398c0001 	xori	t4,t4,0x1
b800c7b0:	03008021 	move	s0,t8
b800c7b4:	01ec800b 	movn	s0,t7,t4
b800c7b8:	01104023 	subu	t0,t0,s0
b800c7bc:	0107602a 	slt	t4,t0,a3
b800c7c0:	11800014 	beqz	t4,b800c814 <_strtol_r+0x1b4>
b800c7c4:	00000000 	nop
b800c7c8:	1139000d 	beq	t1,t9,b800c800 <_strtol_r+0x1a0>
b800c7cc:	00000000 	nop
b800c7d0:	01a2602b 	sltu	t4,t5,v0
b800c7d4:	2409ffff 	li	t1,-1
b800c7d8:	15800009 	bnez	t4,b800c800 <_strtol_r+0x1a0>
b800c7dc:	00000000 	nop
b800c7e0:	144d0004 	bne	v0,t5,b800c7f4 <_strtol_r+0x194>
b800c7e4:	00000000 	nop
b800c7e8:	01c8602a 	slt	t4,t6,t0
b800c7ec:	15800004 	bnez	t4,b800c800 <_strtol_r+0x1a0>
b800c7f0:	00000000 	nop
b800c7f4:	70474802 	mul	t1,v0,a3
b800c7f8:	01281021 	addu	v0,t1,t0
b800c7fc:	24090001 	li	t1,1
b800c800:	24630001 	addiu	v1,v1,1
b800c804:	9068ffff 	lbu	t0,-1(v1)
b800c808:	00000000 	nop
b800c80c:	0a0031de 	j	b800c778 <_strtol_r+0x118>
b800c810:	00000000 	nop
b800c814:	2407ffff 	li	a3,-1
b800c818:	1527000c 	bne	t1,a3,b800c84c <_strtol_r+0x1ec>
b800c81c:	00000000 	nop
b800c820:	3c028000 	lui	v0,0x8000
b800c824:	15400003 	bnez	t2,b800c834 <_strtol_r+0x1d4>
b800c828:	00000000 	nop
b800c82c:	3c027fff 	lui	v0,0x7fff
b800c830:	3442ffff 	ori	v0,v0,0xffff
b800c834:	24050022 	li	a1,34
b800c838:	ac850000 	sw	a1,0(a0)
b800c83c:	14c00009 	bnez	a2,b800c864 <_strtol_r+0x204>
b800c840:	00000000 	nop
b800c844:	0a003220 	j	b800c880 <_strtol_r+0x220>
b800c848:	00000000 	nop
b800c84c:	00022023 	negu	a0,v0
b800c850:	008a100b 	movn	v0,a0,t2
b800c854:	10c0000a 	beqz	a2,b800c880 <_strtol_r+0x220>
b800c858:	00000000 	nop
b800c85c:	11200002 	beqz	t1,b800c868 <_strtol_r+0x208>
b800c860:	00000000 	nop
b800c864:	2465ffff 	addiu	a1,v1,-1
b800c868:	acc50000 	sw	a1,0(a2)
b800c86c:	0a003220 	j	b800c880 <_strtol_r+0x220>
b800c870:	00000000 	nop
b800c874:	24020008 	li	v0,8
b800c878:	0a0031d0 	j	b800c740 <_strtol_r+0xe0>
b800c87c:	00000000 	nop
b800c880:	8fb00004 	lw	s0,4(sp)
b800c884:	00000000 	nop
b800c888:	27bd0008 	addiu	sp,sp,8
b800c88c:	03e00008 	jr	ra
b800c890:	00000000 	nop

b800c894 <strtol>:
b800c894:	00801821 	move	v1,a0
b800c898:	3c04b801 	lui	a0,0xb801
b800c89c:	00a01021 	move	v0,a1
b800c8a0:	3c19b801 	lui	t9,0xb801
b800c8a4:	8c84cea0 	lw	a0,-12640(a0)
b800c8a8:	00000000 	nop
b800c8ac:	00c03821 	move	a3,a2
b800c8b0:	00602821 	move	a1,v1
b800c8b4:	00403021 	move	a2,v0
b800c8b8:	2739c660 	addiu	t9,t9,-14752
b800c8bc:	03200008 	jr	t9
b800c8c0:	00000000 	nop

b800c8c4 <__register_exitproc>:
b800c8c4:	27bdffd8 	addiu	sp,sp,-40
b800c8c8:	3c02b801 	lui	v0,0xb801
b800c8cc:	afb00010 	sw	s0,16(sp)
b800c8d0:	8c50d8a8 	lw	s0,-10072(v0)
b800c8d4:	00000000 	nop
b800c8d8:	afb40020 	sw	s4,32(sp)
b800c8dc:	8e020148 	lw	v0,328(s0)
b800c8e0:	00000000 	nop
b800c8e4:	afb3001c 	sw	s3,28(sp)
b800c8e8:	afb20018 	sw	s2,24(sp)
b800c8ec:	afb10014 	sw	s1,20(sp)
b800c8f0:	afbf0024 	sw	ra,36(sp)
b800c8f4:	00808821 	move	s1,a0
b800c8f8:	00a09021 	move	s2,a1
b800c8fc:	00c09821 	move	s3,a2
b800c900:	00e0a021 	move	s4,a3
b800c904:	14400003 	bnez	v0,b800c914 <__register_exitproc+0x50>
b800c908:	00000000 	nop
b800c90c:	2602014c 	addiu	v0,s0,332
b800c910:	ae020148 	sw	v0,328(s0)
b800c914:	8c430004 	lw	v1,4(v0)
	...
b800c920:	28630020 	slti	v1,v1,32
b800c924:	14600014 	bnez	v1,b800c978 <__register_exitproc+0xb4>
b800c928:	00000000 	nop
b800c92c:	3c020000 	lui	v0,0x0
b800c930:	24420000 	addiu	v0,v0,0
b800c934:	14400004 	bnez	v0,b800c948 <__register_exitproc+0x84>
b800c938:	00000000 	nop
b800c93c:	2402ffff 	li	v0,-1
b800c940:	0a00327b 	j	b800c9ec <__register_exitproc+0x128>
b800c944:	00000000 	nop
b800c948:	24040190 	li	a0,400
b800c94c:	0040f809 	jalr	v0
b800c950:	00000000 	nop
b800c954:	1040fff9 	beqz	v0,b800c93c <__register_exitproc+0x78>
b800c958:	00000000 	nop
b800c95c:	8e030148 	lw	v1,328(s0)
b800c960:	00000000 	nop
b800c964:	ac400004 	sw	zero,4(v0)
b800c968:	ac430000 	sw	v1,0(v0)
b800c96c:	ae020148 	sw	v0,328(s0)
b800c970:	ac400188 	sw	zero,392(v0)
b800c974:	ac40018c 	sw	zero,396(v0)
b800c978:	8c430004 	lw	v1,4(v0)
b800c97c:	00000000 	nop
b800c980:	12200013 	beqz	s1,b800c9d0 <__register_exitproc+0x10c>
b800c984:	00000000 	nop
b800c988:	00034080 	sll	t0,v1,0x2
b800c98c:	00484021 	addu	t0,v0,t0
b800c990:	ad130088 	sw	s3,136(t0)
b800c994:	8c450188 	lw	a1,392(v0)
b800c998:	00000000 	nop
b800c99c:	24040001 	li	a0,1
b800c9a0:	00642004 	sllv	a0,a0,v1
b800c9a4:	00a42825 	or	a1,a1,a0
b800c9a8:	ac450188 	sw	a1,392(v0)
b800c9ac:	24050002 	li	a1,2
b800c9b0:	ad140108 	sw	s4,264(t0)
b800c9b4:	16250006 	bne	s1,a1,b800c9d0 <__register_exitproc+0x10c>
b800c9b8:	00000000 	nop
b800c9bc:	8c45018c 	lw	a1,396(v0)
	...
b800c9c8:	00a42025 	or	a0,a1,a0
b800c9cc:	ac44018c 	sw	a0,396(v0)
b800c9d0:	24640001 	addiu	a0,v1,1
b800c9d4:	24630002 	addiu	v1,v1,2
b800c9d8:	00031880 	sll	v1,v1,0x2
b800c9dc:	ac440004 	sw	a0,4(v0)
b800c9e0:	00431021 	addu	v0,v0,v1
b800c9e4:	ac520000 	sw	s2,0(v0)
b800c9e8:	00001021 	move	v0,zero
b800c9ec:	8fbf0024 	lw	ra,36(sp)
b800c9f0:	00000000 	nop
b800c9f4:	8fb40020 	lw	s4,32(sp)
b800c9f8:	00000000 	nop
b800c9fc:	8fb3001c 	lw	s3,28(sp)
b800ca00:	00000000 	nop
b800ca04:	8fb20018 	lw	s2,24(sp)
b800ca08:	00000000 	nop
b800ca0c:	8fb10014 	lw	s1,20(sp)
b800ca10:	00000000 	nop
b800ca14:	8fb00010 	lw	s0,16(sp)
b800ca18:	00000000 	nop
b800ca1c:	27bd0028 	addiu	sp,sp,40
b800ca20:	03e00008 	jr	ra
b800ca24:	00000000 	nop

b800ca28 <__call_exitprocs>:
b800ca28:	3c02b801 	lui	v0,0xb801
b800ca2c:	27bdffc0 	addiu	sp,sp,-64
b800ca30:	8c42d8a8 	lw	v0,-10072(v0)
b800ca34:	00000000 	nop
b800ca38:	afb40028 	sw	s4,40(sp)
b800ca3c:	3c140000 	lui	s4,0x0
b800ca40:	afb70034 	sw	s7,52(sp)
b800ca44:	afb20020 	sw	s2,32(sp)
b800ca48:	afbf003c 	sw	ra,60(sp)
b800ca4c:	afbe0038 	sw	s8,56(sp)
b800ca50:	afb60030 	sw	s6,48(sp)
b800ca54:	afb5002c 	sw	s5,44(sp)
b800ca58:	afb30024 	sw	s3,36(sp)
b800ca5c:	afb1001c 	sw	s1,28(sp)
b800ca60:	afb00018 	sw	s0,24(sp)
b800ca64:	afa40040 	sw	a0,64(sp)
b800ca68:	00a09021 	move	s2,a1
b800ca6c:	afa20010 	sw	v0,16(sp)
b800ca70:	24170001 	li	s7,1
b800ca74:	26940000 	addiu	s4,s4,0
b800ca78:	8fa20010 	lw	v0,16(sp)
	...
b800ca84:	8c500148 	lw	s0,328(v0)
b800ca88:	00000000 	nop
b800ca8c:	24510148 	addiu	s1,v0,328
b800ca90:	12000061 	beqz	s0,b800cc18 <__call_exitprocs+0x1f0>
b800ca94:	00000000 	nop
b800ca98:	8e020004 	lw	v0,4(s0)
b800ca9c:	00000000 	nop
b800caa0:	26150088 	addiu	s5,s0,136
b800caa4:	2453ffff 	addiu	s3,v0,-1
b800caa8:	00131880 	sll	v1,s3,0x2
b800caac:	02a3b021 	addu	s6,s5,v1
b800cab0:	06600043 	bltz	s3,b800cbc0 <__call_exitprocs+0x198>
b800cab4:	00000000 	nop
b800cab8:	12400006 	beqz	s2,b800cad4 <__call_exitprocs+0xac>
b800cabc:	00000000 	nop
b800cac0:	8ec40080 	lw	a0,128(s6)
	...
b800cacc:	14920038 	bne	a0,s2,b800cbb0 <__call_exitprocs+0x188>
b800cad0:	00000000 	nop
b800cad4:	8e050004 	lw	a1,4(s0)
b800cad8:	00000000 	nop
b800cadc:	02d52023 	subu	a0,s6,s5
b800cae0:	02042021 	addu	a0,s0,a0
b800cae4:	24a5ffff 	addiu	a1,a1,-1
b800cae8:	8c860008 	lw	a2,8(a0)
b800caec:	00000000 	nop
b800caf0:	16650004 	bne	s3,a1,b800cb04 <__call_exitprocs+0xdc>
b800caf4:	00000000 	nop
b800caf8:	ae130004 	sw	s3,4(s0)
b800cafc:	0a0032c2 	j	b800cb08 <__call_exitprocs+0xe0>
b800cb00:	00000000 	nop
b800cb04:	ac800008 	sw	zero,8(a0)
b800cb08:	10c00029 	beqz	a2,b800cbb0 <__call_exitprocs+0x188>
b800cb0c:	00000000 	nop
b800cb10:	8e050188 	lw	a1,392(s0)
b800cb14:	00000000 	nop
b800cb18:	02772004 	sllv	a0,s7,s3
b800cb1c:	00852824 	and	a1,a0,a1
b800cb20:	8e1e0004 	lw	s8,4(s0)
b800cb24:	00000000 	nop
b800cb28:	14a00005 	bnez	a1,b800cb40 <__call_exitprocs+0x118>
b800cb2c:	00000000 	nop
b800cb30:	00c0f809 	jalr	a2
b800cb34:	00000000 	nop
b800cb38:	0a0032e2 	j	b800cb88 <__call_exitprocs+0x160>
b800cb3c:	00000000 	nop
b800cb40:	8e05018c 	lw	a1,396(s0)
	...
b800cb4c:	00852024 	and	a0,a0,a1
b800cb50:	14800009 	bnez	a0,b800cb78 <__call_exitprocs+0x150>
b800cb54:	00000000 	nop
b800cb58:	8fa40040 	lw	a0,64(sp)
b800cb5c:	00000000 	nop
b800cb60:	8ec50000 	lw	a1,0(s6)
b800cb64:	00000000 	nop
b800cb68:	00c0f809 	jalr	a2
b800cb6c:	00000000 	nop
b800cb70:	0a0032e2 	j	b800cb88 <__call_exitprocs+0x160>
b800cb74:	00000000 	nop
b800cb78:	8ec40000 	lw	a0,0(s6)
b800cb7c:	00000000 	nop
b800cb80:	00c0f809 	jalr	a2
b800cb84:	00000000 	nop
b800cb88:	8e040004 	lw	a0,4(s0)
	...
b800cb94:	17c4ffb8 	bne	s8,a0,b800ca78 <__call_exitprocs+0x50>
b800cb98:	00000000 	nop
b800cb9c:	8e240000 	lw	a0,0(s1)
	...
b800cba8:	1490ffb3 	bne	a0,s0,b800ca78 <__call_exitprocs+0x50>
b800cbac:	00000000 	nop
b800cbb0:	2673ffff 	addiu	s3,s3,-1
b800cbb4:	26d6fffc 	addiu	s6,s6,-4
b800cbb8:	0a0032ac 	j	b800cab0 <__call_exitprocs+0x88>
b800cbbc:	00000000 	nop
b800cbc0:	12800015 	beqz	s4,b800cc18 <__call_exitprocs+0x1f0>
b800cbc4:	00000000 	nop
b800cbc8:	8e030004 	lw	v1,4(s0)
b800cbcc:	00000000 	nop
b800cbd0:	8e020000 	lw	v0,0(s0)
b800cbd4:	00000000 	nop
b800cbd8:	1460000b 	bnez	v1,b800cc08 <__call_exitprocs+0x1e0>
b800cbdc:	00000000 	nop
b800cbe0:	10400009 	beqz	v0,b800cc08 <__call_exitprocs+0x1e0>
b800cbe4:	00000000 	nop
b800cbe8:	02002021 	move	a0,s0
b800cbec:	ae220000 	sw	v0,0(s1)
b800cbf0:	0280f809 	jalr	s4
b800cbf4:	00000000 	nop
b800cbf8:	8e300000 	lw	s0,0(s1)
b800cbfc:	00000000 	nop
b800cc00:	0a0032a4 	j	b800ca90 <__call_exitprocs+0x68>
b800cc04:	00000000 	nop
b800cc08:	02008821 	move	s1,s0
b800cc0c:	00408021 	move	s0,v0
b800cc10:	0a0032a4 	j	b800ca90 <__call_exitprocs+0x68>
b800cc14:	00000000 	nop
b800cc18:	8fbf003c 	lw	ra,60(sp)
b800cc1c:	00000000 	nop
b800cc20:	8fbe0038 	lw	s8,56(sp)
b800cc24:	00000000 	nop
b800cc28:	8fb70034 	lw	s7,52(sp)
b800cc2c:	00000000 	nop
b800cc30:	8fb60030 	lw	s6,48(sp)
b800cc34:	00000000 	nop
b800cc38:	8fb5002c 	lw	s5,44(sp)
b800cc3c:	00000000 	nop
b800cc40:	8fb40028 	lw	s4,40(sp)
b800cc44:	00000000 	nop
b800cc48:	8fb30024 	lw	s3,36(sp)
b800cc4c:	00000000 	nop
b800cc50:	8fb20020 	lw	s2,32(sp)
b800cc54:	00000000 	nop
b800cc58:	8fb1001c 	lw	s1,28(sp)
b800cc5c:	00000000 	nop
b800cc60:	8fb00018 	lw	s0,24(sp)
b800cc64:	00000000 	nop
b800cc68:	27bd0040 	addiu	sp,sp,64
b800cc6c:	03e00008 	jr	ra
b800cc70:	00000000 	nop

b800cc74 <_init>:
b800cc74:	27bdffe0 	addiu	sp,sp,-32
b800cc78:	afbf0014 	sw	ra,20(sp)
b800cc7c:	04110001 	bal	b800cc84 <_init+0x10>
b800cc80:	00000000 	nop
b800cc84:	0e000465 	jal	b8001194 <frame_dummy>
b800cc88:	00000000 	nop
b800cc8c:	04110001 	bal	b800cc94 <_init+0x20>
b800cc90:	00000000 	nop
b800cc94:	0e00311f 	jal	b800c47c <__do_global_ctors_aux>
b800cc98:	00000000 	nop
b800cc9c:	8fbf0014 	lw	ra,20(sp)
b800cca0:	00000000 	nop
b800cca4:	27bd0020 	addiu	sp,sp,32
b800cca8:	03e00008 	jr	ra
b800ccac:	00000000 	nop

b800ccb0 <_fini>:
b800ccb0:	27bdffe0 	addiu	sp,sp,-32
b800ccb4:	afbf0014 	sw	ra,20(sp)
b800ccb8:	04110001 	bal	b800ccc0 <_fini+0x10>
b800ccbc:	00000000 	nop
b800ccc0:	0e000423 	jal	b800108c <__do_global_dtors_aux>
b800ccc4:	00000000 	nop
b800ccc8:	8fbf0014 	lw	ra,20(sp)
b800cccc:	00000000 	nop
b800ccd0:	27bd0020 	addiu	sp,sp,32
b800ccd4:	03e00008 	jr	ra
b800ccd8:	00000000 	nop
b800ccdc:	a0000000 	sb	zero,0(zero)
	...

Disassembly of section .data:

b800ccf8 <main_scale>:
b800ccf8:	00000036 	tne	zero,zero

b800ccfc <ERR_PARAM>:
b800ccfc:	00000001 	movf	zero,zero,$fcc0

b800cd00 <PRINT_EN>:
b800cd00:	00000001 	movf	zero,zero,$fcc0

b800cd04 <REPORT_EN>:
b800cd04:	00000001 	movf	zero,zero,$fcc0

b800cd08 <TX_DATA_LENGTH>:
b800cd08:	00001024 	and	v0,zero,zero

b800cd0c <SPW_SPEED_MIN>:
b800cd0c:	00000010 	mfhi	zero

b800cd10 <SPW_SPEED_STEP>:
b800cd10:	00000010 	mfhi	zero

b800cd14 <SPW_SPEED_MAX>:
b800cd14:	00000200 	sll	zero,zero,0x8

b800cd18 <GSPW_SPEED_SCALE>:
b800cd18:	00000005 	0x5

b800cd1c <SPW_SPEC_CABLE_PORTS>:
b800cd1c:	00000003 	sra	zero,zero,0x0

b800cd20 <Flag_Corr>:
b800cd20:	00000001 	movf	zero,zero,$fcc0

b800cd24 <SWIC_Speed>:
b800cd24:	00000014 	0x14

b800cd28 <SWIC_Number>:
b800cd28:	00000005 	0x5

b800cd2c <REGS>:
b800cd2c:	b82fa000 	swr	t7,-24576(at)

b800cd30 <PMA_TEST_CSR>:
b800cd30:	b82fa200 	swr	t7,-24064(at)

b800cd34 <ROUTING_TABLE>:
b800cd34:	b82fa400 	swr	t7,-23552(at)

b800cd38 <risc_hnlr_func>:
b800cd38:	ffffffff 	sdc3	$31,-1(ra)
b800cd3c:	ffffffff 	sdc3	$31,-1(ra)
b800cd40:	ffffffff 	sdc3	$31,-1(ra)
b800cd44:	ffffffff 	sdc3	$31,-1(ra)
b800cd48:	ffffffff 	sdc3	$31,-1(ra)
b800cd4c:	ffffffff 	sdc3	$31,-1(ra)
b800cd50:	ffffffff 	sdc3	$31,-1(ra)
b800cd54:	ffffffff 	sdc3	$31,-1(ra)
b800cd58:	ffffffff 	sdc3	$31,-1(ra)
b800cd5c:	ffffffff 	sdc3	$31,-1(ra)
b800cd60:	ffffffff 	sdc3	$31,-1(ra)
b800cd64:	ffffffff 	sdc3	$31,-1(ra)
b800cd68:	ffffffff 	sdc3	$31,-1(ra)
b800cd6c:	ffffffff 	sdc3	$31,-1(ra)
b800cd70:	ffffffff 	sdc3	$31,-1(ra)
b800cd74:	ffffffff 	sdc3	$31,-1(ra)
b800cd78:	ffffffff 	sdc3	$31,-1(ra)
b800cd7c:	ffffffff 	sdc3	$31,-1(ra)
b800cd80:	ffffffff 	sdc3	$31,-1(ra)
b800cd84:	ffffffff 	sdc3	$31,-1(ra)
b800cd88:	ffffffff 	sdc3	$31,-1(ra)
b800cd8c:	ffffffff 	sdc3	$31,-1(ra)
b800cd90:	ffffffff 	sdc3	$31,-1(ra)
b800cd94:	ffffffff 	sdc3	$31,-1(ra)
b800cd98:	ffffffff 	sdc3	$31,-1(ra)
b800cd9c:	ffffffff 	sdc3	$31,-1(ra)
b800cda0:	ffffffff 	sdc3	$31,-1(ra)
b800cda4:	ffffffff 	sdc3	$31,-1(ra)
b800cda8:	ffffffff 	sdc3	$31,-1(ra)
b800cdac:	ffffffff 	sdc3	$31,-1(ra)
b800cdb0:	ffffffff 	sdc3	$31,-1(ra)
b800cdb4:	ffffffff 	sdc3	$31,-1(ra)
b800cdb8:	ffffffff 	sdc3	$31,-1(ra)
b800cdbc:	ffffffff 	sdc3	$31,-1(ra)
b800cdc0:	ffffffff 	sdc3	$31,-1(ra)
b800cdc4:	ffffffff 	sdc3	$31,-1(ra)
b800cdc8:	ffffffff 	sdc3	$31,-1(ra)
b800cdcc:	ffffffff 	sdc3	$31,-1(ra)
b800cdd0:	ffffffff 	sdc3	$31,-1(ra)
b800cdd4:	ffffffff 	sdc3	$31,-1(ra)
b800cdd8:	ffffffff 	sdc3	$31,-1(ra)
b800cddc:	ffffffff 	sdc3	$31,-1(ra)
b800cde0:	ffffffff 	sdc3	$31,-1(ra)
b800cde4:	ffffffff 	sdc3	$31,-1(ra)
b800cde8:	ffffffff 	sdc3	$31,-1(ra)
b800cdec:	ffffffff 	sdc3	$31,-1(ra)
b800cdf0:	ffffffff 	sdc3	$31,-1(ra)
b800cdf4:	ffffffff 	sdc3	$31,-1(ra)
b800cdf8:	ffffffff 	sdc3	$31,-1(ra)
b800cdfc:	ffffffff 	sdc3	$31,-1(ra)
b800ce00:	ffffffff 	sdc3	$31,-1(ra)
b800ce04:	ffffffff 	sdc3	$31,-1(ra)
b800ce08:	ffffffff 	sdc3	$31,-1(ra)
b800ce0c:	ffffffff 	sdc3	$31,-1(ra)
b800ce10:	ffffffff 	sdc3	$31,-1(ra)
b800ce14:	ffffffff 	sdc3	$31,-1(ra)
b800ce18:	ffffffff 	sdc3	$31,-1(ra)
b800ce1c:	ffffffff 	sdc3	$31,-1(ra)
b800ce20:	ffffffff 	sdc3	$31,-1(ra)
b800ce24:	ffffffff 	sdc3	$31,-1(ra)
b800ce28:	ffffffff 	sdc3	$31,-1(ra)
b800ce2c:	ffffffff 	sdc3	$31,-1(ra)
b800ce30:	ffffffff 	sdc3	$31,-1(ra)
b800ce34:	ffffffff 	sdc3	$31,-1(ra)
b800ce38:	ffffffff 	sdc3	$31,-1(ra)
b800ce3c:	ffffffff 	sdc3	$31,-1(ra)
b800ce40:	ffffffff 	sdc3	$31,-1(ra)
b800ce44:	ffffffff 	sdc3	$31,-1(ra)
b800ce48:	ffffffff 	sdc3	$31,-1(ra)
b800ce4c:	ffffffff 	sdc3	$31,-1(ra)
b800ce50:	ffffffff 	sdc3	$31,-1(ra)
b800ce54:	ffffffff 	sdc3	$31,-1(ra)
b800ce58:	ffffffff 	sdc3	$31,-1(ra)
b800ce5c:	ffffffff 	sdc3	$31,-1(ra)
b800ce60:	ffffffff 	sdc3	$31,-1(ra)
b800ce64:	ffffffff 	sdc3	$31,-1(ra)
b800ce68:	ffffffff 	sdc3	$31,-1(ra)
b800ce6c:	ffffffff 	sdc3	$31,-1(ra)
b800ce70:	ffffffff 	sdc3	$31,-1(ra)
b800ce74:	ffffffff 	sdc3	$31,-1(ra)
b800ce78:	ffffffff 	sdc3	$31,-1(ra)
b800ce7c:	ffffffff 	sdc3	$31,-1(ra)
b800ce80:	ffffffff 	sdc3	$31,-1(ra)
b800ce84:	ffffffff 	sdc3	$31,-1(ra)
b800ce88:	ffffffff 	sdc3	$31,-1(ra)
b800ce8c:	ffffffff 	sdc3	$31,-1(ra)
b800ce90:	ffffffff 	sdc3	$31,-1(ra)
b800ce94:	ffffffff 	sdc3	$31,-1(ra)
b800ce98:	ffffffff 	sdc3	$31,-1(ra)
b800ce9c:	00000000 	nop

b800cea0 <_impure_ptr>:
b800cea0:	b800cea8 	swr	zero,-12632(zero)
b800cea4:	00000000 	nop

b800cea8 <impure_data>:
b800cea8:	00000000 	nop
b800ceac:	b800d194 	swr	zero,-11884(zero)
b800ceb0:	b800d1f8 	swr	zero,-11784(zero)
b800ceb4:	b800d25c 	swr	zero,-11684(zero)
	...
b800cedc:	b800db5c 	swr	zero,-9380(zero)
	...
b800cf50:	00000001 	movf	zero,zero,$fcc0
b800cf54:	00000000 	nop
b800cf58:	abcd330e 	swl	t5,13070(s8)
b800cf5c:	e66d1234 	swc1	$f13,4660(s3)
b800cf60:	0005deec 	0x5deec
b800cf64:	0000000b 	movn	zero,zero,zero
	...

b800d2c0 <__ctype_ptr__>:
b800d2c0:	b800da2f 	swr	zero,-9681(zero)

Disassembly of section .ctors:

b800d2c4 <__CTOR_LIST__>:
b800d2c4:	ffffffff 	sdc3	$31,-1(ra)

b800d2c8 <__CTOR_END__>:
b800d2c8:	00000000 	nop

Disassembly of section .dtors:

b800d2cc <__DTOR_LIST__>:
b800d2cc:	ffffffff 	sdc3	$31,-1(ra)

b800d2d0 <__DTOR_END__>:
b800d2d0:	00000000 	nop

Disassembly of section .jcr:

b800d2d4 <__JCR_END__>:
b800d2d4:	00000000 	nop

Disassembly of section .sdata:

b800d2d8 <__TMC_END__>:
b800d2d8:	00000000 	nop

Disassembly of section .rodata:

b800d2dc <_global_impure_ptr-0x5cc>:
b800d2dc:	00000a0d 	break	0x0,0x28
b800d2e0:	6d726f66 	0x6d726f66
b800d2e4:	67646120 	0x67646120
b800d2e8:	00000000 	nop
b800d2ec:	6f727245 	0x6f727245
b800d2f0:	65522072 	0x65522072
b800d2f4:	00746573 	tltu	v1,s4,0x195
b800d2f8:	6f727245 	0x6f727245
b800d2fc:	61572072 	0x61572072
b800d300:	00007469 	0x7469
b800d304:	64616552 	0x64616552
b800d308:	00000079 	0x79
b800d30c:	72617453 	0x72617453
b800d310:	00646574 	teq	v1,a0,0x195
b800d314:	6e6e6f43 	0x6e6e6f43
b800d318:	69746365 	0x69746365
b800d31c:	0000676e 	0x676e
b800d320:	006e7552 	0x6e7552
b800d324:	6e6b6e55 	0x6e6b6e55
b800d328:	206e776f 	addi	t6,v1,30575
b800d32c:	74617453 	jalx	b185d14c <Interrupt-0x67a3034>
b800d330:	00007375 	0x7375
b800d334:	b8003224 	swr	zero,12836(zero)
b800d338:	b800323c 	swr	zero,12860(zero)
b800d33c:	b8003254 	swr	zero,12884(zero)
b800d340:	b800326c 	swr	zero,12908(zero)
b800d344:	b8003284 	swr	zero,12932(zero)
b800d348:	b800329c 	swr	zero,12956(zero)
b800d34c:	656d6974 	0x656d6974
b800d350:	2074756f 	addi	s4,v1,30063
b800d354:	63616572 	0x63616572
b800d358:	00646568 	0x646568
b800d35c:	33323130 	andi	s2,t9,0x3130
b800d360:	37363534 	ori	s6,t9,0x3534
b800d364:	42413938 	c0	0x413938
b800d368:	46454443 	c1	0x454443
b800d36c:	00000000 	nop
b800d370:	0000000d 	break
b800d374:	75746573 	jalx	b5d195cc <Interrupt-0x22e6bb4>
b800d378:	00000070 	tge	zero,zero,0x1
b800d37c:	ede8f0ef 	swc3	$8,-3857(t7)
b800d380:	7320ebff 	sdbbp	0xc83af
b800d384:	70757465 	0x70757465
b800d388:	0000003a 	0x3a
b800d38c:	695f5753 	0x695f5753
b800d390:	0074696e 	0x74696e
b800d394:	ede8f0ef 	swc3	$8,-3857(t7)
b800d398:	5320ebff 	beqzl	t9,b8008398 <main+0x190>
b800d39c:	6e695f57 	0x6e695f57
b800d3a0:	003a7469 	0x3a7469
b800d3a4:	71657266 	0x71657266
b800d3a8:	00000000 	nop
b800d3ac:	ede8f0ef 	swc3	$8,-3857(t7)
b800d3b0:	6620ebff 	0x6620ebff
b800d3b4:	3a716572 	xori	s1,s3,0x6572
b800d3b8:	00000000 	nop
b800d3bc:	74696e69 	jalx	b1a5b9a4 <Interrupt-0x65a47dc>
b800d3c0:	3832315f 	xori	s2,at,0x315f
b800d3c4:	00000038 	0x38
b800d3c8:	ede8f0ef 	swc3	$8,-3857(t7)
b800d3cc:	6920ebff 	0x6920ebff
b800d3d0:	5f74696e 	0x5f74696e
b800d3d4:	38383231 	xori	t8,at,0x3231
b800d3d8:	0000003a 	0x3a
b800d3dc:	5f747372 	0x5f747372
b800d3e0:	38383231 	xori	t8,at,0x3231
b800d3e4:	00000000 	nop
b800d3e8:	ede8f0ef 	swc3	$8,-3857(t7)
b800d3ec:	7220ebff 	sdbbp	0x883af
b800d3f0:	315f7473 	andi	ra,t2,0x7473
b800d3f4:	3a383832 	xori	t8,s1,0x3832
b800d3f8:	00000000 	nop
b800d3fc:	706c6568 	0x706c6568
b800d400:	00000000 	nop
b800d404:	ede8f0ef 	swc3	$8,-3857(t7)
b800d408:	6820ebff 	0x6820ebff
b800d40c:	0d706c65 	jal	b5c1b194 <Interrupt-0x23e4fec>
b800d410:	00000000 	nop
b800d414:	74736574 	jalx	b1cd95d0 <Interrupt-0x6326bb0>
b800d418:	00000000 	nop
b800d41c:	ede8f0ef 	swc3	$8,-3857(t7)
b800d420:	7420ebff 	jalx	b083affc <Interrupt-0x77c5184>
b800d424:	3a747365 	xori	s4,s3,0x7365
b800d428:	00000000 	nop
b800d42c:	00636461 	0x636461
b800d430:	2d2d2d2d 	sltiu	t5,t1,11565
b800d434:	2d2d2d2d 	sltiu	t5,t1,11565
b800d438:	000d2d2d 	0xd2d2d
b800d43c:	ede8f0ef 	swc3	$8,-3857(t7)
b800d440:	6120ebff 	0x6120ebff
b800d444:	003a6364 	0x3a6364
b800d448:	5f727075 	0x5f727075
b800d44c:	00317461 	0x317461
b800d450:	ede8f0ef 	swc3	$8,-3857(t7)
b800d454:	7520ebff 	jalx	b483affc <Interrupt-0x37c5184>
b800d458:	615f7270 	0x615f7270
b800d45c:	003a3174 	teq	at,k0,0xc5
b800d460:	5f727075 	0x5f727075
b800d464:	00327461 	0x327461
b800d468:	ede8f0ef 	swc3	$8,-3857(t7)
b800d46c:	7520ebff 	jalx	b483affc <Interrupt-0x37c5184>
b800d470:	615f7270 	0x615f7270
b800d474:	003a3274 	teq	at,k0,0xc9
b800d478:	5f697073 	0x5f697073
b800d47c:	00000077 	0x77
b800d480:	ede8f0ef 	swc3	$8,-3857(t7)
b800d484:	7320ebff 	sdbbp	0xc83af
b800d488:	775f6970 	jalx	bd7da5c0 <lport_InputArray+0x53da5c0>
b800d48c:	0000003a 	0x3a
b800d490:	0000002e 	0x2e
b800d494:	5f697073 	0x5f697073
b800d498:	00000072 	tlt	zero,zero,0x1
b800d49c:	ede8f0ef 	swc3	$8,-3857(t7)
b800d4a0:	7320ebff 	sdbbp	0xc83af
b800d4a4:	725f6970 	0x725f6970
b800d4a8:	0000003a 	0x3a
b800d4ac:	0000003e 	0x3e
b800d4b0:	20f2e5ed 	addi	s2,a3,-6675
b800d4b4:	e7ffe2f1 	swc1	$f31,-7439(ra)
b800d4b8:	206320e8 	addi	v1,v1,8424
b800d4bc:	38383231 	xori	t8,at,0x3231
b800d4c0:	000a0d21 	0xa0d21
b800d4c4:	6f727265 	0x6f727265
b800d4c8:	00003d72 	tlt	zero,zero,0xf5
b800d4cc:	74696e69 	jalx	b1a5b9a4 <Interrupt-0x65a47dc>
b800d4d0:	41505320 	0x41505320
b800d4d4:	41574543 	0x41574543
b800d4d8:	0a0d4552 	j	b8351548 <_end+0x33a9c0>
b800d4dc:	00000000 	nop
b800d4e0:	74696177 	jalx	b1a585dc <Interrupt-0x65a7ba4>
b800d4e4:	61707320 	0x61707320
b800d4e8:	61776563 	0x61776563
b800d4ec:	0a0d6572 	j	b83595c8 <_end+0x342a40>
b800d4f0:	00000000 	nop
b800d4f4:	6b6e694c 	0x6b6e694c
b800d4f8:	73653a30 	0x73653a30
b800d4fc:	6c626174 	0x6c626174
b800d500:	65687369 	0x65687369
b800d504:	000a0d64 	0xa0d64
b800d508:	6b6e694c 	0x6b6e694c
b800d50c:	73653a31 	0x73653a31
b800d510:	6c626174 	0x6c626174
b800d514:	65687369 	0x65687369
b800d518:	000a0d64 	0xa0d64
b800d51c:	67617473 	0x67617473
b800d520:	0d312065 	jal	b4c48194 <Interrupt-0x33b7fec>
b800d524:	0000000a 	movz	zero,zero,zero
b800d528:	67617473 	0x67617473
b800d52c:	0d322065 	jal	b4c88194 <Interrupt-0x3377fec>
b800d530:	0000000a 	movz	zero,zero,zero
b800d534:	4f525245 	c3	0x1525245
b800d538:	50532052 	beql	v0,s3,b8015684 <strng+0x6b2c>
b800d53c:	20444545 	addi	a0,v0,17733
b800d540:	74696177 	jalx	b1a585dc <Interrupt-0x65a7ba4>
b800d544:	0d212121 	jal	b4848484 <Interrupt-0x37b7cfc>
b800d548:	0000000a 	movz	zero,zero,zero
b800d54c:	e4e5eef1 	swc1	$f5,-4367(a3)
b800d550:	ede5ede8 	swc3	$5,-4632(t7)
b800d554:	f320e5e8 	0xf320e5e8
b800d558:	ede0f2f1 	swc3	$0,-3343(t7)
b800d55c:	e5ebe2ee 	swc1	$f11,-7442(t7)
b800d560:	2121eeed 	addi	at,t1,-4371
b800d564:	000a0d21 	0xa0d21
b800d568:	e4e5eef1 	swc1	$f5,-4367(a3)
b800d56c:	ede5ede8 	swc3	$5,-4632(t7)
b800d570:	f020e5e8 	0xf020e5e8
b800d574:	f0eee7e0 	0xf0eee7e0
b800d578:	eeebe0e2 	swc3	$11,-7966(s7)
b800d57c:	0a0dfcf1 	j	b837f3c4 <_end+0x36883c>
b800d580:	00000000 	nop
b800d584:	5320307e 	beqzl	t9,b8019780 <_end+0x2bf8>
b800d588:	6e695f57 	0x6e695f57
b800d58c:	003b7469 	0x3b7469
b800d590:	2d2d2d2d 	sltiu	t5,t1,11565
b800d594:	2d2d2d2d 	sltiu	t5,t1,11565
b800d598:	2d2d2d2d 	sltiu	t5,t1,11565
b800d59c:	2d2d2d2d 	sltiu	t5,t1,11565
b800d5a0:	2d2d2d2d 	sltiu	t5,t1,11565
b800d5a4:	0a2d2d2d 	j	b8b4b4b4 <lport_InputArray+0x74b4b4>
b800d5a8:	0000000d 	break
b800d5ac:	2020202d 	addi	zero,at,8237
b800d5b0:	20202020 	addi	zero,at,8224
b800d5b4:	52415453 	beql	s2,at,b8022704 <_end+0xbb7c>
b800d5b8:	20202054 	addi	zero,at,8276
b800d5bc:	20202020 	addi	zero,at,8224
b800d5c0:	0a2d2020 	j	b8b48080 <lport_InputArray+0x748080>
b800d5c4:	0000000d 	break
b800d5c8:	6120307e 	0x6120307e
b800d5cc:	313a6364 	andi	k0,t1,0x6364
b800d5d0:	0000003b 	0x3b
b800d5d4:	6920307e 	0x6920307e
b800d5d8:	5f74696e 	0x5f74696e
b800d5dc:	38383231 	xori	t8,at,0x3231
b800d5e0:	003b313a 	0x3b313a
b800d5e4:	43415053 	c0	0x1415053
b800d5e8:	52495745 	beql	s2,t1,b8023300 <_end+0xc778>
b800d5ec:	50552045 	beql	v0,s5,b8015704 <strng+0x6bac>
b800d5f0:	000d0a21 	0xd0a21
b800d5f4:	43415053 	c0	0x1415053
b800d5f8:	52495745 	beql	s2,t1,b8023310 <_end+0xc788>
b800d5fc:	4f442045 	c3	0x1442045
b800d600:	0d214e57 	jal	b485395c <Interrupt-0x37ac824>
b800d604:	0000000a 	movz	zero,zero,zero
b800d608:	b8009688 	swr	zero,-27000(zero)
b800d60c:	b80096a4 	swr	zero,-26972(zero)
b800d610:	b80096c0 	swr	zero,-26944(zero)
b800d614:	b80096dc 	swr	zero,-26916(zero)
b800d618:	b80096f8 	swr	zero,-26888(zero)
b800d61c:	b8009714 	swr	zero,-26860(zero)
b800d620:	b8009730 	swr	zero,-26832(zero)
b800d624:	b800974c 	swr	zero,-26804(zero)
b800d628:	b8009768 	swr	zero,-26776(zero)
b800d62c:	b8009784 	swr	zero,-26748(zero)
b800d630:	b80097a0 	swr	zero,-26720(zero)
b800d634:	b80097bc 	swr	zero,-26692(zero)
b800d638:	b80097d8 	swr	zero,-26664(zero)
b800d63c:	b80097f4 	swr	zero,-26636(zero)
b800d640:	b8009810 	swr	zero,-26608(zero)
b800d644:	b800982c 	swr	zero,-26580(zero)
b800d648:	b8009848 	swr	zero,-26552(zero)
b800d64c:	b8009864 	swr	zero,-26524(zero)
b800d650:	b8009880 	swr	zero,-26496(zero)
b800d654:	b800989c 	swr	zero,-26468(zero)
b800d658:	b80098b8 	swr	zero,-26440(zero)
b800d65c:	b80098d4 	swr	zero,-26412(zero)
b800d660:	b80098f0 	swr	zero,-26384(zero)
b800d664:	b800990c 	swr	zero,-26356(zero)
b800d668:	b8009928 	swr	zero,-26328(zero)
b800d66c:	b8009944 	swr	zero,-26300(zero)
b800d670:	b8009960 	swr	zero,-26272(zero)
b800d674:	b800997c 	swr	zero,-26244(zero)
b800d678:	b8009998 	swr	zero,-26216(zero)
b800d67c:	b80099b4 	swr	zero,-26188(zero)
b800d680:	b80099d0 	swr	zero,-26160(zero)
b800d684:	b8009b04 	swr	zero,-25852(zero)
b800d688:	b8009b20 	swr	zero,-25824(zero)
b800d68c:	b8009b3c 	swr	zero,-25796(zero)
b800d690:	b8009b58 	swr	zero,-25768(zero)
b800d694:	b8009b74 	swr	zero,-25740(zero)
b800d698:	b8009b90 	swr	zero,-25712(zero)
b800d69c:	b8009bac 	swr	zero,-25684(zero)
b800d6a0:	b8009bc8 	swr	zero,-25656(zero)
b800d6a4:	b8009be4 	swr	zero,-25628(zero)
b800d6a8:	b8009c00 	swr	zero,-25600(zero)
b800d6ac:	b8009c1c 	swr	zero,-25572(zero)
b800d6b0:	b8009c38 	swr	zero,-25544(zero)
b800d6b4:	b8009c54 	swr	zero,-25516(zero)
b800d6b8:	b8009c70 	swr	zero,-25488(zero)
b800d6bc:	b8009c8c 	swr	zero,-25460(zero)
b800d6c0:	b8009ca8 	swr	zero,-25432(zero)
b800d6c4:	b8009f00 	swr	zero,-24832(zero)
b800d6c8:	b80099ec 	swr	zero,-26132(zero)
b800d6cc:	b8009a08 	swr	zero,-26104(zero)
b800d6d0:	b8009a24 	swr	zero,-26076(zero)
b800d6d4:	b8009a40 	swr	zero,-26048(zero)
b800d6d8:	b8009a5c 	swr	zero,-26020(zero)
b800d6dc:	b8009a78 	swr	zero,-25992(zero)
b800d6e0:	b8009a94 	swr	zero,-25964(zero)
b800d6e4:	b8009ab0 	swr	zero,-25936(zero)
b800d6e8:	b8009acc 	swr	zero,-25908(zero)
b800d6ec:	b8009ae8 	swr	zero,-25880(zero)
b800d6f0:	b8009cc4 	swr	zero,-25404(zero)
b800d6f4:	b8009ce0 	swr	zero,-25376(zero)
b800d6f8:	b8009cfc 	swr	zero,-25348(zero)
b800d6fc:	b8009d18 	swr	zero,-25320(zero)
b800d700:	b8009d34 	swr	zero,-25292(zero)
b800d704:	b8009d50 	swr	zero,-25264(zero)
b800d708:	b8009d6c 	swr	zero,-25236(zero)
b800d70c:	b8009d88 	swr	zero,-25208(zero)
b800d710:	b8009da4 	swr	zero,-25180(zero)
b800d714:	b8009dc0 	swr	zero,-25152(zero)
b800d718:	b8009ddc 	swr	zero,-25124(zero)
b800d71c:	b8009df8 	swr	zero,-25096(zero)
b800d720:	b8009e14 	swr	zero,-25068(zero)
b800d724:	b8009e30 	swr	zero,-25040(zero)
b800d728:	b8009e4c 	swr	zero,-25012(zero)
b800d72c:	b8009e68 	swr	zero,-24984(zero)
b800d730:	b8009e84 	swr	zero,-24956(zero)
b800d734:	b8009ed4 	swr	zero,-24876(zero)
b800d738:	b8009f74 	swr	zero,-24716(zero)
b800d73c:	b8009f8c 	swr	zero,-24692(zero)
b800d740:	b8009fa4 	swr	zero,-24668(zero)
b800d744:	b8009fbc 	swr	zero,-24644(zero)
b800d748:	b8009fd4 	swr	zero,-24620(zero)
b800d74c:	b8009fec 	swr	zero,-24596(zero)
b800d750:	b800a004 	swr	zero,-24572(zero)
b800d754:	b800a01c 	swr	zero,-24548(zero)
b800d758:	b800a034 	swr	zero,-24524(zero)
b800d75c:	b800a04c 	swr	zero,-24500(zero)
b800d760:	b800a064 	swr	zero,-24476(zero)
b800d764:	b800a07c 	swr	zero,-24452(zero)
b800d768:	b800a094 	swr	zero,-24428(zero)
b800d76c:	b800a0ac 	swr	zero,-24404(zero)
b800d770:	b800a0c4 	swr	zero,-24380(zero)
b800d774:	b800a0dc 	swr	zero,-24356(zero)
b800d778:	b800a0f4 	swr	zero,-24332(zero)
b800d77c:	b800a10c 	swr	zero,-24308(zero)
b800d780:	b800a124 	swr	zero,-24284(zero)
b800d784:	b800a13c 	swr	zero,-24260(zero)
b800d788:	b800a154 	swr	zero,-24236(zero)
b800d78c:	b800a16c 	swr	zero,-24212(zero)
b800d790:	b800a184 	swr	zero,-24188(zero)
b800d794:	b800a19c 	swr	zero,-24164(zero)
b800d798:	b800a1b4 	swr	zero,-24140(zero)
b800d79c:	b800a1cc 	swr	zero,-24116(zero)
b800d7a0:	b800a1e4 	swr	zero,-24092(zero)
b800d7a4:	b800a1fc 	swr	zero,-24068(zero)
b800d7a8:	b800a214 	swr	zero,-24044(zero)
b800d7ac:	b800a22c 	swr	zero,-24020(zero)
b800d7b0:	b800a244 	swr	zero,-23996(zero)
b800d7b4:	b800a34c 	swr	zero,-23732(zero)
b800d7b8:	b800a364 	swr	zero,-23708(zero)
b800d7bc:	b800a37c 	swr	zero,-23684(zero)
b800d7c0:	b800a394 	swr	zero,-23660(zero)
b800d7c4:	b800a3ac 	swr	zero,-23636(zero)
b800d7c8:	b800a3c4 	swr	zero,-23612(zero)
b800d7cc:	b800a3dc 	swr	zero,-23588(zero)
b800d7d0:	b800a3f4 	swr	zero,-23564(zero)
b800d7d4:	b800a40c 	swr	zero,-23540(zero)
b800d7d8:	b800a424 	swr	zero,-23516(zero)
b800d7dc:	b800a43c 	swr	zero,-23492(zero)
b800d7e0:	b800a454 	swr	zero,-23468(zero)
b800d7e4:	b800a46c 	swr	zero,-23444(zero)
b800d7e8:	b800a484 	swr	zero,-23420(zero)
b800d7ec:	b800a49c 	swr	zero,-23396(zero)
b800d7f0:	b800a4b4 	swr	zero,-23372(zero)
b800d7f4:	b800a6ac 	swr	zero,-22868(zero)
b800d7f8:	b800a25c 	swr	zero,-23972(zero)
b800d7fc:	b800a274 	swr	zero,-23948(zero)
b800d800:	b800a28c 	swr	zero,-23924(zero)
b800d804:	b800a2a4 	swr	zero,-23900(zero)
b800d808:	b800a2bc 	swr	zero,-23876(zero)
b800d80c:	b800a2d4 	swr	zero,-23852(zero)
b800d810:	b800a2ec 	swr	zero,-23828(zero)
b800d814:	b800a304 	swr	zero,-23804(zero)
b800d818:	b800a31c 	swr	zero,-23780(zero)
b800d81c:	b800a334 	swr	zero,-23756(zero)
b800d820:	b800a4cc 	swr	zero,-23348(zero)
b800d824:	b800a4e4 	swr	zero,-23324(zero)
b800d828:	b800a4fc 	swr	zero,-23300(zero)
b800d82c:	b800a514 	swr	zero,-23276(zero)
b800d830:	b800a52c 	swr	zero,-23252(zero)
b800d834:	b800a544 	swr	zero,-23228(zero)
b800d838:	b800a55c 	swr	zero,-23204(zero)
b800d83c:	b800a574 	swr	zero,-23180(zero)
b800d840:	b800a58c 	swr	zero,-23156(zero)
b800d844:	b800a5a4 	swr	zero,-23132(zero)
b800d848:	b800a5bc 	swr	zero,-23108(zero)
b800d84c:	b800a5d4 	swr	zero,-23084(zero)
b800d850:	b800a5ec 	swr	zero,-23060(zero)
b800d854:	b800a604 	swr	zero,-23036(zero)
b800d858:	b800a61c 	swr	zero,-23012(zero)
b800d85c:	b800a634 	swr	zero,-22988(zero)
b800d860:	b800a64c 	swr	zero,-22964(zero)
b800d864:	b800a678 	swr	zero,-22920(zero)
b800d868:	b800b810 	swr	zero,-18416(zero)
b800d86c:	b800b834 	swr	zero,-18380(zero)
b800d870:	b800b858 	swr	zero,-18344(zero)
b800d874:	b800b87c 	swr	zero,-18308(zero)
b800d878:	b800b8a0 	swr	zero,-18272(zero)
b800d87c:	b800b8c4 	swr	zero,-18236(zero)
b800d880:	b800b8e8 	swr	zero,-18200(zero)
b800d884:	b800b90c 	swr	zero,-18164(zero)
b800d888:	b800b930 	swr	zero,-18128(zero)
b800d88c:	b800b954 	swr	zero,-18092(zero)
b800d890:	b800b978 	swr	zero,-18056(zero)
b800d894:	b800b99c 	swr	zero,-18020(zero)
b800d898:	b800b9c0 	swr	zero,-17984(zero)
b800d89c:	b800b9e4 	swr	zero,-17948(zero)
b800d8a0:	b800ba08 	swr	zero,-17912(zero)
b800d8a4:	b800ba2c 	swr	zero,-17876(zero)

b800d8a8 <_global_impure_ptr>:
b800d8a8:	b800cea8 	swr	zero,-12632(zero)

b800d8ac <_ctype_>:
b800d8ac:	20202000 	addi	zero,at,8192
b800d8b0:	20202020 	addi	zero,at,8224
b800d8b4:	28282020 	slti	t0,at,8224
b800d8b8:	20282828 	addi	t0,at,10280
b800d8bc:	20202020 	addi	zero,at,8224
b800d8c0:	20202020 	addi	zero,at,8224
b800d8c4:	20202020 	addi	zero,at,8224
b800d8c8:	20202020 	addi	zero,at,8224
b800d8cc:	10108820 	beq	zero,s0,b7fef950 <Interrupt-0x10830>
b800d8d0:	10101010 	beq	zero,s0,b8011914 <strng+0x2dbc>
b800d8d4:	10101010 	beq	zero,s0,b8011918 <strng+0x2dc0>
b800d8d8:	10101010 	beq	zero,s0,b801191c <strng+0x2dc4>
b800d8dc:	04040410 	0x4040410
b800d8e0:	04040404 	0x4040404
b800d8e4:	10040404 	beq	zero,a0,b800e8f8 <DSP+0x5b8>
b800d8e8:	10101010 	beq	zero,s0,b801192c <strng+0x2dd4>
b800d8ec:	41411010 	0x41411010
b800d8f0:	41414141 	0x41414141
b800d8f4:	01010101 	0x1010101
b800d8f8:	01010101 	0x1010101
b800d8fc:	01010101 	0x1010101
b800d900:	01010101 	0x1010101
b800d904:	01010101 	0x1010101
b800d908:	10101010 	beq	zero,s0,b801194c <strng+0x2df4>
b800d90c:	42421010 	c0	0x421010
b800d910:	42424242 	c0	0x424242
b800d914:	02020202 	0x2020202
b800d918:	02020202 	0x2020202
b800d91c:	02020202 	0x2020202
b800d920:	02020202 	0x2020202
b800d924:	02020202 	0x2020202
b800d928:	10101010 	beq	zero,s0,b801196c <strng+0x2e14>
b800d92c:	00000020 	add	zero,zero,zero
	...

b800d9b0 <_ctype_b>:
	...
b800da30:	20202020 	addi	zero,at,8224
b800da34:	20202020 	addi	zero,at,8224
b800da38:	28282820 	slti	t0,at,10272
b800da3c:	20202828 	addi	zero,at,10280
b800da40:	20202020 	addi	zero,at,8224
b800da44:	20202020 	addi	zero,at,8224
b800da48:	20202020 	addi	zero,at,8224
b800da4c:	20202020 	addi	zero,at,8224
b800da50:	10101088 	beq	zero,s0,b8011c74 <strng+0x311c>
b800da54:	10101010 	beq	zero,s0,b8011a98 <strng+0x2f40>
b800da58:	10101010 	beq	zero,s0,b8011a9c <strng+0x2f44>
b800da5c:	10101010 	beq	zero,s0,b8011aa0 <strng+0x2f48>
b800da60:	04040404 	0x4040404
b800da64:	04040404 	0x4040404
b800da68:	10100404 	beq	zero,s0,b800ea7c <DATA_Word2+0x74>
b800da6c:	10101010 	beq	zero,s0,b8011ab0 <strng+0x2f58>
b800da70:	41414110 	0x41414110
b800da74:	01414141 	0x1414141
b800da78:	01010101 	0x1010101
b800da7c:	01010101 	0x1010101
b800da80:	01010101 	0x1010101
b800da84:	01010101 	0x1010101
b800da88:	10010101 	beq	zero,at,b800de90 <DATA_Word+0x38>
b800da8c:	10101010 	beq	zero,s0,b8011ad0 <strng+0x2f78>
b800da90:	42424210 	c0	0x424210
b800da94:	02424242 	0x2424242
b800da98:	02020202 	0x2020202
b800da9c:	02020202 	0x2020202
b800daa0:	02020202 	0x2020202
b800daa4:	02020202 	0x2020202
b800daa8:	10020202 	beq	zero,v0,b800e2b4 <text_buffer+0x374>
b800daac:	20101010 	addi	s0,zero,4112
	...

Disassembly of section .eh_frame:

b800db30 <__EH_FRAME_BEGIN__>:
b800db30:	00000010 	mfhi	zero
b800db34:	00000000 	nop
b800db38:	00527a01 	0x527a01
b800db3c:	011f7c01 	0x11f7c01
b800db40:	001d0d0b 	0x1d0d0b
b800db44:	00000010 	mfhi	zero
b800db48:	00000018 	mult	zero,zero
b800db4c:	b800bfb0 	swr	zero,-16464(zero)
b800db50:	000004cc 	syscall	0x13
b800db54:	00000000 	nop

b800db58 <__FRAME_END__>:
b800db58:	00000000 	nop

Disassembly of section .rodata.str1.4:

b800db5c <.rodata.str1.4>:
b800db5c:	00000043 	sra	zero,zero,0x1

Disassembly of section .sbss:

b800db60 <DMA_RX_DESC>:
b800db60:	00000000 	nop

b800db64 <tmp_read>:
b800db64:	00000000 	nop

b800db68 <Readed_value>:
	...

b800db6a <text_lengh>:
	...

b800db6c <rx_wr_index0>:
b800db6c:	00000000 	nop

b800db70 <DMA_RX_DATA>:
b800db70:	00000000 	nop

b800db74 <DMA_TX_DATA>:
b800db74:	00000000 	nop

b800db78 <rx_buffer_overflow0>:
b800db78:	00000000 	nop

b800db7c <DMA_TX_DESC>:
b800db7c:	00000000 	nop

b800db80 <speed>:
b800db80:	00000000 	nop

b800db84 <rx_rd_index0>:
b800db84:	00000000 	nop

b800db88 <flag_pachka_TXT>:
b800db88:	00000000 	nop

b800db8c <rx_counter0>:
b800db8c:	00000000 	nop

Disassembly of section .bss:

b800db90 <_bss_start>:
b800db90:	00000000 	nop

b800db94 <dtor_idx.3097>:
b800db94:	00000000 	nop

b800db98 <object.3107>:
	...

b800dbb0 <lsr>:
	...

b800dbb1 <lk>:
b800dbb1:	0000      	addiu	s0,sp,0
	...

b800dbb4 <led_tick>:
b800dbb4:	00000000 	nop

b800dbb8 <Master_flag>:
	...

b800dbb9 <Adress>:
	...

b800dbba <lenght>:
	...

b800dbbc <SCH_LENGHT_PACKET>:
b800dbbc:	00000000 	nop

b800dbc0 <index1>:
b800dbc0:	00000000 	nop

b800dbc4 <crc_ok>:
	...

b800dbc5 <packet_ok>:
	...

b800dbc6 <packet_flag>:
	...

b800dbc8 <indexZ>:
b800dbc8:	00000000 	nop

b800dbcc <index_word>:
b800dbcc:	00000000 	nop

b800dbd0 <index_data_word>:
b800dbd0:	00000000 	nop

b800dbd4 <index_data_word2>:
b800dbd4:	00000000 	nop

b800dbd8 <lenght_data>:
b800dbd8:	00000000 	nop

b800dbdc <data_flag>:
	...

b800dbdd <data_flag2>:
	...

b800dbde <FLAG_lenght>:
	...

b800dbe0 <sch_lenght_data>:
b800dbe0:	00000000 	nop

b800dbe4 <FLAG_DATA>:
	...

b800dbe5 <FLAG_CW>:
b800dbe5:	0000      	addiu	s0,sp,0
	...

b800dbe8 <time_uart>:
b800dbe8:	00000000 	nop

b800dbec <VAR_RESIVER>:
b800dbec:	00000000 	nop

b800dbf0 <sch_spaceware>:
b800dbf0:	00000000 	nop

b800dbf4 <PLL_CTR>:
b800dbf4:	00000000 	nop

b800dbf8 <SPEED>:
b800dbf8:	00000000 	nop

b800dbfc <SYS_timer0>:
b800dbfc:	00000000 	nop

b800dc00 <SYS_timer1>:
b800dc00:	00000000 	nop

b800dc04 <Dtimer0>:
b800dc04:	00000000 	nop

b800dc08 <SCH_SW>:
b800dc08:	00000000 	nop

b800dc0c <FLAG_TEST>:
b800dc0c:	00000000 	nop

b800dc10 <sch_event>:
b800dc10:	00000000 	nop

b800dc14 <FLAG_SW_START>:
b800dc14:	00000000 	nop

b800dc18 <Flag_Timeout>:
b800dc18:	00000000 	nop

b800dc1c <Flag_Disconnect>:
b800dc1c:	00000000 	nop

b800dc20 <errors>:
b800dc20:	00000000 	nop

b800dc24 <FLAG_STATUS_SPACEWIRE>:
b800dc24:	00000000 	nop

b800dc28 <InputArray0>:
	...

b800dd28 <InputArray1>:
	...

b800de28 <flag_DMA_LPORT>:
b800de28:	00000000 	nop

b800de2c <flag_DMA_LPORT_old>:
b800de2c:	00000000 	nop

b800de30 <FLAG_SW_INT_DES>:
b800de30:	00000000 	nop

b800de34 <FLAG_SW_INT_DAT>:
b800de34:	00000000 	nop

b800de38 <crc_input>:
b800de38:	00000000 	nop

b800de3c <crc_comp>:
b800de3c:	00000000 	nop

b800de40 <flag_error>:
	...

b800de48 <txDescr0>:
	...

b800de50 <txDescr1>:
	...

b800de58 <DATA_Word>:
	...

b800df20 <Word>:
	...

b800df40 <text_buffer>:
	...

b800e340 <DSP>:
	...

b800e9c8 <rx_buffer0>:
	...

b800ea08 <DATA_Word2>:
	...

b800ead0 <InOut>:
	...

b800eb14 <sr>:
	...

b800eb58 <strng>:
	...

Disassembly of section .xyram_array:

b8400000 <lport_InputArray>:
	...

Disassembly of section .pdr:

00000000 <.pdr>:
   0:	b8001304 	swr	zero,4868(zero)
	...
  20:	b80013b8 	swr	zero,5048(zero)
	...
  40:	b80013fc 	swr	zero,5116(zero)
	...
  60:	b8001474 	swr	zero,5236(zero)
	...
  80:	b8001500 	swr	zero,5376(zero)
  84:	40000000 	mfc0	zero,c0_index
  88:	fffffffc 	sdc3	$31,-4(ra)
	...
  94:	00000010 	mfhi	zero
  98:	0000001e 	0x1e
  9c:	0000001f 	0x1f
  a0:	b80025e4 	swr	zero,9700(zero)
  a4:	40000000 	mfc0	zero,c0_index
  a8:	fffffffc 	sdc3	$31,-4(ra)
	...
  b4:	00000008 	jr	zero
  b8:	0000001e 	0x1e
  bc:	0000001f 	0x1f
  c0:	b800260c 	swr	zero,9740(zero)
  c4:	40000000 	mfc0	zero,c0_index
  c8:	fffffffc 	sdc3	$31,-4(ra)
	...
  d4:	00000008 	jr	zero
  d8:	0000001e 	0x1e
  dc:	0000001f 	0x1f
  e0:	b8002664 	swr	zero,9828(zero)
  e4:	c0000000 	ll	zero,0(zero)
  e8:	fffffffc 	sdc3	$31,-4(ra)
	...
  f4:	00000018 	mult	zero,zero
  f8:	0000001e 	0x1e
  fc:	0000001f 	0x1f
 100:	b80026b8 	swr	zero,9912(zero)
 104:	40000000 	mfc0	zero,c0_index
 108:	fffffffc 	sdc3	$31,-4(ra)
	...
 114:	00000008 	jr	zero
 118:	0000001e 	0x1e
 11c:	0000001f 	0x1f
 120:	b800271c 	swr	zero,10012(zero)
 124:	40000000 	mfc0	zero,c0_index
 128:	fffffffc 	sdc3	$31,-4(ra)
	...
 134:	00000008 	jr	zero
 138:	0000001e 	0x1e
 13c:	0000001f 	0x1f
 140:	b800277c 	swr	zero,10108(zero)
 144:	40000000 	mfc0	zero,c0_index
 148:	fffffffc 	sdc3	$31,-4(ra)
	...
 154:	00000010 	mfhi	zero
 158:	0000001e 	0x1e
 15c:	0000001f 	0x1f
 160:	b8002834 	swr	zero,10292(zero)
 164:	c0000000 	ll	zero,0(zero)
 168:	fffffffc 	sdc3	$31,-4(ra)
	...
 174:	00000020 	add	zero,zero,zero
 178:	0000001e 	0x1e
 17c:	0000001f 	0x1f
 180:	b80028e8 	swr	zero,10472(zero)
 184:	40000000 	mfc0	zero,c0_index
 188:	fffffffc 	sdc3	$31,-4(ra)
	...
 194:	00000010 	mfhi	zero
 198:	0000001e 	0x1e
 19c:	0000001f 	0x1f
 1a0:	b8002d8c 	swr	zero,11660(zero)
 1a4:	40000000 	mfc0	zero,c0_index
 1a8:	fffffffc 	sdc3	$31,-4(ra)
	...
 1b4:	00000008 	jr	zero
 1b8:	0000001e 	0x1e
 1bc:	0000001f 	0x1f
 1c0:	b8002e64 	swr	zero,11876(zero)
 1c4:	40000000 	mfc0	zero,c0_index
 1c8:	fffffffc 	sdc3	$31,-4(ra)
	...
 1d4:	00000008 	jr	zero
 1d8:	0000001e 	0x1e
 1dc:	0000001f 	0x1f
 1e0:	b8002ee0 	swr	zero,12000(zero)
 1e4:	40000000 	mfc0	zero,c0_index
 1e8:	fffffffc 	sdc3	$31,-4(ra)
	...
 1f4:	00000008 	jr	zero
 1f8:	0000001e 	0x1e
 1fc:	0000001f 	0x1f
 200:	b8002f58 	swr	zero,12120(zero)
 204:	40000000 	mfc0	zero,c0_index
 208:	fffffffc 	sdc3	$31,-4(ra)
	...
 214:	00000008 	jr	zero
 218:	0000001e 	0x1e
 21c:	0000001f 	0x1f
 220:	b8003004 	swr	zero,12292(zero)
 224:	40000000 	mfc0	zero,c0_index
 228:	fffffffc 	sdc3	$31,-4(ra)
	...
 234:	00000010 	mfhi	zero
 238:	0000001e 	0x1e
 23c:	0000001f 	0x1f
 240:	b800314c 	swr	zero,12620(zero)
 244:	c0000000 	ll	zero,0(zero)
 248:	fffffffc 	sdc3	$31,-4(ra)
	...
 254:	00000020 	add	zero,zero,zero
 258:	0000001e 	0x1e
 25c:	0000001f 	0x1f
 260:	b80032ec 	swr	zero,13036(zero)
 264:	c0000000 	ll	zero,0(zero)
 268:	fffffffc 	sdc3	$31,-4(ra)
	...
 274:	00000020 	add	zero,zero,zero
 278:	0000001e 	0x1e
 27c:	0000001f 	0x1f
 280:	b80033c8 	swr	zero,13256(zero)
 284:	40000000 	mfc0	zero,c0_index
 288:	fffffffc 	sdc3	$31,-4(ra)
	...
 294:	00000008 	jr	zero
 298:	0000001e 	0x1e
 29c:	0000001f 	0x1f
 2a0:	b800341c 	swr	zero,13340(zero)
 2a4:	c0000000 	ll	zero,0(zero)
 2a8:	fffffffc 	sdc3	$31,-4(ra)
	...
 2b4:	00000020 	add	zero,zero,zero
 2b8:	0000001e 	0x1e
 2bc:	0000001f 	0x1f
 2c0:	b8003490 	swr	zero,13456(zero)
 2c4:	c0000000 	ll	zero,0(zero)
 2c8:	fffffffc 	sdc3	$31,-4(ra)
	...
 2d4:	00000020 	add	zero,zero,zero
 2d8:	0000001e 	0x1e
 2dc:	0000001f 	0x1f
 2e0:	b800361c 	swr	zero,13852(zero)
 2e4:	40000000 	mfc0	zero,c0_index
 2e8:	fffffffc 	sdc3	$31,-4(ra)
	...
 2f4:	00000010 	mfhi	zero
 2f8:	0000001e 	0x1e
 2fc:	0000001f 	0x1f
 300:	b8003668 	swr	zero,13928(zero)
 304:	40000000 	mfc0	zero,c0_index
 308:	fffffffc 	sdc3	$31,-4(ra)
	...
 314:	00000008 	jr	zero
 318:	0000001e 	0x1e
 31c:	0000001f 	0x1f
 320:	b80036a8 	swr	zero,13992(zero)
 324:	c0000000 	ll	zero,0(zero)
 328:	fffffffc 	sdc3	$31,-4(ra)
	...
 334:	00000028 	0x28
 338:	0000001e 	0x1e
 33c:	0000001f 	0x1f
 340:	b80037d8 	swr	zero,14296(zero)
 344:	c0000000 	ll	zero,0(zero)
 348:	fffffffc 	sdc3	$31,-4(ra)
	...
 354:	00000020 	add	zero,zero,zero
 358:	0000001e 	0x1e
 35c:	0000001f 	0x1f
 360:	b8003968 	swr	zero,14696(zero)
 364:	40000000 	mfc0	zero,c0_index
 368:	fffffffc 	sdc3	$31,-4(ra)
	...
 374:	00000010 	mfhi	zero
 378:	0000001e 	0x1e
 37c:	0000001f 	0x1f
 380:	b8003a4c 	swr	zero,14924(zero)
 384:	40000000 	mfc0	zero,c0_index
 388:	fffffffc 	sdc3	$31,-4(ra)
	...
 394:	00000010 	mfhi	zero
 398:	0000001e 	0x1e
 39c:	0000001f 	0x1f
 3a0:	b8003b0c 	swr	zero,15116(zero)
 3a4:	40000000 	mfc0	zero,c0_index
 3a8:	fffffffc 	sdc3	$31,-4(ra)
	...
 3b4:	00000010 	mfhi	zero
 3b8:	0000001e 	0x1e
 3bc:	0000001f 	0x1f
 3c0:	b8003bcc 	swr	zero,15308(zero)
 3c4:	40000000 	mfc0	zero,c0_index
 3c8:	fffffffc 	sdc3	$31,-4(ra)
	...
 3d4:	00000008 	jr	zero
 3d8:	0000001e 	0x1e
 3dc:	0000001f 	0x1f
 3e0:	b8003c38 	swr	zero,15416(zero)
 3e4:	40000000 	mfc0	zero,c0_index
 3e8:	fffffffc 	sdc3	$31,-4(ra)
	...
 3f4:	00000010 	mfhi	zero
 3f8:	0000001e 	0x1e
 3fc:	0000001f 	0x1f
 400:	b8003ca0 	swr	zero,15520(zero)
 404:	c0000000 	ll	zero,0(zero)
 408:	fffffffc 	sdc3	$31,-4(ra)
	...
 414:	00000018 	mult	zero,zero
 418:	0000001e 	0x1e
 41c:	0000001f 	0x1f
 420:	b8003d30 	swr	zero,15664(zero)
 424:	c0000000 	ll	zero,0(zero)
 428:	fffffffc 	sdc3	$31,-4(ra)
	...
 434:	00000020 	add	zero,zero,zero
 438:	0000001e 	0x1e
 43c:	0000001f 	0x1f
 440:	b8003ddc 	swr	zero,15836(zero)
 444:	c0000000 	ll	zero,0(zero)
 448:	fffffffc 	sdc3	$31,-4(ra)
	...
 454:	00000018 	mult	zero,zero
 458:	0000001e 	0x1e
 45c:	0000001f 	0x1f
 460:	b8003e64 	swr	zero,15972(zero)
 464:	c0000000 	ll	zero,0(zero)
 468:	fffffffc 	sdc3	$31,-4(ra)
	...
 474:	00000018 	mult	zero,zero
 478:	0000001e 	0x1e
 47c:	0000001f 	0x1f
 480:	b8003ee4 	swr	zero,16100(zero)
 484:	c0000000 	ll	zero,0(zero)
 488:	fffffffc 	sdc3	$31,-4(ra)
	...
 494:	00000018 	mult	zero,zero
 498:	0000001e 	0x1e
 49c:	0000001f 	0x1f
 4a0:	b8003f54 	swr	zero,16212(zero)
 4a4:	c0000000 	ll	zero,0(zero)
 4a8:	fffffffc 	sdc3	$31,-4(ra)
	...
 4b4:	00000018 	mult	zero,zero
 4b8:	0000001e 	0x1e
 4bc:	0000001f 	0x1f
 4c0:	b8003fcc 	swr	zero,16332(zero)
 4c4:	40000000 	mfc0	zero,c0_index
 4c8:	fffffffc 	sdc3	$31,-4(ra)
	...
 4d4:	00000008 	jr	zero
 4d8:	0000001e 	0x1e
 4dc:	0000001f 	0x1f
 4e0:	b8004014 	swr	zero,16404(zero)
 4e4:	40000000 	mfc0	zero,c0_index
 4e8:	fffffffc 	sdc3	$31,-4(ra)
	...
 4f4:	00000010 	mfhi	zero
 4f8:	0000001e 	0x1e
 4fc:	0000001f 	0x1f
 500:	b80040d8 	swr	zero,16600(zero)
 504:	c0010000 	ll	at,0(zero)
 508:	fffffffc 	sdc3	$31,-4(ra)
	...
 514:	00000028 	0x28
 518:	0000001e 	0x1e
 51c:	0000001f 	0x1f
 520:	b8004258 	swr	zero,16984(zero)
 524:	40000000 	mfc0	zero,c0_index
 528:	fffffffc 	sdc3	$31,-4(ra)
	...
 534:	00000010 	mfhi	zero
 538:	0000001e 	0x1e
 53c:	0000001f 	0x1f
 540:	b80042ec 	swr	zero,17132(zero)
 544:	40000000 	mfc0	zero,c0_index
 548:	fffffffc 	sdc3	$31,-4(ra)
	...
 554:	00000008 	jr	zero
 558:	0000001e 	0x1e
 55c:	0000001f 	0x1f
 560:	b8004588 	swr	zero,17800(zero)
 564:	40000000 	mfc0	zero,c0_index
 568:	fffffffc 	sdc3	$31,-4(ra)
	...
 574:	00000008 	jr	zero
 578:	0000001e 	0x1e
 57c:	0000001f 	0x1f
 580:	b8004824 	swr	zero,18468(zero)
 584:	40000000 	mfc0	zero,c0_index
 588:	fffffffc 	sdc3	$31,-4(ra)
	...
 594:	00000008 	jr	zero
 598:	0000001e 	0x1e
 59c:	0000001f 	0x1f
 5a0:	b8004920 	swr	zero,18720(zero)
 5a4:	40000000 	mfc0	zero,c0_index
 5a8:	fffffffc 	sdc3	$31,-4(ra)
	...
 5b4:	00000008 	jr	zero
 5b8:	0000001e 	0x1e
 5bc:	0000001f 	0x1f
 5c0:	b8004954 	swr	zero,18772(zero)
 5c4:	40000000 	mfc0	zero,c0_index
 5c8:	fffffffc 	sdc3	$31,-4(ra)
	...
 5d4:	00000008 	jr	zero
 5d8:	0000001e 	0x1e
 5dc:	0000001f 	0x1f
 5e0:	b8004978 	swr	zero,18808(zero)
 5e4:	40000000 	mfc0	zero,c0_index
 5e8:	fffffffc 	sdc3	$31,-4(ra)
	...
 5f4:	00000008 	jr	zero
 5f8:	0000001e 	0x1e
 5fc:	0000001f 	0x1f
 600:	b80049c0 	swr	zero,18880(zero)
 604:	40000000 	mfc0	zero,c0_index
 608:	fffffffc 	sdc3	$31,-4(ra)
	...
 614:	00000008 	jr	zero
 618:	0000001e 	0x1e
 61c:	0000001f 	0x1f
 620:	b8004a08 	swr	zero,18952(zero)
 624:	40000000 	mfc0	zero,c0_index
 628:	fffffffc 	sdc3	$31,-4(ra)
	...
 634:	00000010 	mfhi	zero
 638:	0000001e 	0x1e
 63c:	0000001f 	0x1f
 640:	b8004aa4 	swr	zero,19108(zero)
 644:	40000000 	mfc0	zero,c0_index
 648:	fffffffc 	sdc3	$31,-4(ra)
	...
 654:	00000008 	jr	zero
 658:	0000001e 	0x1e
 65c:	0000001f 	0x1f
 660:	b8004b8c 	swr	zero,19340(zero)
 664:	40000000 	mfc0	zero,c0_index
 668:	fffffffc 	sdc3	$31,-4(ra)
	...
 674:	00000008 	jr	zero
 678:	0000001e 	0x1e
 67c:	0000001f 	0x1f
 680:	b8004bdc 	swr	zero,19420(zero)
 684:	40000000 	mfc0	zero,c0_index
 688:	fffffffc 	sdc3	$31,-4(ra)
	...
 694:	00000008 	jr	zero
 698:	0000001e 	0x1e
 69c:	0000001f 	0x1f
 6a0:	b8004c2c 	swr	zero,19500(zero)
 6a4:	40000000 	mfc0	zero,c0_index
 6a8:	fffffffc 	sdc3	$31,-4(ra)
	...
 6b4:	00000010 	mfhi	zero
 6b8:	0000001e 	0x1e
 6bc:	0000001f 	0x1f
 6c0:	b8004d58 	swr	zero,19800(zero)
 6c4:	40000000 	mfc0	zero,c0_index
 6c8:	fffffffc 	sdc3	$31,-4(ra)
	...
 6d4:	00000008 	jr	zero
 6d8:	0000001e 	0x1e
 6dc:	0000001f 	0x1f
 6e0:	b8004dc8 	swr	zero,19912(zero)
 6e4:	40000000 	mfc0	zero,c0_index
 6e8:	fffffffc 	sdc3	$31,-4(ra)
	...
 6f4:	00000010 	mfhi	zero
 6f8:	0000001e 	0x1e
 6fc:	0000001f 	0x1f
 700:	b8004e3c 	swr	zero,20028(zero)
 704:	40000000 	mfc0	zero,c0_index
 708:	fffffffc 	sdc3	$31,-4(ra)
	...
 714:	00000008 	jr	zero
 718:	0000001e 	0x1e
 71c:	0000001f 	0x1f
 720:	b8004ef0 	swr	zero,20208(zero)
 724:	40000000 	mfc0	zero,c0_index
 728:	fffffffc 	sdc3	$31,-4(ra)
	...
 734:	00000008 	jr	zero
 738:	0000001e 	0x1e
 73c:	0000001f 	0x1f
 740:	b8004fa4 	swr	zero,20388(zero)
 744:	40000000 	mfc0	zero,c0_index
 748:	fffffffc 	sdc3	$31,-4(ra)
	...
 754:	00000008 	jr	zero
 758:	0000001e 	0x1e
 75c:	0000001f 	0x1f
 760:	b8004fd0 	swr	zero,20432(zero)
 764:	c0000000 	ll	zero,0(zero)
 768:	fffffffc 	sdc3	$31,-4(ra)
	...
 774:	00000018 	mult	zero,zero
 778:	0000001e 	0x1e
 77c:	0000001f 	0x1f
 780:	b80050c8 	swr	zero,20680(zero)
 784:	c0000000 	ll	zero,0(zero)
 788:	fffffffc 	sdc3	$31,-4(ra)
	...
 794:	00000018 	mult	zero,zero
 798:	0000001e 	0x1e
 79c:	0000001f 	0x1f
 7a0:	b80051c0 	swr	zero,20928(zero)
 7a4:	c0ff0000 	ll	ra,0(a3)
 7a8:	fffffffc 	sdc3	$31,-4(ra)
	...
 7b4:	00000048 	0x48
 7b8:	0000001e 	0x1e
 7bc:	0000001f 	0x1f
 7c0:	b8005570 	swr	zero,21872(zero)
 7c4:	40000000 	mfc0	zero,c0_index
 7c8:	fffffffc 	sdc3	$31,-4(ra)
	...
 7d4:	00000008 	jr	zero
 7d8:	0000001e 	0x1e
 7dc:	0000001f 	0x1f
 7e0:	b8005594 	swr	zero,21908(zero)
 7e4:	c0000000 	ll	zero,0(zero)
 7e8:	fffffffc 	sdc3	$31,-4(ra)
	...
 7f4:	00000030 	tge	zero,zero
 7f8:	0000001e 	0x1e
 7fc:	0000001f 	0x1f
 800:	b800671c 	swr	zero,26396(zero)
 804:	40000000 	mfc0	zero,c0_index
 808:	fffffffc 	sdc3	$31,-4(ra)
	...
 814:	00000008 	jr	zero
 818:	0000001e 	0x1e
 81c:	0000001f 	0x1f
 820:	b8006790 	swr	zero,26512(zero)
 824:	40000000 	mfc0	zero,c0_index
 828:	fffffffc 	sdc3	$31,-4(ra)
	...
 834:	00000008 	jr	zero
 838:	0000001e 	0x1e
 83c:	0000001f 	0x1f
 840:	b8006874 	swr	zero,26740(zero)
 844:	40000000 	mfc0	zero,c0_index
 848:	fffffffc 	sdc3	$31,-4(ra)
	...
 854:	00000010 	mfhi	zero
 858:	0000001e 	0x1e
 85c:	0000001f 	0x1f
 860:	b8006908 	swr	zero,26888(zero)
 864:	c0000000 	ll	zero,0(zero)
 868:	fffffffc 	sdc3	$31,-4(ra)
	...
 874:	00000020 	add	zero,zero,zero
 878:	0000001e 	0x1e
 87c:	0000001f 	0x1f
 880:	b8006998 	swr	zero,27032(zero)
 884:	c0000000 	ll	zero,0(zero)
 888:	fffffffc 	sdc3	$31,-4(ra)
	...
 894:	00000020 	add	zero,zero,zero
 898:	0000001e 	0x1e
 89c:	0000001f 	0x1f
 8a0:	b8006a28 	swr	zero,27176(zero)
 8a4:	40000000 	mfc0	zero,c0_index
 8a8:	fffffffc 	sdc3	$31,-4(ra)
	...
 8b4:	00000008 	jr	zero
 8b8:	0000001e 	0x1e
 8bc:	0000001f 	0x1f
 8c0:	b8006b4c 	swr	zero,27468(zero)
 8c4:	c0000000 	ll	zero,0(zero)
 8c8:	fffffffc 	sdc3	$31,-4(ra)
	...
 8d4:	00000020 	add	zero,zero,zero
 8d8:	0000001e 	0x1e
 8dc:	0000001f 	0x1f
 8e0:	b800773c 	swr	zero,30524(zero)
 8e4:	c0000000 	ll	zero,0(zero)
 8e8:	fffffffc 	sdc3	$31,-4(ra)
	...
 8f4:	00000020 	add	zero,zero,zero
 8f8:	0000001e 	0x1e
 8fc:	0000001f 	0x1f
 900:	b8007cb4 	swr	zero,31924(zero)
 904:	c0000000 	ll	zero,0(zero)
 908:	fffffffc 	sdc3	$31,-4(ra)
	...
 914:	00000038 	0x38
 918:	0000001e 	0x1e
 91c:	0000001f 	0x1f
 920:	b8007db4 	swr	zero,32180(zero)
 924:	40000000 	mfc0	zero,c0_index
 928:	fffffffc 	sdc3	$31,-4(ra)
	...
 934:	00000010 	mfhi	zero
 938:	0000001e 	0x1e
 93c:	0000001f 	0x1f
 940:	b8007e0c 	swr	zero,32268(zero)
 944:	40000000 	mfc0	zero,c0_index
 948:	fffffffc 	sdc3	$31,-4(ra)
	...
 954:	00000090 	0x90
 958:	0000001e 	0x1e
 95c:	0000001f 	0x1f
 960:	b8007f60 	swr	zero,32608(zero)
 964:	40000000 	mfc0	zero,c0_index
 968:	fffffffc 	sdc3	$31,-4(ra)
	...
 974:	00000090 	0x90
 978:	0000001e 	0x1e
 97c:	0000001f 	0x1f
 980:	b80080b8 	swr	zero,-32584(zero)
 984:	c0000000 	ll	zero,0(zero)
 988:	fffffffc 	sdc3	$31,-4(ra)
	...
 994:	00000018 	mult	zero,zero
 998:	0000001e 	0x1e
 99c:	0000001f 	0x1f
 9a0:	b8008208 	swr	zero,-32248(zero)
 9a4:	c0000000 	ll	zero,0(zero)
 9a8:	fffffffc 	sdc3	$31,-4(ra)
	...
 9b4:	00000050 	0x50
 9b8:	0000001e 	0x1e
 9bc:	0000001f 	0x1f
 9c0:	b80087e4 	swr	zero,-30748(zero)
 9c4:	40000000 	mfc0	zero,c0_index
 9c8:	fffffffc 	sdc3	$31,-4(ra)
	...
 9d4:	00000008 	jr	zero
 9d8:	0000001e 	0x1e
 9dc:	0000001f 	0x1f
 9e0:	b80088b0 	swr	zero,-30544(zero)
 9e4:	40000000 	mfc0	zero,c0_index
 9e8:	fffffffc 	sdc3	$31,-4(ra)
	...
 9f4:	00000008 	jr	zero
 9f8:	0000001e 	0x1e
 9fc:	0000001f 	0x1f
 a00:	b8008900 	swr	zero,-30464(zero)
 a04:	40000000 	mfc0	zero,c0_index
 a08:	fffffffc 	sdc3	$31,-4(ra)
	...
 a14:	00000008 	jr	zero
 a18:	0000001e 	0x1e
 a1c:	0000001f 	0x1f
 a20:	b8008974 	swr	zero,-30348(zero)
 a24:	40000000 	mfc0	zero,c0_index
 a28:	fffffffc 	sdc3	$31,-4(ra)
	...
 a34:	00000010 	mfhi	zero
 a38:	0000001e 	0x1e
 a3c:	0000001f 	0x1f
 a40:	b8008a34 	swr	zero,-30156(zero)
 a44:	c0010000 	ll	at,0(zero)
 a48:	fffffffc 	sdc3	$31,-4(ra)
	...
 a54:	00000028 	0x28
 a58:	0000001e 	0x1e
 a5c:	0000001f 	0x1f
 a60:	b8008c50 	swr	zero,-29616(zero)
 a64:	c0000000 	ll	zero,0(zero)
 a68:	fffffffc 	sdc3	$31,-4(ra)
	...
 a74:	00000020 	add	zero,zero,zero
 a78:	0000001e 	0x1e
 a7c:	0000001f 	0x1f
 a80:	b8008d18 	swr	zero,-29416(zero)
 a84:	c0010000 	ll	at,0(zero)
 a88:	fffffffc 	sdc3	$31,-4(ra)
	...
 a94:	00000020 	add	zero,zero,zero
 a98:	0000001e 	0x1e
 a9c:	0000001f 	0x1f
 aa0:	b8008e24 	swr	zero,-29148(zero)
 aa4:	c0010000 	ll	at,0(zero)
 aa8:	fffffffc 	sdc3	$31,-4(ra)
	...
 ab4:	00000028 	0x28
 ab8:	0000001e 	0x1e
 abc:	0000001f 	0x1f
 ac0:	b8008f50 	swr	zero,-28848(zero)
 ac4:	40000000 	mfc0	zero,c0_index
 ac8:	fffffffc 	sdc3	$31,-4(ra)
	...
 ad4:	00000008 	jr	zero
 ad8:	0000001e 	0x1e
 adc:	0000001f 	0x1f
 ae0:	b8008fe0 	swr	zero,-28704(zero)
 ae4:	c0000000 	ll	zero,0(zero)
 ae8:	fffffffc 	sdc3	$31,-4(ra)
	...
 af4:	00000018 	mult	zero,zero
 af8:	0000001e 	0x1e
 afc:	0000001f 	0x1f
 b00:	b80090b4 	swr	zero,-28492(zero)
 b04:	40000000 	mfc0	zero,c0_index
 b08:	fffffffc 	sdc3	$31,-4(ra)
	...
 b14:	00000008 	jr	zero
 b18:	0000001e 	0x1e
 b1c:	0000001f 	0x1f
 b20:	b800912c 	swr	zero,-28372(zero)
 b24:	40000000 	mfc0	zero,c0_index
 b28:	fffffffc 	sdc3	$31,-4(ra)
	...
 b34:	00000008 	jr	zero
 b38:	0000001e 	0x1e
 b3c:	0000001f 	0x1f
 b40:	b80091a8 	swr	zero,-28248(zero)
 b44:	40000000 	mfc0	zero,c0_index
 b48:	fffffffc 	sdc3	$31,-4(ra)
	...
 b54:	00000010 	mfhi	zero
 b58:	0000001e 	0x1e
 b5c:	0000001f 	0x1f
 b60:	b8009228 	swr	zero,-28120(zero)
 b64:	40000000 	mfc0	zero,c0_index
 b68:	fffffffc 	sdc3	$31,-4(ra)
	...
 b74:	00000010 	mfhi	zero
 b78:	0000001e 	0x1e
 b7c:	0000001f 	0x1f
 b80:	b80093d0 	swr	zero,-27696(zero)
 b84:	40000000 	mfc0	zero,c0_index
 b88:	fffffffc 	sdc3	$31,-4(ra)
	...
 b94:	00000010 	mfhi	zero
 b98:	0000001e 	0x1e
 b9c:	0000001f 	0x1f
 ba0:	b800950c 	swr	zero,-27380(zero)
 ba4:	40000000 	mfc0	zero,c0_index
 ba8:	fffffffc 	sdc3	$31,-4(ra)
	...
 bb4:	00000008 	jr	zero
 bb8:	0000001e 	0x1e
 bbc:	0000001f 	0x1f
 bc0:	b800962c 	swr	zero,-27092(zero)
 bc4:	c0000000 	ll	zero,0(zero)
 bc8:	fffffffc 	sdc3	$31,-4(ra)
	...
 bd4:	00000020 	add	zero,zero,zero
 bd8:	0000001e 	0x1e
 bdc:	0000001f 	0x1f
 be0:	b8009f20 	swr	zero,-24800(zero)
 be4:	c0000000 	ll	zero,0(zero)
 be8:	fffffffc 	sdc3	$31,-4(ra)
	...
 bf4:	00000020 	add	zero,zero,zero
 bf8:	0000001e 	0x1e
 bfc:	0000001f 	0x1f
 c00:	b800a6cc 	swr	zero,-22836(zero)
 c04:	40000000 	mfc0	zero,c0_index
 c08:	fffffffc 	sdc3	$31,-4(ra)
	...
 c14:	00000010 	mfhi	zero
 c18:	0000001e 	0x1e
 c1c:	0000001f 	0x1f
 c20:	b800a71c 	swr	zero,-22756(zero)
 c24:	40000000 	mfc0	zero,c0_index
 c28:	fffffffc 	sdc3	$31,-4(ra)
	...
 c34:	00000010 	mfhi	zero
 c38:	0000001e 	0x1e
 c3c:	0000001f 	0x1f
 c40:	b800a768 	swr	zero,-22680(zero)
 c44:	40000000 	mfc0	zero,c0_index
 c48:	fffffffc 	sdc3	$31,-4(ra)
	...
 c54:	00000008 	jr	zero
 c58:	0000001e 	0x1e
 c5c:	0000001f 	0x1f
 c60:	b800a7e4 	swr	zero,-22556(zero)
 c64:	40000000 	mfc0	zero,c0_index
 c68:	fffffffc 	sdc3	$31,-4(ra)
	...
 c74:	00000008 	jr	zero
 c78:	0000001e 	0x1e
 c7c:	0000001f 	0x1f
 c80:	b800b760 	swr	zero,-18592(zero)
 c84:	c0000000 	ll	zero,0(zero)
 c88:	fffffffc 	sdc3	$31,-4(ra)
	...
 c94:	00000020 	add	zero,zero,zero
 c98:	0000001e 	0x1e
 c9c:	0000001f 	0x1f
 ca0:	b800bbd0 	swr	zero,-17456(zero)
 ca4:	40000000 	mfc0	zero,c0_index
 ca8:	fffffffc 	sdc3	$31,-4(ra)
	...
 cb4:	00000008 	jr	zero
 cb8:	0000001e 	0x1e
 cbc:	0000001f 	0x1f
 cc0:	b800bc0c 	swr	zero,-17396(zero)
 cc4:	40000000 	mfc0	zero,c0_index
 cc8:	fffffffc 	sdc3	$31,-4(ra)
	...
 cd4:	00000008 	jr	zero
 cd8:	0000001e 	0x1e
 cdc:	0000001f 	0x1f
 ce0:	b800bc48 	swr	zero,-17336(zero)
 ce4:	40000000 	mfc0	zero,c0_index
 ce8:	fffffffc 	sdc3	$31,-4(ra)
	...
 cf4:	00000008 	jr	zero
 cf8:	0000001e 	0x1e
 cfc:	0000001f 	0x1f
 d00:	b800bc84 	swr	zero,-17276(zero)
 d04:	40000000 	mfc0	zero,c0_index
 d08:	fffffffc 	sdc3	$31,-4(ra)
	...
 d14:	00000008 	jr	zero
 d18:	0000001e 	0x1e
 d1c:	0000001f 	0x1f
 d20:	b800bcc0 	swr	zero,-17216(zero)
 d24:	c0010000 	ll	at,0(zero)
 d28:	fffffffc 	sdc3	$31,-4(ra)
	...
 d34:	00000028 	0x28
 d38:	0000001e 	0x1e
 d3c:	0000001f 	0x1f
 d40:	b800be00 	swr	zero,-16896(zero)
 d44:	40000000 	mfc0	zero,c0_index
 d48:	fffffffc 	sdc3	$31,-4(ra)
	...
 d54:	00000008 	jr	zero
 d58:	0000001e 	0x1e
 d5c:	0000001f 	0x1f
 d60:	b800be50 	swr	zero,-16816(zero)
 d64:	c0000000 	ll	zero,0(zero)
 d68:	fffffffc 	sdc3	$31,-4(ra)
	...
 d74:	00000018 	mult	zero,zero
 d78:	0000001e 	0x1e
 d7c:	0000001f 	0x1f
 d80:	b800bea4 	swr	zero,-16732(zero)
 d84:	40000000 	mfc0	zero,c0_index
 d88:	fffffffc 	sdc3	$31,-4(ra)
	...
 d94:	00000008 	jr	zero
 d98:	0000001e 	0x1e
 d9c:	0000001f 	0x1f
 da0:	b800beec 	swr	zero,-16660(zero)
 da4:	c0000000 	ll	zero,0(zero)
 da8:	fffffffc 	sdc3	$31,-4(ra)
	...
 db4:	00000020 	add	zero,zero,zero
 db8:	0000001e 	0x1e
 dbc:	0000001f 	0x1f
 dc0:	b800bf68 	swr	zero,-16536(zero)
 dc4:	40000000 	mfc0	zero,c0_index
 dc8:	fffffffc 	sdc3	$31,-4(ra)
	...
 dd4:	00000008 	jr	zero
 dd8:	0000001e 	0x1e
 ddc:	0000001f 	0x1f
 de0:	b800bfb0 	swr	zero,-16464(zero)
	...
 df8:	0000001d 	0x1d
 dfc:	0000001f 	0x1f
 e00:	b800c4e4 	swr	zero,-15132(zero)
	...
 e18:	0000001d 	0x1d
 e1c:	0000001f 	0x1f
 e20:	b800c504 	swr	zero,-15100(zero)
	...
 e38:	0000001d 	0x1d
 e3c:	0000001f 	0x1f
 e40:	b800c51c 	swr	zero,-15076(zero)
	...
 e58:	0000001d 	0x1d
 e5c:	0000001f 	0x1f
 e60:	b800c534 	swr	zero,-15052(zero)
 e64:	80010000 	lb	at,0(zero)
 e68:	fffffffc 	sdc3	$31,-4(ra)
	...
 e74:	00000018 	mult	zero,zero
 e78:	0000001d 	0x1d
 e7c:	0000001f 	0x1f
 e80:	b800c598 	swr	zero,-14952(zero)
	...
 e98:	0000001d 	0x1d
 e9c:	0000001f 	0x1f
 ea0:	b800c638 	swr	zero,-14792(zero)
	...
 ec0:	b800c660 	swr	zero,-14752(zero)
 ec4:	00010000 	sll	zero,at,0x0
 ec8:	fffffffc 	sdc3	$31,-4(ra)
	...
 ed4:	00000008 	jr	zero
 ed8:	0000001d 	0x1d
 edc:	0000001f 	0x1f
 ee0:	b800c894 	swr	zero,-14188(zero)
	...
 ef8:	0000001d 	0x1d
 efc:	0000001f 	0x1f
 f00:	b800c8c4 	swr	zero,-14140(zero)
 f04:	801f0000 	lb	ra,0(zero)
 f08:	fffffffc 	sdc3	$31,-4(ra)
	...
 f14:	00000028 	0x28
 f18:	0000001d 	0x1d
 f1c:	0000001f 	0x1f
 f20:	b800ca28 	swr	zero,-13784(zero)
 f24:	c0ff0000 	ll	ra,0(a3)
 f28:	fffffffc 	sdc3	$31,-4(ra)
	...
 f34:	00000040 	ssnop
 f38:	0000001d 	0x1d
 f3c:	0000001f 	0x1f

Disassembly of section .comment:

00000000 <.comment>:
   0:	3a434347 	xori	v1,s2,0x4347
   4:	4e472820 	c3	0x472820
   8:	34202955 	ori	zero,at,0x2955
   c:	312e382e 	andi	t6,t1,0x382e
	...

Disassembly of section .gnu.attributes:

00000000 <.gnu.attributes>:
   0:	00000f41 	0xf41
   4:	756e6700 	jalx	5b99c00 <Interrupt-0xb2466580>
   8:	00070100 	sll	zero,a3,0x4
   c:	01040000 	0x1040000

Disassembly of section .debug_info:

00000000 <.debug_info>:
       0:	00002475 	0x2475
       4:	00000002 	srl	zero,zero,0x0
       8:	01040000 	0x1040000
       c:	0000043f 	0x43f
      10:	000c1f01 	0xc1f01
      14:	00054600 	sll	t0,a1,0x18
      18:	00150000 	sll	zero,s5,0x0
      1c:	0087e4b8 	0x87e4b8
      20:	000000b8 	0xb8
      24:	07040200 	0x7040200
      28:	00001078 	0x1078
      2c:	69050403 	0x69050403
      30:	0400746e 	bltz	zero,1d1ec <Interrupt-0xb7fe2f94>
      34:	6b190204 	0x6b190204
      38:	05000002 	bltz	t0,44 <Interrupt-0xb800013c>
      3c:	00001599 	0x1599
      40:	158a0500 	bne	t4,t2,1444 <Interrupt-0xb7ffed3c>
      44:	05010000 	bgez	t0,48 <Interrupt-0xb8000138>
      48:	0000157b 	0x157b
      4c:	156c0502 	bne	t3,t4,1458 <Interrupt-0xb7ffed28>
      50:	05030000 	bgezl	t0,54 <Interrupt-0xb800012c>
      54:	0000155d 	0x155d
      58:	154e0504 	bne	t2,t6,146c <Interrupt-0xb7ffed14>
      5c:	05050000 	0x5050000
      60:	0000153f 	0x153f
      64:	15300506 	bne	t1,s0,1480 <Interrupt-0xb7ffed00>
      68:	05070000 	0x5070000
      6c:	00000cb5 	0xcb5
      70:	0ca80508 	jal	2a01420 <Interrupt-0xb55fed60>
      74:	05090000 	tgeiu	t0,0
      78:	00001486 	0x1486
      7c:	11ef050a 	beq	t7,t7,14a8 <Interrupt-0xb7ffecd8>
      80:	050b0000 	tltiu	t0,0
      84:	000015c0 	sll	v0,zero,0x17
      88:	0c53050c 	jal	14c1430 <Interrupt-0xb6b3ed50>
      8c:	050d0000 	0x50d0000
      90:	00000fab 	0xfab
      94:	08c2050e 	j	3081438 <Interrupt-0xb4f7ed48>
      98:	050f0000 	0x50f0000
      9c:	00000704 	0x704
      a0:	0d490510 	jal	5241440 <Interrupt-0xb2dbed40>
      a4:	05110000 	bgezal	t0,a8 <Interrupt-0xb80000d8>
      a8:	0000067e 	0x67e
      ac:	01c70512 	0x1c70512
      b0:	05130000 	bgezall	t0,b4 <Interrupt-0xb80000cc>
      b4:	000001b6 	tne	zero,zero,0x6
      b8:	01a50514 	0x1a50514
      bc:	05150000 	0x5150000
      c0:	00000194 	0x194
      c4:	16b90516 	bne	s5,t9,1520 <Interrupt-0xb7ffec60>
      c8:	05170000 	0x5170000
      cc:	000009f8 	0x9f8
      d0:	01680518 	0x1680518
      d4:	05190000 	0x5190000
      d8:	00000159 	0x159
      dc:	12fb051a 	beq	s7,k1,1548 <Interrupt-0xb7ffec38>
      e0:	051b0000 	0x51b0000
      e4:	000012ed 	0x12ed
      e8:	12df051c 	beq	s6,ra,155c <Interrupt-0xb7ffec24>
      ec:	051d0000 	0x51d0000
      f0:	000012d1 	0x12d1
      f4:	0b19051e 	j	c641478 <Interrupt-0xab9bed08>
      f8:	051f0000 	0x51f0000
      fc:	00000b08 	0xb08
     100:	0af70520 	j	bdc1480 <Interrupt-0xac23ed00>
     104:	05210000 	bgez	t1,108 <Interrupt-0xb8000078>
     108:	00000ae6 	0xae6
     10c:	0ad50522 	j	b541488 <Interrupt-0xacabecf8>
     110:	05230000 	bgezl	t1,114 <Interrupt-0xb800006c>
     114:	00000ac4 	0xac4
     118:	0ab30524 	j	acc1490 <Interrupt-0xad33ecf0>
     11c:	05250000 	0x5250000
     120:	00000aa2 	0xaa2
     124:	02480526 	0x2480526
     128:	05270000 	0x5270000
     12c:	00000238 	0x238
     130:	02280528 	0x2280528
     134:	05290000 	tgeiu	t1,0
     138:	00000218 	0x218
     13c:	0208052a 	0x208052a
     140:	052b0000 	tltiu	t1,0
     144:	000001f8 	0x1f8
     148:	01e8052c 	0x1e8052c
     14c:	052d0000 	0x52d0000
     150:	000001d8 	0x1d8
     154:	11aa052e 	beq	t5,t2,1610 <Interrupt-0xb7ffeb70>
     158:	052f0000 	0x52f0000
     15c:	0000101b 	0x101b
     160:	0eee0530 	jal	bb814c0 <Interrupt-0xac47ecc0>
     164:	05310000 	bgezal	t1,168 <Interrupt-0xb8000018>
     168:	0000012d 	0x12d
     16c:	17cd0532 	bne	s8,t5,1638 <Interrupt-0xb7ffeb48>
     170:	05330000 	bgezall	t1,174 <Interrupt-0xb800000c>
     174:	00000a58 	0xa58
     178:	10000534 	b	164c <Interrupt-0xb7ffeb34>
     17c:	05350000 	0x5350000
     180:	00000ed3 	0xed3
     184:	01120536 	tne	t0,s2,0x14
     188:	05370000 	0x5370000
     18c:	000017b2 	tlt	zero,zero,0x5e
     190:	0a470538 	j	91c14e0 <Interrupt-0xaee3eca0>
     194:	05390000 	0x5390000
     198:	00000ebf 	0xebf
     19c:	0890053a 	j	24014e8 <Interrupt-0xb5bfec98>
     1a0:	053b0000 	0x53b0000
     1a4:	000013b3 	tltu	zero,zero,0x4e
     1a8:	1442053c 	bne	v0,v0,169c <Interrupt-0xb7ffeae4>
     1ac:	053d0000 	0x53d0000
     1b0:	00000eab 	0xeab
     1b4:	087a053e 	j	1e814f8 <Interrupt-0xb617ec88>
     1b8:	053f0000 	0x53f0000
     1bc:	0000139d 	0x139d
     1c0:	340500c0 	li	a1,0xc0
     1c4:	c1000014 	ll	zero,20(t0)
     1c8:	0e970500 	jal	a5c1400 <Interrupt-0xada3ed80>
     1cc:	00c20000 	0xc20000
     1d0:	00086405 	0x86405
     1d4:	0500c300 	bltz	t0,ffff0dd8 <lport_InputArray+0x47bf0dd8>
     1d8:	00001387 	0x1387
     1dc:	260500c4 	addiu	a1,s0,196
     1e0:	c5000014 	lwc1	$f0,20(t0)
     1e4:	0e830500 	jal	a0c1400 <Interrupt-0xadf3ed80>
     1e8:	00c60000 	0xc60000
     1ec:	00084e05 	0x84e05
     1f0:	0500c700 	bltz	t0,ffff1df4 <lport_InputArray+0x47bf1df4>
     1f4:	00001371 	tgeu	zero,zero,0x4d
     1f8:	180500c8 	0x180500c8
     1fc:	c9000014 	lwc2	$0,20(t0)
     200:	0c260500 	jal	981400 <Interrupt-0xb767ed80>
     204:	00ca0000 	0xca0000
     208:	0010a905 	0x10a905
     20c:	0500cb00 	bltz	t0,ffff2e10 <lport_InputArray+0x47bf2e10>
     210:	00000bbe 	0xbbe
     214:	a90500cc 	swl	a1,204(t0)
     218:	cd000000 	pref	0x0,0(t0)
     21c:	00c30500 	0xc30500
     220:	00ce0000 	0xce0000
     224:	00164905 	0x164905
     228:	0500cf00 	bltz	t0,ffff3e2c <lport_InputArray+0x47bf3e2c>
     22c:	0000165f 	0x165f
     230:	770500d0 	jalx	c140340 <Interrupt-0xabebfe40>
     234:	d1000001 	0xd1000001
     238:	16ed0500 	bne	s7,t5,163c <Interrupt-0xb7ffeb44>
     23c:	00d20000 	0xd20000
     240:	000bb205 	0xbb205
     244:	0500d300 	bltz	t0,ffff4e48 <lport_InputArray+0x47bf4e48>
     248:	0000126a 	0x126a
     24c:	ad0500d4 	sw	a1,212(t0)
     250:	d5000008 	ldc1	$f0,8(t0)
     254:	048d0500 	0x48d0500
     258:	00d60000 	0xd60000
     25c:	00035405 	0x35405
     260:	0500d700 	bltz	t0,ffff5e64 <lport_InputArray+0x47bf5e64>
     264:	00000428 	0x428
     268:	040000d8 	bltz	zero,5cc <Interrupt-0xb7fffbb4>
     26c:	8c790204 	lw	t9,516(v1)
     270:	05000002 	bltz	t0,27c <Interrupt-0xb7ffff04>
     274:	00000ba4 	0xba4
     278:	17830500 	bne	gp,v1,167c <Interrupt-0xb7ffeb04>
     27c:	05010000 	bgez	t0,280 <Interrupt-0xb7ffff00>
     280:	00000a05 	0xa05
     284:	163b0502 	bne	s1,k1,1690 <Interrupt-0xb7ffeaf0>
     288:	00030000 	sll	zero,v1,0x0
     28c:	000cc206 	0xcc206
     290:	0a030400 	j	80c1000 <Interrupt-0xaff3f180>
     294:	000002bd 	0x2bd
     298:	00127705 	0x127705
     29c:	4c050000 	mfc3	a1,$0
     2a0:	01000012 	0x1000012
     2a4:	000f7f05 	0xf7f05
     2a8:	38050200 	xori	a1,zero,0x200
     2ac:	03000012 	0x3000012
     2b0:	000bdd05 	0xbdd05
     2b4:	f0050400 	0xf0050400
     2b8:	05000015 	bltz	t0,310 <Interrupt-0xb7fffe70>
     2bc:	0ff10600 	jal	fc41800 <Interrupt-0xa83be980>
     2c0:	03040000 	0x3040000
     2c4:	0002f413 	0x2f413
     2c8:	03e40500 	0x3e40500
     2cc:	05000000 	bltz	t0,2d0 <Interrupt-0xb7fffeb0>
     2d0:	000003ee 	0x3ee
     2d4:	02db0501 	0x2db0501
     2d8:	05020000 	bltzl	t0,2dc <Interrupt-0xb7fffea4>
     2dc:	000002e9 	0x2e9
     2e0:	02f70503 	0x2f70503
     2e4:	05040000 	0x5040000
     2e8:	00000305 	0x305
     2ec:	02cd0505 	0x2cd0505
     2f0:	00050000 	sll	zero,a1,0x0
     2f4:	00184906 	0x184906
     2f8:	1d030400 	0x1d030400
     2fc:	00000332 	tlt	zero,zero,0xc
     300:	000e1a05 	0xe1a05
     304:	f9050000 	sdc2	$5,0(t0)
     308:	01000000 	0x1000000
     30c:	000de605 	0xde605
     310:	f6050200 	sdc1	$f5,512(s0)
     314:	0400000d 	bltz	zero,34c <Interrupt-0xb7fffe34>
     318:	00081205 	0x81205
     31c:	26050800 	addiu	a1,s0,2048
     320:	10000008 	b	344 <Interrupt-0xb7fffe3c>
     324:	00083a05 	0x83a05
     328:	77052000 	jalx	c148000 <Interrupt-0xabeb8180>
     32c:	c000000a 	ll	zero,10(zero)
     330:	d9060000 	ldc2	$6,0(t0)
     334:	04000013 	bltz	zero,384 <Interrupt-0xb7fffdfc>
     338:	03a12803 	0x3a12803
     33c:	e7050000 	swc1	$f5,0(t8)
     340:	00000010 	mfhi	zero
     344:	00073d05 	0x73d05
     348:	96050100 	lhu	a1,256(s0)
     34c:	0200000d 	break	0x200
     350:	000c3e05 	0xc3e05
     354:	cb050400 	lwc2	$5,1024(t8)
     358:	0800000b 	j	2c <Interrupt-0xb8000154>
     35c:	000fca05 	0xfca05
     360:	98051000 	lwr	a1,4096(zero)
     364:	20000010 	addi	zero,zero,16
     368:	0008fd05 	0x8fd05
     36c:	0500c000 	bltz	t0,ffff0370 <lport_InputArray+0x47bf0370>
     370:	000009b4 	teq	zero,zero,0x26
     374:	6e050180 	0x6e050180
     378:	8000000f 	lb	zero,15(zero)
     37c:	09cb0502 	j	72c1408 <Interrupt-0xb0d3ed78>
     380:	04800000 	bltz	a0,384 <Interrupt-0xb7fffdfc>
     384:	0003b605 	0x3b605
     388:	05088000 	tgei	t0,-32768
     38c:	00000271 	tgeu	zero,zero,0x9
     390:	6a051080 	0x6a051080
     394:	80000000 	lb	zero,0(zero)
     398:	17f20520 	bne	ra,s2,181c <Interrupt-0xb7ffe964>
     39c:	3fff0000 	0x3fff0000
     3a0:	14fa0600 	bne	a3,k0,1ba4 <Interrupt-0xb7ffe5dc>
     3a4:	03040000 	0x3040000
     3a8:	0003db3a 	0x3db3a
     3ac:	18030500 	0x18030500
     3b0:	05010000 	bgez	t0,3b4 <Interrupt-0xb7fffdcc>
     3b4:	00001187 	0x1187
     3b8:	0e3e0501 	jal	8f81404 <Interrupt-0xaf07ed7c>
     3bc:	05190000 	0x5190000
     3c0:	00000585 	0x585
     3c4:	11400520 	beqz	t2,1848 <Interrupt-0xb7ffe938>
     3c8:	00c00000 	0xc00000
     3cc:	0005a305 	0x5a305
     3d0:	0500e000 	bltz	t0,ffff83d4 <lport_InputArray+0x47bf83d4>
     3d4:	00001162 	0x1162
     3d8:	070000e0 	bltz	t8,75c <Interrupt-0xb7fffa24>
     3dc:	000010f9 	0x10f9
     3e0:	09040124 	j	4100490 <Interrupt-0xb3effcf0>
     3e4:	0000064e 	0x64e
     3e8:	00037e08 	0x37e08
     3ec:	4e0a0400 	c3	0xa0400
     3f0:	02000006 	srlv	zero,zero,s0
     3f4:	87080023 	lh	t0,35(t8)
     3f8:	04000009 	bltz	zero,420 <Interrupt-0xb7fffd60>
     3fc:	00064e0b 	0x64e0b
     400:	04230200 	bgezl	at,c04 <Interrupt-0xb7fff57c>
     404:	000c8608 	0xc8608
     408:	4e0c0400 	c3	0xc0400
     40c:	02000006 	srlv	zero,zero,s0
     410:	46080823 	c1	0x80823
     414:	04000000 	bltz	zero,418 <Interrupt-0xb7fffd68>
     418:	00064e0d 	break	0x6,0x138
     41c:	0c230200 	jal	8c0800 <Interrupt-0xb773f980>
     420:	00134f08 	0x134f08
     424:	4e0e0400 	c3	0xe0400
     428:	02000006 	srlv	zero,zero,s0
     42c:	a2081023 	sb	t0,4131(s0)
     430:	04000002 	bltz	zero,43c <Interrupt-0xb7fffd44>
     434:	00064e0f 	0x64e0f
     438:	14230200 	bne	at,v1,c3c <Interrupt-0xb7fff544>
     43c:	000b8008 	0xb8008
     440:	4e100400 	c3	0x100400
     444:	02000006 	srlv	zero,zero,s0
     448:	4a081823 	c2	0x81823
     44c:	0400000b 	bltz	zero,47c <Interrupt-0xb7fffd04>
     450:	00064e11 	0x64e11
     454:	1c230200 	0x1c230200
     458:	00179108 	0x179108
     45c:	4e120400 	c3	0x120400
     460:	02000006 	srlv	zero,zero,s0
     464:	48082023 	0x48082023
     468:	04000001 	bltz	zero,470 <Interrupt-0xb7fffd10>
     46c:	00064e13 	0x64e13
     470:	24230200 	addiu	v1,at,512
     474:	00175008 	0x175008
     478:	4e140400 	c3	0x140400
     47c:	02000006 	srlv	zero,zero,s0
     480:	a0082823 	sb	t0,10275(zero)
     484:	04000007 	bltz	zero,4a4 <Interrupt-0xb7fffcdc>
     488:	00064e15 	0x64e15
     48c:	2c230200 	sltiu	v1,at,512
     490:	0007ae08 	0x7ae08
     494:	4e160400 	c3	0x160400
     498:	02000006 	srlv	zero,zero,s0
     49c:	8d083023 	lw	t0,12323(t0)
     4a0:	04000000 	bltz	zero,4a4 <Interrupt-0xb7fffcdc>
     4a4:	00064e17 	0x64e17
     4a8:	34230200 	ori	v1,at,0x200
     4ac:	00177908 	0x177908
     4b0:	4e180400 	c3	0x180400
     4b4:	02000006 	srlv	zero,zero,s0
     4b8:	63083823 	0x63083823
     4bc:	04000006 	bltz	zero,4d8 <Interrupt-0xb7fffca8>
     4c0:	00064e19 	0x64e19
     4c4:	3c230200 	0x3c230200
     4c8:	0014e508 	0x14e508
     4cc:	4e1a0400 	c3	0x1a0400
     4d0:	02000006 	srlv	zero,zero,s0
     4d4:	df084023 	ldc3	$8,16419(t8)
     4d8:	04000014 	bltz	zero,52c <Interrupt-0xb7fffc54>
     4dc:	00064e1b 	0x64e1b
     4e0:	44230200 	0x44230200
     4e4:	00147608 	0x147608
     4e8:	4e1c0400 	c3	0x1c0400
     4ec:	02000006 	srlv	zero,zero,s0
     4f0:	66084823 	0x66084823
     4f4:	04000014 	bltz	zero,548 <Interrupt-0xb7fffc38>
     4f8:	00064e1d 	0x64e1d
     4fc:	4c230200 	0x4c230200
     500:	000b3a08 	0xb3a08
     504:	4e1e0400 	c3	0x1e0400
     508:	02000006 	srlv	zero,zero,s0
     50c:	2a085023 	slti	t0,s0,20515
     510:	0400000b 	bltz	zero,540 <Interrupt-0xb7fffc40>
     514:	00064e1f 	0x64e1f
     518:	54230200 	bnel	at,v1,d1c <Interrupt-0xb7fff464>
     51c:	00135708 	0x135708
     520:	4e200400 	c3	0x200400
     524:	02000006 	srlv	zero,zero,s0
     528:	64085823 	0x64085823
     52c:	04000013 	bltz	zero,57c <Interrupt-0xb7fffc04>
     530:	00064e21 	0x64e21
     534:	5c230200 	0x5c230200
     538:	0012af08 	0x12af08
     53c:	4e220400 	c3	0x220400
     540:	02000006 	srlv	zero,zero,s0
     544:	c0086023 	ll	t0,24611(zero)
     548:	04000012 	bltz	zero,594 <Interrupt-0xb7fffbec>
     54c:	00064e23 	0x64e23
     550:	64230200 	0x64230200
     554:	000c8d08 	0xc8d08
     558:	4e240400 	c3	0x240400
     55c:	02000006 	srlv	zero,zero,s0
     560:	c0086823 	ll	t0,26659(zero)
     564:	04000011 	bltz	zero,5ac <Interrupt-0xb7fffbd4>
     568:	00064e25 	0x64e25
     56c:	6c230200 	0x6c230200
     570:	00120408 	0x120408
     574:	4e260400 	c3	0x260400
     578:	02000006 	srlv	zero,zero,s0
     57c:	e9087023 	swc2	$8,28707(t0)
     580:	04000005 	bltz	zero,598 <Interrupt-0xb7fffbe8>
     584:	00064e27 	0x64e27
     588:	74230200 	jalx	8c0800 <Interrupt-0xb773f980>
     58c:	000cfa08 	0xcfa08
     590:	4e280400 	c3	0x280400
     594:	02000006 	srlv	zero,zero,s0
     598:	7d087823 	0x7d087823
     59c:	04000000 	bltz	zero,5a0 <Interrupt-0xb7fffbe0>
     5a0:	00064e29 	0x64e29
     5a4:	7c230200 	0x7c230200
     5a8:	00005a08 	0x5a08
     5ac:	4e2a0400 	c3	0x2a0400
     5b0:	03000006 	srlv	zero,zero,t8
     5b4:	08018023 	j	6008c <Interrupt-0xb7fa00f4>
     5b8:	00001493 	0x1493
     5bc:	064e2b04 	tnei	s2,11012
     5c0:	23030000 	addi	v1,t8,0
     5c4:	54080184 	bnel	zero,t0,bd8 <Interrupt-0xb7fff5a8>
     5c8:	04000010 	bltz	zero,60c <Interrupt-0xb7fffb74>
     5cc:	00064e2c 	0x64e2c
     5d0:	88230300 	lwl	v1,768(at)
     5d4:	128d0801 	beq	s4,t5,25dc <Interrupt-0xb7ffdba4>
     5d8:	2d040000 	sltiu	a0,t0,0
     5dc:	0000066a 	0x66a
     5e0:	018c2303 	0x18c2303
     5e4:	0017a908 	0x17a908
     5e8:	6f2e0400 	0x6f2e0400
     5ec:	03000006 	srlv	zero,zero,t8
     5f0:	0801a423 	j	6908c <Interrupt-0xb7f970f4>
     5f4:	00000d65 	0xd65
     5f8:	06842f04 	0x6842f04
     5fc:	23030000 	addi	v1,t8,0
     600:	600801bc 	0x600801bc
     604:	0400000d 	bltz	zero,63c <Interrupt-0xb7fffb44>
     608:	00069930 	tge	zero,a2,0x264
     60c:	c4230300 	lwc1	$f3,768(at)
     610:	13240801 	beq	t9,a0,2618 <Interrupt-0xb7ffdb68>
     614:	31040000 	andi	a0,t0,0x0
     618:	0000069e 	0x69e
     61c:	01d42303 	0x1d42303
     620:	47444109 	c1	0x1444109
     624:	a3320400 	sb	s2,1024(t9)
     628:	03000006 	srlv	zero,zero,t8
     62c:	0801ec23 	j	7b08c <Interrupt-0xb7f850f4>
     630:	0000129f 	0x129f
     634:	06a83304 	tgei	s5,13060
     638:	23030000 	addi	v1,t8,0
     63c:	58080284 	0x58080284
     640:	04000002 	bltz	zero,64c <Interrupt-0xb7fffb34>
     644:	0006ad34 	teq	zero,a2,0x2b4
     648:	94230300 	lhu	v1,768(at)
     64c:	250a0002 	addiu	t2,t0,2
     650:	0b000000 	j	c000000 <Interrupt-0xac000180>
     654:	00000025 	move	zero,zero
     658:	00000663 	0x663
     65c:	0006630c 	syscall	0x198c
     660:	02000500 	0x2000500
     664:	003d0704 	0x3d0704
     668:	530a0000 	beql	t8,t2,66c <Interrupt-0xb7fffb14>
     66c:	0a000006 	j	8000018 <Interrupt-0xb0000168>
     670:	00000653 	0x653
     674:	0000250b 	0x250b
     678:	00068400 	sll	s0,a2,0x10
     67c:	06630c00 	bgezl	s3,3680 <Interrupt-0xb7ffcb00>
     680:	00010000 	sll	zero,at,0x0
     684:	0006740a 	0x6740a
     688:	00250b00 	0x250b00
     68c:	06990000 	0x6990000
     690:	630c0000 	0x630c0000
     694:	03000006 	srlv	zero,zero,t8
     698:	06890a00 	tgeiu	s4,2560
     69c:	530a0000 	beql	t8,t2,6a0 <Interrupt-0xb7fffae0>
     6a0:	0a000006 	j	8000018 <Interrupt-0xb0000168>
     6a4:	00000653 	0x653
     6a8:	0006890a 	0x6890a
     6ac:	06890a00 	tgeiu	s4,2560
     6b0:	5c0d0000 	0x5c0d0000
     6b4:	2800000e 	slti	zero,zero,14
     6b8:	074b3704 	tltiu	k0,14084
     6bc:	32080000 	andi	t0,s0,0x0
     6c0:	04000000 	bltz	zero,6c4 <Interrupt-0xb7fffabc>
     6c4:	00064e38 	0x64e38
     6c8:	00230200 	0x230200
     6cc:	00096008 	0x96008
     6d0:	4e390400 	c3	0x390400
     6d4:	02000006 	srlv	zero,zero,s0
     6d8:	e4080423 	swc1	$f8,1059(zero)
     6dc:	04000008 	bltz	zero,700 <Interrupt-0xb7fffa80>
     6e0:	00064e3a 	0x64e3a
     6e4:	08230200 	j	8c0800 <Interrupt-0xb773f980>
     6e8:	00052e08 	0x52e08
     6ec:	623b0400 	0x623b0400
     6f0:	02000007 	srav	zero,zero,s0
     6f4:	44080c23 	0x44080c23
     6f8:	04000009 	bltz	zero,720 <Interrupt-0xb7fffa60>
     6fc:	00064e3c 	0x64e3c
     700:	10230200 	beq	at,v1,f04 <Interrupt-0xb7fff27c>
     704:	00079308 	0x79308
     708:	4e3d0400 	c3	0x3d0400
     70c:	02000006 	srlv	zero,zero,s0
     710:	35081423 	ori	t0,t0,0x1423
     714:	0400000d 	bltz	zero,74c <Interrupt-0xb7fffa34>
     718:	00064e3e 	0x64e3e
     71c:	18230200 	0x18230200
     720:	0008d708 	0x8d708
     724:	4e3f0400 	c3	0x3f0400
     728:	02000006 	srlv	zero,zero,s0
     72c:	65081c23 	0x65081c23
     730:	04000002 	bltz	zero,73c <Interrupt-0xb7fffa44>
     734:	00064e40 	sll	t1,a2,0x19
     738:	20230200 	addi	v1,at,512
     73c:	00097308 	0x97308
     740:	4e410400 	c3	0x410400
     744:	02000006 	srlv	zero,zero,s0
     748:	0b002423 	j	c00908c <Interrupt-0xabff70f4>
     74c:	0000075b 	0x75b
     750:	0000075b 	0x75b
     754:	0006630c 	syscall	0x198c
     758:	02000300 	0x2000300
     75c:	05380801 	0x5380801
     760:	4b0a0000 	c2	0x10a0000
     764:	0d000007 	jal	400001c <Interrupt-0xb4000164>
     768:	000006e3 	0x6e3
     76c:	aa030510 	swl	v1,1296(s0)
     770:	09000007 	j	400001c <Interrupt-0xb4000164>
     774:	00525343 	0x525343
     778:	064e0405 	tnei	s2,1029
     77c:	23020000 	addi	v0,t8,0
     780:	50430900 	beql	v0,v1,2b84 <Interrupt-0xb7ffd5fc>
     784:	4e050500 	c3	0x50500
     788:	02000006 	srlv	zero,zero,s0
     78c:	49090423 	bc2t	$cc2,181c <Interrupt-0xb7ffe964>
     790:	06050052 	0x6050052
     794:	0000064e 	0x64e
     798:	09082302 	j	4208c08 <Interrupt-0xb3df7578>
     79c:	004e5552 	0x4e5552
     7a0:	064e0705 	tnei	s2,1797
     7a4:	23020000 	addi	v0,t8,0
     7a8:	d30d000c 	0xd30d000c
     7ac:	08000011 	j	44 <Interrupt-0xb800013c>
     7b0:	07d30a05 	bgezall	s8,2fc8 <Interrupt-0xb7ffd1b8>
     7b4:	e2080000 	sc	t0,0(s0)
     7b8:	05000011 	bltz	t0,800 <Interrupt-0xb7fff980>
     7bc:	0007d30b 	0x7d30b
     7c0:	00230200 	0x230200
     7c4:	00121408 	0x121408
     7c8:	2c0c0500 	sltiu	t4,zero,1280
     7cc:	02000000 	0x2000000
     7d0:	0e000423 	jal	800108c <Interrupt-0xaffff0f4>
     7d4:	0007d904 	0x7d904
     7d8:	07670a00 	0x7670a00
     7dc:	01020000 	0x1020000
     7e0:	00053a06 	0x53a06
     7e4:	05020200 	bltzl	t0,fe8 <Interrupt-0xb7fff198>
     7e8:	00000d72 	tlt	zero,zero,0x35
     7ec:	a6070202 	sh	a3,514(s0)
     7f0:	02000016 	0x2000016
     7f4:	0b960508 	j	e581420 <Interrupt-0xa9a7ed60>
     7f8:	08020000 	j	80000 <Interrupt-0xb7f80180>
     7fc:	00106e07 	0x106e07
     800:	05040200 	0x5040200
     804:	00000b9b 	0xb9b
     808:	0402040f 	bltzl	zero,1848 <Interrupt-0xb7ffe938>
     80c:	00107307 	0x107307
     810:	17040e00 	bne	t8,a0,4014 <Interrupt-0xb7ffc16c>
     814:	02000008 	jr	s0
     818:	05410601 	bgez	t2,2020 <Interrupt-0xb7ffe160>
     81c:	040e0000 	tnei	zero,0
     820:	00000824 	and	at,zero,zero
     824:	00081710 	0x81710
     828:	04080200 	tgei	zero,512
     82c:	00000f61 	0xf61
     830:	5c040402 	0x5c040402
     834:	0200001d 	0x200001d
     838:	0f5c0408 	jal	d701020 <Interrupt-0xaa8ff160>
     83c:	69070000 	0x69070000
     840:	8800000a 	lwl	zero,10(zero)
     844:	a7d00106 	sh	s0,262(s8)
     848:	0900000d 	j	4000034 <Interrupt-0xb400014c>
     84c:	d2010052 	0xd2010052
     850:	00000da7 	0xda7
     854:	11002302 	beqz	t0,9460 <Interrupt-0xb7ff6d20>
     858:	000016dc 	0x16dc
     85c:	07ecd401 	teqi	ra,-11263
     860:	10020000 	beq	zero,v0,864 <Interrupt-0xb7fff91c>
     864:	80230300 	lb	v1,768(at)
     868:	0f681104 	jal	da04410 <Interrupt-0xaa5fbd70>
     86c:	d5010000 	ldc1	$f1,0(t0)
     870:	000007ec 	0x7ec
     874:	03001002 	0x3001002
     878:	12048223 	beq	s0,a0,fffe1108 <lport_InputArray+0x47be1108>
     87c:	00544e49 	0x544e49
     880:	07ecd601 	teqi	ra,-10751
     884:	10020000 	beq	zero,v0,888 <Interrupt-0xb7fff8f8>
     888:	84230300 	lh	v1,768(at)
     88c:	0a421104 	j	9084410 <Interrupt-0xaef7bd70>
     890:	d7010000 	ldc1	$f1,0(t8)
     894:	000007ec 	0x7ec
     898:	03001002 	0x3001002
     89c:	11048623 	beq	t0,a0,fffe212c <lport_InputArray+0x47be212c>
     8a0:	00000a72 	tlt	zero,zero,0x29
     8a4:	07ecd801 	teqi	ra,-10239
     8a8:	10020000 	beq	zero,v0,8ac <Interrupt-0xb7fff8d4>
     8ac:	88230300 	lwl	v1,768(at)
     8b0:	0c1a1104 	jal	684410 <Interrupt-0xb797bd70>
     8b4:	d9010000 	ldc2	$1,0(t0)
     8b8:	000007ec 	0x7ec
     8bc:	03001002 	0x3001002
     8c0:	11048a23 	beq	t0,a0,fffe3150 <lport_InputArray+0x47be3150>
     8c4:	000005ce 	0x5ce
     8c8:	07ecda01 	teqi	ra,-9727
     8cc:	10020000 	beq	zero,v0,8d0 <Interrupt-0xb7fff8b0>
     8d0:	8c230300 	lw	v1,768(at)
     8d4:	077f1104 	0x77f1104
     8d8:	db010000 	ldc2	$1,0(t8)
     8dc:	000007ec 	0x7ec
     8e0:	03001002 	0x3001002
     8e4:	11048e23 	beq	t0,a0,fffe4174 <lport_InputArray+0x47be4174>
     8e8:	000011b9 	0x11b9
     8ec:	07ecdc01 	teqi	ra,-9215
     8f0:	10020000 	beq	zero,v0,8f4 <Interrupt-0xb7fff88c>
     8f4:	90230300 	lbu	v1,768(at)
     8f8:	02be1104 	0x2be1104
     8fc:	dd010000 	ldc3	$1,0(t0)
     900:	000007ec 	0x7ec
     904:	03001002 	0x3001002
     908:	11049223 	beq	t0,a0,fffe5198 <lport_InputArray+0x47be5198>
     90c:	000013c9 	0x13c9
     910:	07ecde01 	teqi	ra,-8703
     914:	10020000 	beq	zero,v0,918 <Interrupt-0xb7fff868>
     918:	94230300 	lhu	v1,768(at)
     91c:	58521204 	0x58521204
     920:	e0010031 	sc	at,49(zero)
     924:	000007ec 	0x7ec
     928:	03001002 	0x3001002
     92c:	11049623 	beq	t0,a0,fffe61bc <lport_InputArray+0x47be61bc>
     930:	00000d41 	0xd41
     934:	07ece101 	teqi	ra,-7935
     938:	10020000 	beq	zero,v0,93c <Interrupt-0xb7fff844>
     93c:	98230300 	lwr	v1,768(at)
     940:	0e351104 	jal	8d44410 <Interrupt-0xaf2bbd70>
     944:	e2010000 	sc	at,0(s0)
     948:	000007ec 	0x7ec
     94c:	03001002 	0x3001002
     950:	11049a23 	beq	t0,a0,fffe71e0 <lport_InputArray+0x47be71e0>
     954:	000015a8 	0x15a8
     958:	07ece301 	teqi	ra,-7423
     95c:	10020000 	beq	zero,v0,960 <Interrupt-0xb7fff820>
     960:	9c230300 	0x9c230300
     964:	16001104 	bnez	s0,4d78 <Interrupt-0xb7ffb408>
     968:	e4010000 	swc1	$f1,0(zero)
     96c:	000007ec 	0x7ec
     970:	03001002 	0x3001002
     974:	11049e23 	beq	t0,a0,fffe8204 <lport_InputArray+0x47be8204>
     978:	000014a6 	0x14a6
     97c:	07ece501 	teqi	ra,-6911
     980:	10020000 	beq	zero,v0,984 <Interrupt-0xb7fff7fc>
     984:	a0230300 	sb	v1,768(at)
     988:	14b51104 	bne	a1,s5,4d9c <Interrupt-0xb7ffb3e4>
     98c:	e6010000 	swc1	$f1,0(s0)
     990:	000007ec 	0x7ec
     994:	03001002 	0x3001002
     998:	1104a223 	beq	t0,a0,fffe9228 <lport_InputArray+0x47be9228>
     99c:	00001315 	0x1315
     9a0:	07ece701 	teqi	ra,-6399
     9a4:	10020000 	beq	zero,v0,9a8 <Interrupt-0xb7fff7d8>
     9a8:	a4230300 	sh	v1,768(at)
     9ac:	06951104 	0x6951104
     9b0:	e8010000 	swc2	$1,0(zero)
     9b4:	000007ec 	0x7ec
     9b8:	03001002 	0x3001002
     9bc:	1104a623 	beq	t0,a0,fffea24c <lport_InputArray+0x47bea24c>
     9c0:	00000fdb 	0xfdb
     9c4:	07ece901 	teqi	ra,-5887
     9c8:	10020000 	beq	zero,v0,9cc <Interrupt-0xb7fff7b4>
     9cc:	a8230300 	swl	v1,768(at)
     9d0:	0fe61104 	jal	f984410 <Interrupt-0xa867bd70>
     9d4:	ea010000 	swc2	$1,0(s0)
     9d8:	000007ec 	0x7ec
     9dc:	03001002 	0x3001002
     9e0:	1104aa23 	beq	t0,a0,fffeb270 <lport_InputArray+0x47beb270>
     9e4:	00000999 	0x999
     9e8:	07eceb01 	teqi	ra,-5375
     9ec:	10020000 	beq	zero,v0,9f0 <Interrupt-0xb7fff790>
     9f0:	ac230300 	sw	v1,768(at)
     9f4:	09a71104 	j	69c4410 <Interrupt-0xb163bd70>
     9f8:	ec010000 	swc3	$1,0(zero)
     9fc:	000007ec 	0x7ec
     a00:	03001002 	0x3001002
     a04:	1104ae23 	beq	t0,a0,fffec294 <lport_InputArray+0x47bec294>
     a08:	000008f0 	tge	zero,zero,0x23
     a0c:	07eced01 	teqi	ra,-4863
     a10:	10020000 	beq	zero,v0,a14 <Interrupt-0xb7fff76c>
     a14:	b0230300 	0xb0230300
     a18:	02880804 	sllv	at,t0,s4
     a1c:	ee010000 	swc3	$1,0(s0)
     a20:	00000db7 	0xdb7
     a24:	04b22303 	bltzall	a1,9634 <Interrupt-0xb7ff6b4c>
     a28:	00029508 	0x29508
     a2c:	b7ef0100 	0xb7ef0100
     a30:	0300000d 	break	0x300
     a34:	1205b223 	beq	s0,a1,fffed2c4 <lport_InputArray+0x47bed2c4>
     a38:	00325852 	0x325852
     a3c:	07ecf101 	teqi	ra,-3839
     a40:	10020000 	beq	zero,v0,a44 <Interrupt-0xb7fff73c>
     a44:	b2230300 	0xb2230300
     a48:	096b1106 	j	5ac4418 <Interrupt-0xb253bd68>
     a4c:	f2010000 	0xf2010000
     a50:	000007ec 	0x7ec
     a54:	03001002 	0x3001002
     a58:	1106b423 	beq	t0,a2,fffedae8 <lport_InputArray+0x47bedae8>
     a5c:	00000512 	0x512
     a60:	07ecf301 	teqi	ra,-3327
     a64:	10020000 	beq	zero,v0,a68 <Interrupt-0xb7fff718>
     a68:	b6230300 	0xb6230300
     a6c:	16d21106 	bne	s6,s2,4e88 <Interrupt-0xb7ffb2f8>
     a70:	f4010000 	sdc1	$f1,0(zero)
     a74:	000007ec 	0x7ec
     a78:	03001002 	0x3001002
     a7c:	1106b823 	beq	t0,a2,fffeeb0c <lport_InputArray+0x47beeb0c>
     a80:	00001702 	srl	v0,zero,0x1c
     a84:	07ecf501 	teqi	ra,-2815
     a88:	10020000 	beq	zero,v0,a8c <Interrupt-0xb7fff6f4>
     a8c:	ba230300 	swr	v1,768(s1)
     a90:	06281106 	tgei	s1,4358
     a94:	f6010000 	sdc1	$f1,0(s0)
     a98:	000007ec 	0x7ec
     a9c:	03001002 	0x3001002
     aa0:	1106bc23 	beq	t0,a2,fffefb30 <lport_InputArray+0x47befb30>
     aa4:	00000637 	0x637
     aa8:	07ecf701 	teqi	ra,-2303
     aac:	10020000 	beq	zero,v0,ab0 <Interrupt-0xb7fff6d0>
     ab0:	be230300 	cache	0x3,768(s1)
     ab4:	161d1106 	bne	s0,sp,4ed0 <Interrupt-0xb7ffb2b0>
     ab8:	f8010000 	sdc2	$1,0(zero)
     abc:	000007ec 	0x7ec
     ac0:	03001002 	0x3001002
     ac4:	1106c023 	beq	t0,a2,ffff0b54 <lport_InputArray+0x47bf0b54>
     ac8:	0000162c 	0x162c
     acc:	07ecf901 	teqi	ra,-1791
     ad0:	10020000 	beq	zero,v0,ad4 <Interrupt-0xb7fff6ac>
     ad4:	c2230300 	ll	v1,768(s1)
     ad8:	06ce1106 	tnei	s6,4358
     adc:	fa010000 	sdc2	$1,0(s0)
     ae0:	000007ec 	0x7ec
     ae4:	03001002 	0x3001002
     ae8:	1106c423 	beq	t0,a2,ffff1b78 <lport_InputArray+0x47bf1b78>
     aec:	000006f9 	0x6f9
     af0:	07ecfb01 	teqi	ra,-1279
     af4:	10020000 	beq	zero,v0,af8 <Interrupt-0xb7fff688>
     af8:	c6230300 	lwc1	$f3,768(s1)
     afc:	09361106 	j	4d84418 <Interrupt-0xb327bd68>
     b00:	fc010000 	sdc3	$1,0(zero)
     b04:	000007ec 	0x7ec
     b08:	03001002 	0x3001002
     b0c:	1106c823 	beq	t0,a2,ffff2b9c <lport_InputArray+0x47bf2b9c>
     b10:	000004c0 	sll	zero,zero,0x13
     b14:	07ecfd01 	teqi	ra,-767
     b18:	10020000 	beq	zero,v0,b1c <Interrupt-0xb7fff664>
     b1c:	ca230300 	lwc2	$3,768(s1)
     b20:	04a31106 	bgezl	a1,4f3c <Interrupt-0xb7ffb244>
     b24:	fe010000 	sdc3	$1,0(s0)
     b28:	000007ec 	0x7ec
     b2c:	03001002 	0x3001002
     b30:	0806cc23 	j	1b308c <Interrupt-0xb7e4d0f4>
     b34:	00000d7c 	0xd7c
     b38:	0db7ff01 	jal	6dffc04 <Interrupt-0xb120057c>
     b3c:	23030000 	addi	v1,t8,0
     b40:	891306ce 	lwl	s3,1742(t0)
     b44:	0100000d 	break	0x100
     b48:	0db70100 	jal	6dc0400 <Interrupt-0xb123fd80>
     b4c:	23030000 	addi	v1,t8,0
     b50:	521407ce 	beql	s0,s4,2a8c <Interrupt-0xb7ffd6f4>
     b54:	01003358 	0x1003358
     b58:	07ec0102 	teqi	ra,258
     b5c:	10020000 	beq	zero,v0,b60 <Interrupt-0xb7fff620>
     b60:	ce230300 	pref	0x3,768(s1)
     b64:	16571508 	bne	s2,s7,5f88 <Interrupt-0xb7ffa1f8>
     b68:	03010000 	0x3010000
     b6c:	0007ec01 	0x7ec01
     b70:	00100200 	sll	zero,s0,0x8
     b74:	08d02303 	j	3408c0c <Interrupt-0xb4bf7574>
     b78:	0003ad15 	0x3ad15
     b7c:	01040100 	0x1040100
     b80:	000007ec 	0x7ec
     b84:	03001002 	0x3001002
     b88:	1508d223 	bne	t0,t0,ffff5418 <lport_InputArray+0x47bf5418>
     b8c:	000017e8 	0x17e8
     b90:	ec010501 	swc3	$1,1281(zero)
     b94:	02000007 	srav	zero,zero,s0
     b98:	23030010 	addi	v1,t8,16
     b9c:	001508d4 	0x1508d4
     ba0:	01000000 	0x1000000
     ba4:	07ec0106 	teqi	ra,262
     ba8:	10020000 	beq	zero,v0,bac <Interrupt-0xb7fff5d4>
     bac:	d6230300 	ldc1	$f3,768(s1)
     bb0:	111a1508 	beq	t0,k0,5fd4 <Interrupt-0xb7ffa1ac>
     bb4:	07010000 	bgez	t8,bb8 <Interrupt-0xb7fff5c8>
     bb8:	0007ec01 	0x7ec01
     bbc:	00100200 	sll	zero,s0,0x8
     bc0:	08d82303 	j	3608c0c <Interrupt-0xb49f7574>
     bc4:	00112915 	0x112915
     bc8:	01080100 	0x1080100
     bcc:	000007ec 	0x7ec
     bd0:	03001002 	0x3001002
     bd4:	1508da23 	bne	t0,t0,ffff7464 <lport_InputArray+0x47bf7464>
     bd8:	00000757 	0x757
     bdc:	ec010901 	swc3	$1,2305(zero)
     be0:	02000007 	srav	zero,zero,s0
     be4:	23030010 	addi	v1,t8,16
     be8:	661508dc 	0x661508dc
     bec:	01000007 	srav	zero,zero,t0
     bf0:	07ec010a 	teqi	ra,266
     bf4:	10020000 	beq	zero,v0,bf8 <Interrupt-0xb7fff588>
     bf8:	de230300 	ldc3	$3,768(s1)
     bfc:	16e21508 	bne	s7,v0,6020 <Interrupt-0xb7ffa160>
     c00:	0b010000 	j	c040000 <Interrupt-0xabfc0180>
     c04:	0007ec01 	0x7ec01
     c08:	00100200 	sll	zero,s0,0x8
     c0c:	08e02303 	j	3808c0c <Interrupt-0xb47f7574>
     c10:	00170c15 	0x170c15
     c14:	010c0100 	0x10c0100
     c18:	000007ec 	0x7ec
     c1c:	03001002 	0x3001002
     c20:	1508e223 	bne	t0,t0,ffff94b0 <lport_InputArray+0x47bf94b0>
     c24:	000010ce 	0x10ce
     c28:	ec010d01 	swc3	$1,3329(zero)
     c2c:	02000007 	srav	zero,zero,s0
     c30:	23030010 	addi	v1,t8,16
     c34:	d11508e4 	0xd11508e4
     c38:	01000000 	0x1000000
     c3c:	07ec010e 	teqi	ra,270
     c40:	10020000 	beq	zero,v0,c44 <Interrupt-0xb7fff53c>
     c44:	e6230300 	swc1	$f3,768(s1)
     c48:	14c41508 	bne	a2,a0,606c <Interrupt-0xb7ffa114>
     c4c:	0f010000 	jal	c040000 <Interrupt-0xabfc0180>
     c50:	0007ec01 	0x7ec01
     c54:	00100200 	sll	zero,s0,0x8
     c58:	08e82303 	j	3a08c0c <Interrupt-0xb45f7574>
     c5c:	00090e13 	0x90e13
     c60:	01100100 	0x1100100
     c64:	00000db7 	0xdb7
     c68:	08ea2303 	j	3a88c0c <Interrupt-0xb4577574>
     c6c:	00091b13 	0x91b13
     c70:	01110100 	0x1110100
     c74:	00000db7 	0xdb7
     c78:	09ea2303 	j	7a88c0c <Interrupt-0xb0577574>
     c7c:	34585214 	ori	t8,v0,0x5214
     c80:	01130100 	0x1130100
     c84:	000007ec 	0x7ec
     c88:	03001002 	0x3001002
     c8c:	150aea23 	bne	t0,t2,ffffb51c <lport_InputArray+0x47bfb51c>
     c90:	0000031c 	0x31c
     c94:	ec011401 	swc3	$1,5121(zero)
     c98:	02000007 	srav	zero,zero,s0
     c9c:	23030010 	addi	v1,t8,16
     ca0:	61150aec 	0x61150aec
     ca4:	01000012 	0x1000012
     ca8:	07ec0115 	teqi	ra,277
     cac:	10020000 	beq	zero,v0,cb0 <Interrupt-0xb7fff4d0>
     cb0:	ee230300 	swc3	$3,768(s1)
     cb4:	00ef150a 	0xef150a
     cb8:	16010000 	bne	s0,at,cbc <Interrupt-0xb7fff4c4>
     cbc:	0007ec01 	0x7ec01
     cc0:	00100200 	sll	zero,s0,0x8
     cc4:	0af02303 	j	bc08c0c <Interrupt-0xac3f7574>
     cc8:	000c0615 	0xc0615
     ccc:	01170100 	0x1170100
     cd0:	000007ec 	0x7ec
     cd4:	03001002 	0x3001002
     cd8:	150af223 	bne	t0,t2,ffffd568 <lport_InputArray+0x47bfd568>
     cdc:	0000038f 	sync	0xe
     ce0:	ec011801 	swc3	$1,6145(zero)
     ce4:	02000007 	srav	zero,zero,s0
     ce8:	23030010 	addi	v1,t8,16
     cec:	9e150af4 	0x9e150af4
     cf0:	01000003 	0x1000003
     cf4:	07ec0119 	teqi	ra,281
     cf8:	10020000 	beq	zero,v0,cfc <Interrupt-0xb7fff484>
     cfc:	f6230300 	sdc1	$f3,768(s1)
     d00:	121a150a 	beq	s0,k0,612c <Interrupt-0xb7ffa054>
     d04:	1a010000 	0x1a010000
     d08:	0007ec01 	0x7ec01
     d0c:	00100200 	sll	zero,s0,0x8
     d10:	0af82303 	j	be08c0c <Interrupt-0xac1f7574>
     d14:	00122915 	0x122915
     d18:	011b0100 	0x11b0100
     d1c:	000007ec 	0x7ec
     d20:	03001002 	0x3001002
     d24:	150afa23 	bne	t0,t2,fffff5b4 <lport_InputArray+0x47bff5b4>
     d28:	00000db9 	0xdb9
     d2c:	ec011c01 	swc3	$1,7169(zero)
     d30:	02000007 	srav	zero,zero,s0
     d34:	23030010 	addi	v1,t8,16
     d38:	db150afc 	ldc2	$21,2812(t8)
     d3c:	0100000d 	break	0x100
     d40:	07ec011d 	teqi	ra,285
     d44:	10020000 	beq	zero,v0,d48 <Interrupt-0xb7fff438>
     d48:	fe230300 	sdc3	$3,768(s1)
     d4c:	1036150a 	beq	at,s6,6178 <Interrupt-0xb7ffa008>
     d50:	1e010000 	0x1e010000
     d54:	0007ec01 	0x7ec01
     d58:	00100200 	sll	zero,s0,0x8
     d5c:	0b802303 	j	e008c0c <Interrupt-0xa9ff7574>
     d60:	000c7915 	0xc7915
     d64:	011f0100 	0x11f0100
     d68:	000007ec 	0x7ec
     d6c:	03001002 	0x3001002
     d70:	150b8223 	bne	t0,t3,fffe1600 <lport_InputArray+0x47be1600>
     d74:	00001743 	sra	v0,zero,0x1d
     d78:	ec012001 	swc3	$1,8193(zero)
     d7c:	02000007 	srav	zero,zero,s0
     d80:	23030010 	addi	v1,t8,16
     d84:	d9130b84 	ldc2	$19,2948(t0)
     d88:	01000004 	sllv	zero,zero,t0
     d8c:	0db70121 	jal	6dc0484 <Interrupt-0xb123fcfc>
     d90:	23030000 	addi	v1,t8,0
     d94:	e6130b86 	swc1	$f19,2950(s0)
     d98:	01000004 	sllv	zero,zero,t0
     d9c:	0db70122 	jal	6dc0488 <Interrupt-0xb123fcf8>
     da0:	23030000 	addi	v1,t8,0
     da4:	0b000c86 	j	c003218 <Interrupt-0xabffcf68>
     da8:	00000025 	move	zero,zero
     dac:	00000db7 	0xdb7
     db0:	0006630c 	syscall	0x198c
     db4:	0b007f00 	j	c01fc00 <Interrupt-0xabfe0580>
     db8:	000007ec 	0x7ec
     dbc:	00000dc7 	0xdc7
     dc0:	0006630c 	syscall	0x198c
     dc4:	16003f00 	bnez	s0,109c8 <Interrupt-0xb7fef7b8>
     dc8:	00000a69 	0xa69
     dcc:	3e012501 	0x3e012501
     dd0:	17000008 	bnez	t8,df4 <Interrupt-0xb7fff38c>
     dd4:	000f9101 	0xf9101
     dd8:	013e0100 	0x13e0100
     ddc:	00150001 	movt	zero,zero,$fcc5
     de0:	0025e4b8 	0x25e4b8
     de4:	000000b8 	0xb8
     de8:	0e0b0100 	jal	82c0400 <Interrupt-0xafd3fd80>
     dec:	64180000 	0x64180000
     df0:	01007073 	tltu	t0,zero,0x1c1
     df4:	0e0b013e 	jal	82c04f8 <Interrupt-0xafd3fc88>
     df8:	91020000 	lbu	v0,0(t0)
     dfc:	00691900 	0x691900
     e00:	2c014001 	sltiu	at,zero,16385
     e04:	02000000 	0x2000000
     e08:	0e007091 	jal	801c244 <Interrupt-0xaffe3f3c>
     e0c:	000dc704 	0xdc704
     e10:	8b011700 	lwl	at,5888(t8)
     e14:	01000016 	0x1000016
     e18:	e40102e8 	swc1	$f1,744(zero)
     e1c:	0cb80025 	jal	2e00094 <Interrupt-0xb52000ec>
     e20:	44b80026 	0x44b80026
     e24:	01000000 	0x1000000
     e28:	00000e3c 	0xe3c
     e2c:	70736418 	0x70736418
     e30:	02e80100 	0x2e80100
     e34:	00000e0b 	0xe0b
     e38:	00009102 	srl	s2,zero,0x4
     e3c:	0e530117 	jal	94c045c <Interrupt-0xaeb3fd24>
     e40:	f0010000 	0xf0010000
     e44:	260c0102 	addiu	t4,s0,258
     e48:	2664b800 	addiu	a0,s3,-18432
     e4c:	0088b800 	0x88b800
     e50:	65010000 	0x65010000
     e54:	1800000e 	blez	zero,e90 <Interrupt-0xb7fff2f0>
     e58:	f0010061 	0xf0010061
     e5c:	00002c02 	srl	a1,zero,0x10
     e60:	00910200 	0x910200
     e64:	74011a00 	jalx	46800 <Interrupt-0xb7fb9980>
     e68:	0100000b 	movn	zero,t0,zero
     e6c:	640102f6 	0x640102f6
     e70:	b8b80026 	swr	t8,38(a1)
     e74:	ccb80026 	pref	0x18,38(a1)
     e78:	01000000 	0x1000000
     e7c:	00000e90 	0xe90
     e80:	72747318 	0x72747318
     e84:	02f60100 	0x2f60100
     e88:	0000081e 	0x81e
     e8c:	00009102 	srl	s2,zero,0x4
     e90:	032d0117 	0x32d0117
     e94:	01010000 	0x1010000
     e98:	26b80103 	addiu	t8,s5,259
     e9c:	271cb800 	addiu	gp,t8,-18432
     ea0:	0110b800 	0x110b800
     ea4:	bb010000 	swr	at,0(t8)
     ea8:	1b00000e 	blez	t8,ee4 <Interrupt-0xb7fff29c>
     eac:	00001858 	0x1858
     eb0:	25030101 	addiu	v1,t0,257
     eb4:	02000000 	0x2000000
     eb8:	17000091 	bnez	t8,1100 <Interrupt-0xb7fff080>
     ebc:	00032f01 	0x32f01
     ec0:	03050100 	0x3050100
     ec4:	00271c01 	0x271c01
     ec8:	00277cb8 	0x277cb8
     ecc:	000154b8 	0x154b8
     ed0:	0ee60100 	jal	b980400 <Interrupt-0xac67fd80>
     ed4:	581b0000 	0x581b0000
     ed8:	01000018 	mult	t0,zero
     edc:	00250305 	0x250305
     ee0:	91020000 	lbu	v0,0(t0)
     ee4:	01170000 	0x1170000
     ee8:	0000151d 	0x151d
     eec:	01030901 	0x1030901
     ef0:	b800277c 	swr	zero,10108(zero)
     ef4:	b8002834 	swr	zero,10292(zero)
     ef8:	00000198 	0x198
     efc:	000f1e01 	0xf1e01
     f00:	00271b00 	0x271b00
     f04:	09010000 	j	4040000 <Interrupt-0xb3fc0180>
     f08:	000f1e03 	sra	v1,t7,0x18
     f0c:	00910200 	0x910200
     f10:	01006919 	0x1006919
     f14:	0025030a 	0x25030a
     f18:	91020000 	lbu	v0,0(t0)
     f1c:	01020070 	tge	t0,v0,0x1
     f20:	0005c802 	srl	t9,a1,0x0
     f24:	18011c00 	0x18011c00
     f28:	01000000 	0x1000000
     f2c:	2834030f 	slti	s4,at,783
     f30:	28e8b800 	slti	t0,a3,-18432
     f34:	01dcb800 	0x1dcb800
     f38:	4d010000 	bc3t	f3c <Interrupt-0xb7fff244>
     f3c:	1900000f 	blez	t0,f7c <Interrupt-0xb7fff204>
     f40:	11010069 	beq	t0,at,10e8 <Interrupt-0xb7fff098>
     f44:	00002c03 	sra	a1,zero,0x10
     f48:	70910200 	0x70910200
     f4c:	96011700 	lhu	at,5888(s0)
     f50:	01000000 	0x1000000
     f54:	e8010316 	swc2	$1,790(zero)
     f58:	8cb80028 	lw	t8,40(a1)
     f5c:	20b8002d 	addi	t8,a1,45
     f60:	01000002 	0x1000002
     f64:	00000fa5 	0xfa5
     f68:	00134a1b 	0x134a1b
     f6c:	03160100 	0x3160100
     f70:	00000025 	move	zero,zero
     f74:	1b009102 	blez	t8,fffe5380 <lport_InputArray+0x47be5380>
     f78:	00000422 	0x422
     f7c:	2c031601 	sltiu	v1,zero,5633
     f80:	02000000 	0x2000000
     f84:	211b0491 	addi	k1,t0,1169
     f88:	01000006 	srlv	zero,zero,t0
     f8c:	0f1e0316 	jal	c780c58 <Interrupt-0xab87f528>
     f90:	91020000 	lbu	v0,0(t0)
     f94:	16771d08 	bne	s3,s7,83b8 <Interrupt-0xb7ff7dc8>
     f98:	17010000 	bne	t8,at,f9c <Interrupt-0xb7fff1e4>
     f9c:	00002503 	sra	a0,zero,0x14
     fa0:	70910200 	0x70910200
     fa4:	17011700 	bne	t8,at,6ba8 <Interrupt-0xb7ff95d8>
     fa8:	01000004 	sllv	zero,zero,t0
     fac:	8c010347 	lw	at,839(zero)
     fb0:	64b8002d 	0x64b8002d
     fb4:	64b8002e 	0x64b8002e
     fb8:	01000002 	0x1000002
     fbc:	00000fdf 	0xfdf
     fc0:	00134a1b 	0x134a1b
     fc4:	03470100 	0x3470100
     fc8:	00000025 	move	zero,zero
     fcc:	1b009102 	blez	t8,fffe53d8 <lport_InputArray+0x47be53d8>
     fd0:	00000422 	0x422
     fd4:	2c034701 	sltiu	v1,zero,18177
     fd8:	02000000 	0x2000000
     fdc:	17000491 	bnez	t8,2224 <Interrupt-0xb7ffdf5c>
     fe0:	00145c01 	0x145c01
     fe4:	03540100 	0x3540100
     fe8:	002e6401 	0x2e6401
     fec:	002ee0b8 	0x2ee0b8
     ff0:	0002a8b8 	0x2a8b8
     ff4:	10280100 	beq	at,t0,13f8 <Interrupt-0xb7ffed88>
     ff8:	1b1b0000 	0x1b1b0000
     ffc:	01000005 	0x1000005
    1000:	10280354 	beq	at,t0,1d54 <Interrupt-0xb7ffe42c>
    1004:	91020000 	lbu	v0,0(t0)
    1008:	03241b00 	0x3241b00
    100c:	54010000 	bnel	zero,at,1010 <Interrupt-0xb7fff170>
    1010:	00002c03 	sra	a1,zero,0x10
    1014:	04910200 	bgezal	a0,1818 <Interrupt-0xb7ffe968>
    1018:	0011731b 	0x11731b
    101c:	03540100 	0x3540100
    1020:	0000002c 	0x2c
    1024:	00089102 	srl	s2,t0,0x4
    1028:	0025040e 	0x25040e
    102c:	01170000 	0x1170000
    1030:	00000f1c 	0xf1c
    1034:	01035a01 	0x1035a01
    1038:	b8002ee0 	swr	zero,12000(zero)
    103c:	b8002f58 	swr	zero,12120(zero)
    1040:	000002ec 	0x2ec
    1044:	00105901 	0x105901
    1048:	15d51b00 	bne	t6,s5,7c4c <Interrupt-0xb7ff8534>
    104c:	5a010000 	0x5a010000
    1050:	000f1e03 	sra	v1,t7,0x18
    1054:	00910200 	0x910200
    1058:	26011700 	addiu	at,s0,5888
    105c:	01000017 	0x1000017
    1060:	5801035f 	0x5801035f
    1064:	04b8002f 	0x4b8002f
    1068:	30b80030 	andi	t8,a1,0x30
    106c:	01000003 	0x1000003
    1070:	00001084 	0x1084
    1074:	000ca01b 	0xca01b
    1078:	035f0100 	0x35f0100
    107c:	00000f1e 	0xf1e
    1080:	00009102 	srl	s2,zero,0x4
    1084:	110c0117 	beq	t0,t4,14e4 <Interrupt-0xb7ffec9c>
    1088:	65010000 	0x65010000
    108c:	30040103 	andi	a0,zero,0x103
    1090:	314cb800 	andi	t4,t2,0xb800
    1094:	0374b800 	0x374b800
    1098:	be010000 	cache	0x1,0(s0)
    109c:	1b000010 	blez	t8,10e0 <Interrupt-0xb7fff0a0>
    10a0:	0000134a 	0x134a
    10a4:	25036501 	addiu	v1,t0,25857
    10a8:	02000000 	0x2000000
    10ac:	f81d0091 	sdc2	$29,145(zero)
    10b0:	01000003 	0x1000003
    10b4:	00250366 	0x250366
    10b8:	91020000 	lbu	v0,0(t0)
    10bc:	011e0070 	tge	t0,s8,0x1
    10c0:	00000dae 	0xdae
    10c4:	01037901 	0x1037901
    10c8:	00000025 	move	zero,zero
    10cc:	b800314c 	swr	zero,12620(zero)
    10d0:	b80032ec 	swr	zero,13036(zero)
    10d4:	000003b8 	0x3b8
    10d8:	00110b01 	0x110b01
    10dc:	134a1b00 	beq	k0,t2,7ce0 <Interrupt-0xb7ff84a0>
    10e0:	79010000 	0x79010000
    10e4:	00002503 	sra	a0,zero,0x14
    10e8:	00910200 	0x910200
    10ec:	000f091b 	0xf091b
    10f0:	03790100 	0x3790100
    10f4:	00000f1e 	0xf1e
    10f8:	1d049102 	0x1d049102
    10fc:	0000059a 	0x59a
    1100:	25037a01 	addiu	v1,t0,31233
    1104:	02000000 	0x2000000
    1108:	1e007091 	bgtz	s0,1d350 <Interrupt-0xb7fe2e30>
    110c:	00040601 	0x40601
    1110:	039e0100 	0x39e0100
    1114:	00002c01 	0x2c01
    1118:	0032ec00 	0x32ec00
    111c:	0033c8b8 	0x33c8b8
    1120:	0003fcb8 	0x3fcb8
    1124:	11650100 	beq	t3,a1,1528 <Interrupt-0xb7ffec58>
    1128:	4a1b0000 	c2	0x1b0000
    112c:	01000013 	mtlo	t0
    1130:	0025039e 	0x25039e
    1134:	91020000 	lbu	v0,0(t0)
    1138:	1b041b00 	0x1b041b00
    113c:	9e010000 	0x9e010000
    1140:	00002503 	sra	a0,zero,0x14
    1144:	04910200 	bgezal	a0,1948 <Interrupt-0xb7ffe838>
    1148:	000cd71b 	0xcd71b
    114c:	039e0100 	0x39e0100
    1150:	00000025 	move	zero,zero
    1154:	19089102 	0x19089102
    1158:	9f010074 	0x9f010074
    115c:	00002503 	sra	a0,zero,0x14
    1160:	70910200 	0x70910200
    1164:	aa011f00 	swl	at,7936(s0)
    1168:	01000002 	0x1000002
    116c:	250103ab 	addiu	at,t0,939
    1170:	c8000000 	lwc2	$0,0(zero)
    1174:	1cb80033 	0x1cb80033
    1178:	40b80034 	0x40b80034
    117c:	01000004 	sllv	zero,zero,t0
    1180:	00001194 	0x1194
    1184:	00134a1b 	0x134a1b
    1188:	03ab0100 	0x3ab0100
    118c:	00000025 	move	zero,zero
    1190:	00009102 	srl	s2,zero,0x4
    1194:	15e6011e 	bne	t7,a2,1610 <Interrupt-0xb7ffeb70>
    1198:	b0010000 	0xb0010000
    119c:	00250103 	0x250103
    11a0:	341c0000 	li	gp,0x0
    11a4:	3490b800 	ori	s0,a0,0xb800
    11a8:	0484b800 	0x484b800
    11ac:	e1010000 	sc	at,0(t0)
    11b0:	1b000011 	blez	t8,11f8 <Interrupt-0xb7ffef88>
    11b4:	000016f9 	0x16f9
    11b8:	0803b001 	j	ec004 <Interrupt-0xb7f1417c>
    11bc:	02000008 	jr	s0
    11c0:	c31b0091 	ll	k1,145(t8)
    11c4:	01000006 	srlv	zero,zero,t0
    11c8:	002503b0 	tge	at,a1,0xe
    11cc:	91020000 	lbu	v0,0(t0)
    11d0:	01841d04 	0x1841d04
    11d4:	b2010000 	0xb2010000
    11d8:	00002503 	sra	a0,zero,0x14
    11dc:	70910200 	0x70910200
    11e0:	2d011a00 	sltiu	at,t0,6656
    11e4:	01000007 	srav	zero,zero,t0
    11e8:	900103bc 	lbu	at,956(zero)
    11ec:	1cb80034 	0x1cb80034
    11f0:	c8b80036 	lwc2	$24,54(a1)
    11f4:	01000004 	sllv	zero,zero,t0
    11f8:	0000121b 	0x121b
    11fc:	00134a1b 	0x134a1b
    1200:	03bc0100 	0x3bc0100
    1204:	00000025 	move	zero,zero
    1208:	1d009102 	bgtz	t0,fffe5614 <lport_InputArray+0x47be5614>
    120c:	000003f8 	0x3f8
    1210:	2503bd01 	addiu	v1,t0,-17151
    1214:	02000000 	0x2000000
    1218:	17007091 	bnez	t8,1d460 <Interrupt-0xb7fe2d20>
    121c:	00182501 	0x182501
    1220:	03ed0100 	0x3ed0100
    1224:	00361c01 	0x361c01
    1228:	003668b8 	0x3668b8
    122c:	00050cb8 	0x50cb8
    1230:	12530100 	beq	s2,s3,1634 <Interrupt-0xb7ffeb4c>
    1234:	61180000 	0x61180000
    1238:	03ed0100 	0x3ed0100
    123c:	0000002c 	0x2c
    1240:	1d009102 	bgtz	t0,fffe564c <lport_InputArray+0x47be564c>
    1244:	000009c5 	0x9c5
    1248:	2503f001 	addiu	v1,t0,-4095
    124c:	02000000 	0x2000000
    1250:	17007091 	bnez	t8,1d498 <Interrupt-0xb7fe2ce8>
    1254:	0005e101 	0x5e101
    1258:	03f70100 	0x3f70100
    125c:	00366801 	0x366801
    1260:	0036a8b8 	0x36a8b8
    1264:	000550b8 	0x550b8
    1268:	127c0100 	beq	s3,gp,166c <Interrupt-0xb7ffeb14>
    126c:	61180000 	0x61180000
    1270:	03f70100 	0x3f70100
    1274:	0000002c 	0x2c
    1278:	00009102 	srl	s2,zero,0x4
    127c:	0f14011a 	jal	c500468 <Interrupt-0xabaffd18>
    1280:	02010000 	0x2010000
    1284:	36a80104 	ori	t0,s5,0x104
    1288:	37d8b800 	ori	t8,s8,0xb800
    128c:	0594b800 	0x594b800
    1290:	cc010000 	pref	0x1,0(zero)
    1294:	18000012 	blez	zero,12e0 <Interrupt-0xb7ffeea0>
    1298:	02010073 	tltu	s0,at,0x1
    129c:	00081104 	0x81104
    12a0:	00910200 	0x910200
    12a4:	01006919 	0x1006919
    12a8:	002c0404 	0x2c0404
    12ac:	91020000 	lbu	v0,0(t0)
    12b0:	006a1968 	0x6a1968
    12b4:	2c040401 	sltiu	a0,zero,1025
    12b8:	02000000 	0x2000000
    12bc:	63196c91 	0x63196c91
    12c0:	04050100 	0x4050100
    12c4:	00000817 	0x817
    12c8:	00709102 	0x709102
    12cc:	0752011a 	bltzall	k0,1738 <Interrupt-0xb7ffea48>
    12d0:	0f010000 	jal	c040000 <Interrupt-0xabfc0180>
    12d4:	37d80104 	ori	t8,s8,0x104
    12d8:	3968b800 	xori	t0,t3,0xb800
    12dc:	05d8b800 	0x5d8b800
    12e0:	1e010000 	0x1e010000
    12e4:	18000013 	blez	zero,1334 <Interrupt-0xb7ffee4c>
    12e8:	0f01006e 	jal	c0401b8 <Interrupt-0xabfbffc8>
    12ec:	00002c04 	0x2c04
    12f0:	00910200 	0x910200
    12f4:	01007318 	0x1007318
    12f8:	0811040f 	j	44103c <Interrupt-0xb7bbf144>
    12fc:	91020000 	lbu	v0,0(t0)
    1300:	00691904 	0x691904
    1304:	2c041101 	sltiu	a0,zero,4353
    1308:	02000000 	0x2000000
    130c:	831d7091 	lb	sp,28817(t8)
    1310:	01000002 	0x1000002
    1314:	002c0411 	0x2c0411
    1318:	91020000 	lbu	v0,0(t0)
    131c:	01170074 	teq	t0,s7,0x1
    1320:	00000401 	0x401
    1324:	01041f01 	0x1041f01
    1328:	b8003968 	swr	zero,14696(zero)
    132c:	b8003a4c 	swr	zero,14924(zero)
    1330:	0000061c 	0x61c
    1334:	00136101 	0x136101
    1338:	00691800 	0x691800
    133c:	25041f01 	addiu	a0,t0,7937
    1340:	02000000 	0x2000000
    1344:	73180091 	0x73180091
    1348:	041f0100 	0x41f0100
    134c:	00000811 	0x811
    1350:	19049102 	0x19049102
    1354:	2101006e 	addi	at,t0,110
    1358:	00075b04 	0x75b04
    135c:	70910200 	0x70910200
    1360:	6c011700 	0x6c011700
    1364:	01000006 	srlv	zero,zero,t0
    1368:	4c010436 	0x4c010436
    136c:	0cb8003a 	jal	2e000e8 <Interrupt-0xb5200098>
    1370:	60b8003b 	0x60b8003b
    1374:	01000006 	srlv	zero,zero,t0
    1378:	000013aa 	0x13aa
    137c:	0001091b 	0x1091b
    1380:	04360100 	0x4360100
    1384:	0000002c 	0x2c
    1388:	18009102 	blez	zero,fffe5794 <lport_InputArray+0x47be5794>
    138c:	00717246 	0x717246
    1390:	2c043601 	sltiu	a0,zero,13825
    1394:	02000000 	0x2000000
    1398:	64190491 	0x64190491
    139c:	01006d6c 	0x1006d6c
    13a0:	002c0437 	0x2c0437
    13a4:	91020000 	lbu	v0,0(t0)
    13a8:	01170070 	tge	t0,s7,0x1
    13ac:	00001830 	tge	zero,zero,0x60
    13b0:	01044301 	0x1044301
    13b4:	b8003b0c 	swr	zero,15116(zero)
    13b8:	b8003bcc 	swr	zero,15308(zero)
    13bc:	000006a4 	0x6a4
    13c0:	0013f301 	0x13f301
    13c4:	01091b00 	0x1091b00
    13c8:	43010000 	c0	0x1010000
    13cc:	00002c04 	0x2c04
    13d0:	00910200 	0x910200
    13d4:	71724618 	0x71724618
    13d8:	04430100 	bgezl	v0,17dc <Interrupt-0xb7ffe9a4>
    13dc:	0000002c 	0x2c
    13e0:	19049102 	0x19049102
    13e4:	006d6c64 	0x6d6c64
    13e8:	2c044401 	sltiu	a0,zero,17409
    13ec:	02000000 	0x2000000
    13f0:	17007091 	bnez	t8,1d638 <Interrupt-0xb7fe2b48>
    13f4:	00071f01 	0x71f01
    13f8:	04510100 	bgezal	v0,17fc <Interrupt-0xb7ffe984>
    13fc:	003bcc01 	0x3bcc01
    1400:	003c38b8 	0x3c38b8
    1404:	0006e8b8 	0x6e8b8
    1408:	141e0100 	bne	zero,s8,180c <Interrupt-0xb7ffe974>
    140c:	53180000 	beql	t8,t8,1410 <Interrupt-0xb7ffed70>
    1410:	01006d79 	0x1006d79
    1414:	08170451 	j	5c1144 <Interrupt-0xb7a3f03c>
    1418:	91020000 	lbu	v0,0(t0)
    141c:	01200000 	0x1200000
    1420:	00001400 	sll	v0,zero,0x10
    1424:	17045801 	bne	t8,a0,1742c <Interrupt-0xb7fe8d54>
    1428:	38000008 	xori	zero,zero,0x8
    142c:	a0b8003c 	sb	t8,60(a1)
    1430:	2cb8003c 	sltiu	t8,a1,60
    1434:	01000007 	srav	zero,zero,t0
    1438:	0000144c 	syscall	0x51
    143c:	000a951d 	0xa951d
    1440:	04590100 	0x4590100
    1444:	00000817 	0x817
    1448:	00709102 	0x709102
    144c:	0361011a 	0x361011a
    1450:	61010000 	0x61010000
    1454:	3ca00104 	0x3ca00104
    1458:	3d30b800 	0x3d30b800
    145c:	0770b800 	bltzal	k1,fffef460 <lport_InputArray+0x47bef460>
    1460:	77010000 	jalx	c040000 <Interrupt-0xabfc0180>
    1464:	18000014 	blez	zero,14b8 <Interrupt-0xb7ffecc8>
    1468:	00727453 	0x727453
    146c:	1e046101 	0x1e046101
    1470:	02000008 	jr	s0
    1474:	1a000091 	blez	s0,16bc <Interrupt-0xb7ffeac4>
    1478:	00113801 	movt	a3,zero,$fcc4
    147c:	04680100 	tgei	v1,256
    1480:	003d3001 	movt	a2,at,$fcc7
    1484:	003ddcb8 	0x3ddcb8
    1488:	0007b4b8 	0x7b4b8
    148c:	14bc0100 	bne	a1,gp,1890 <Interrupt-0xb7ffe8f0>
    1490:	53180000 	beql	t8,t8,1494 <Interrupt-0xb7ffecec>
    1494:	01007274 	teq	t0,zero,0x1c9
    1498:	081e0468 	j	7811a0 <Interrupt-0xb787efe0>
    149c:	91020000 	lbu	v0,0(t0)
    14a0:	006e1800 	0x6e1800
    14a4:	ec046801 	swc3	$4,26625(zero)
    14a8:	02000007 	srav	zero,zero,s0
    14ac:	69190491 	0x69190491
    14b0:	046a0100 	tlti	v1,256
    14b4:	000007ec 	0x7ec
    14b8:	00709102 	0x709102
    14bc:	0054011a 	0x54011a
    14c0:	6f010000 	0x6f010000
    14c4:	3ddc0104 	0x3ddc0104
    14c8:	3e64b800 	0x3e64b800
    14cc:	07f8b800 	0x7f8b800
    14d0:	f2010000 	0xf2010000
    14d4:	18000014 	blez	zero,1528 <Interrupt-0xb7ffec58>
    14d8:	6f010073 	0x6f010073
    14dc:	00081e04 	0x81e04
    14e0:	00910200 	0x910200
    14e4:	01006118 	0x1006118
    14e8:	0025046f 	0x25046f
    14ec:	91020000 	lbu	v0,0(t0)
    14f0:	011a0004 	sllv	zero,k0,t0
    14f4:	00000ced 	0xced
    14f8:	01047801 	movf	t7,t0,$fcc1
    14fc:	b8003e64 	swr	zero,15972(zero)
    1500:	b8003ee4 	swr	zero,16100(zero)
    1504:	0000083c 	0x83c
    1508:	00152801 	movt	a1,zero,$fcc5
    150c:	00731800 	0x731800
    1510:	1e047801 	0x1e047801
    1514:	02000008 	jr	s0
    1518:	61180091 	0x61180091
    151c:	04780100 	0x4780100
    1520:	00000025 	move	zero,zero
    1524:	00049102 	srl	s2,a0,0x4
    1528:	026a011a 	0x26a011a
    152c:	81010000 	lb	at,0(t0)
    1530:	3ee40104 	0x3ee40104
    1534:	3f54b800 	0x3f54b800
    1538:	0880b800 	j	202e000 <Interrupt-0xb5fd2180>
    153c:	5e010000 	0x5e010000
    1540:	18000015 	blez	zero,1598 <Interrupt-0xb7ffebe8>
    1544:	81010073 	lb	at,115(t0)
    1548:	00081e04 	0x81e04
    154c:	00910200 	0x910200
    1550:	01006118 	0x1006118
    1554:	00250481 	0x250481
    1558:	91020000 	lbu	v0,0(t0)
    155c:	011a0004 	sllv	zero,k0,t0
    1560:	000015b9 	0x15b9
    1564:	01048901 	0x1048901
    1568:	b8003f54 	swr	zero,16212(zero)
    156c:	b8003fcc 	swr	zero,16332(zero)
    1570:	000008c4 	0x8c4
    1574:	00159401 	0x159401
    1578:	00731800 	0x731800
    157c:	1e048901 	0x1e048901
    1580:	02000008 	jr	s0
    1584:	61180091 	0x61180091
    1588:	04890100 	tgeiu	a0,256
    158c:	00000025 	move	zero,zero
    1590:	00049102 	srl	s2,a0,0x4
    1594:	08b90121 	j	2e40484 <Interrupt-0xb51bfcfc>
    1598:	9c010000 	0x9c010000
    159c:	003fcc04 	0x3fcc04
    15a0:	004014b8 	0x4014b8
    15a4:	000908b8 	0x908b8
    15a8:	011f0100 	0x11f0100
    15ac:	00000f4d 	break	0x0,0x3d
    15b0:	0104a201 	0x104a201
    15b4:	00000817 	0x817
    15b8:	b8004014 	swr	zero,16404(zero)
    15bc:	b80040d8 	swr	zero,16600(zero)
    15c0:	0000094c 	syscall	0x25
    15c4:	0015d901 	0x15d901
    15c8:	095b1d00 	j	56c7400 <Interrupt-0xb2938d80>
    15cc:	a4010000 	sh	at,0(zero)
    15d0:	00075b04 	0x75b04
    15d4:	70910200 	0x70910200
    15d8:	09011a00 	j	4046800 <Interrupt-0xb3fb9980>
    15dc:	01000013 	mtlo	t0
    15e0:	d80104ad 	ldc2	$1,1197(zero)
    15e4:	58b80040 	0x58b80040
    15e8:	90b80042 	lbu	t8,66(a1)
    15ec:	01000009 	jalr	zero,t0
    15f0:	0000160f 	0x160f
    15f4:	01006919 	0x1006919
    15f8:	07ec04af 	teqi	ra,1199
    15fc:	91020000 	lbu	v0,0(t0)
    1600:	006a1968 	0x6a1968
    1604:	ec04b001 	swc3	$4,-20479(zero)
    1608:	02000007 	srav	zero,zero,s0
    160c:	1f006a91 	bgtz	t8,1c054 <Interrupt-0xb7fe412c>
    1610:	000f0f01 	0xf0f01
    1614:	04c30100 	bgezl	a2,1a18 <Interrupt-0xb7ffe768>
    1618:	00075b01 	0x75b01
    161c:	00425800 	0x425800
    1620:	0042ecb8 	0x42ecb8
    1624:	0009d4b8 	0x9d4b8
    1628:	16490100 	bne	s2,t1,1a2c <Interrupt-0xb7ffe754>
    162c:	73180000 	madd	t8,t8
    1630:	04c30100 	bgezl	a2,1a34 <Interrupt-0xb7ffe74c>
    1634:	00000811 	0x811
    1638:	19009102 	blez	t0,fffe5a44 <lport_InputArray+0x47be5a44>
    163c:	c5010069 	lwc1	$f1,105(t0)
    1640:	00075b04 	0x75b04
    1644:	70910200 	0x70910200
    1648:	41012200 	bc0t	9e4c <Interrupt-0xb7ff6334>
    164c:	01003154 	0x1003154
    1650:	ec0104cc 	swc3	$1,1228(zero)
    1654:	88b80042 	lwl	t8,66(a1)
    1658:	18b80045 	0x18b80045
    165c:	0100000a 	movz	zero,t0,zero
    1660:	00001672 	tlt	zero,zero,0x59
    1664:	01006118 	0x1006118
    1668:	075b04cc 	0x75b04cc
    166c:	91020000 	lbu	v0,0(t0)
    1670:	01220000 	0x1220000
    1674:	00325441 	0x325441
    1678:	0104d801 	movf	k1,t0,$fcc1
    167c:	b8004588 	swr	zero,17800(zero)
    1680:	b8004824 	swr	zero,18468(zero)
    1684:	00000a5c 	0xa5c
    1688:	00169b01 	0x169b01
    168c:	00611800 	0x611800
    1690:	5b04d801 	0x5b04d801
    1694:	02000007 	srav	zero,zero,s0
    1698:	21000091 	addi	zero,t0,145
    169c:	0004cd01 	0x4cd01
    16a0:	04e40100 	0x4e40100
    16a4:	b8004824 	swr	zero,18468(zero)
    16a8:	b8004920 	swr	zero,18720(zero)
    16ac:	00000aa0 	0xaa0
    16b0:	df011701 	ldc3	$1,5889(t8)
    16b4:	0100000c 	syscall	0x40000
    16b8:	20010524 	addi	at,zero,1316
    16bc:	54b80049 	bnel	a1,t8,17e4 <Interrupt-0xb7ffe99c>
    16c0:	e4b80049 	swc1	$f24,73(a1)
    16c4:	0100000a 	movz	zero,t0,zero
    16c8:	000016dc 	0x16dc
    16cc:	000a9c1b 	0xa9c1b
    16d0:	05240100 	0x5240100
    16d4:	00000025 	move	zero,zero
    16d8:	00009102 	srl	s2,zero,0x4
    16dc:	0e770121 	jal	9dc0484 <Interrupt-0xae23fcfc>
    16e0:	2b010000 	slti	at,t8,0
    16e4:	00495405 	0x495405
    16e8:	004978b8 	0x4978b8
    16ec:	000b28b8 	0xb28b8
    16f0:	01210100 	0x1210100
    16f4:	00000602 	srl	zero,zero,0x18
    16f8:	78053101 	0x78053101
    16fc:	c0b80049 	ll	t8,73(a1)
    1700:	6cb80049 	0x6cb80049
    1704:	0100000b 	movn	zero,t0,zero
    1708:	0dd00121 	jal	7400484 <Interrupt-0xb0bffcfc>
    170c:	38010000 	xori	at,zero,0x0
    1710:	0049c005 	0x49c005
    1714:	004a08b8 	0x4a08b8
    1718:	000bb0b8 	0xbb0b8
    171c:	01230100 	0x1230100
    1720:	000007f7 	0x7f7
    1724:	08054001 	j	150004 <Interrupt-0xb7eb017c>
    1728:	a4b8004a 	sh	t8,74(a1)
    172c:	f4b8004a 	sdc1	$f24,74(a1)
    1730:	0100000b 	movn	zero,t0,zero
    1734:	00001757 	0x1757
    1738:	00060d1d 	0x60d1d
    173c:	05440100 	0x5440100
    1740:	00000025 	move	zero,zero
    1744:	1d709102 	0x1d709102
    1748:	00001331 	tgeu	zero,zero,0x4c
    174c:	25054501 	addiu	a1,t0,17665
    1750:	02000000 	0x2000000
    1754:	21007491 	addi	zero,t0,29841
    1758:	00151101 	0x151101
    175c:	05530100 	bgezall	t2,1b60 <Interrupt-0xb7ffe620>
    1760:	b8004aa4 	swr	zero,19108(zero)
    1764:	b8004b8c 	swr	zero,19340(zero)
    1768:	00000c38 	0xc38
    176c:	e3012101 	sc	at,8449(t8)
    1770:	01000007 	srav	zero,zero,t0
    1774:	4b8c0565 	c2	0x18c0565
    1778:	4bdcb800 	c2	0x1dcb800
    177c:	0c7cb800 	jal	1f2e000 <Interrupt-0xb60d2180>
    1780:	21010000 	addi	at,t0,0
    1784:	000e0601 	0xe0601
    1788:	056d0100 	0x56d0100
    178c:	b8004bdc 	swr	zero,19420(zero)
    1790:	b8004c2c 	swr	zero,19500(zero)
    1794:	00000cc0 	sll	at,zero,0x13
    1798:	eb012301 	swc2	$1,8961(t8)
    179c:	01000013 	mtlo	t0
    17a0:	4c2c0575 	0x4c2c0575
    17a4:	4d58b800 	0x4d58b800
    17a8:	0d04b800 	jal	412e000 <Interrupt-0xb3ed2180>
    17ac:	c3010000 	ll	at,0(t8)
    17b0:	1d000017 	bgtz	t0,1810 <Interrupt-0xb7ffe970>
    17b4:	000006d9 	0x6d9
    17b8:	25057701 	addiu	a1,t0,30465
    17bc:	02000000 	0x2000000
    17c0:	21007091 	addi	zero,t0,28817
    17c4:	00169a01 	0x169a01
    17c8:	05b40100 	0x5b40100
    17cc:	b8004d58 	swr	zero,19800(zero)
    17d0:	b8004dc8 	swr	zero,19912(zero)
    17d4:	00000d48 	0xd48
    17d8:	81012301 	lb	at,8961(t0)
    17dc:	01000004 	sllv	zero,zero,t0
    17e0:	4dc80610 	0x4dc80610
    17e4:	4e3cb800 	c3	0x3cb800
    17e8:	0d8cb800 	jal	632e000 <Interrupt-0xb1cd2180>
    17ec:	01010000 	0x1010000
    17f0:	19000018 	blez	t0,1854 <Interrupt-0xb7ffe92c>
    17f4:	1501006c 	bne	t0,at,19a8 <Interrupt-0xb7ffe7d8>
    17f8:	0007ec06 	0x7ec06
    17fc:	70910200 	0x70910200
    1800:	5d011700 	0x5d011700
    1804:	01000017 	0x1000017
    1808:	3c010669 	lui	at,0x669
    180c:	f0b8004e 	0xf0b8004e
    1810:	d0b8004e 	0xd0b8004e
    1814:	0100000d 	break	0x100
    1818:	00001837 	0x1837
    181c:	01006118 	0x1006118
    1820:	07ec0669 	teqi	ra,1641
    1824:	91020000 	lbu	v0,0(t0)
    1828:	007a1800 	0x7a1800
    182c:	5b066901 	0x5b066901
    1830:	02000007 	srav	zero,zero,s0
    1834:	17000491 	bnez	t8,2a7c <Interrupt-0xb7ffd704>
    1838:	00176b01 	0x176b01
    183c:	066e0100 	tnei	s3,256
    1840:	004ef001 	0x4ef001
    1844:	004fa4b8 	0x4fa4b8
    1848:	000e14b8 	0xe14b8
    184c:	186d0100 	0x186d0100
    1850:	61180000 	0x61180000
    1854:	066e0100 	tnei	s3,256
    1858:	000007ec 	0x7ec
    185c:	18009102 	blez	zero,fffe5c68 <lport_InputArray+0x47be5c68>
    1860:	6e01007a 	0x6e01007a
    1864:	00075b06 	0x75b06
    1868:	04910200 	bgezal	a0,206c <Interrupt-0xb7ffe114>
    186c:	4c012200 	0x4c012200
    1870:	01004445 	0x1004445
    1874:	a4010675 	sh	at,1653(zero)
    1878:	d0b8004f 	0xd0b8004f
    187c:	58b8004f 	0x58b8004f
    1880:	0100000e 	0x100000e
    1884:	00001896 	0x1896
    1888:	01006118 	0x1006118
    188c:	075b0675 	0x75b0675
    1890:	91020000 	lbu	v0,0(t0)
    1894:	011a0000 	0x11a0000
    1898:	00000c34 	teq	zero,zero,0x30
    189c:	01067b01 	0x1067b01
    18a0:	b8004fd0 	swr	zero,20432(zero)
    18a4:	b80050c8 	swr	zero,20680(zero)
    18a8:	00000e9c 	0xe9c
    18ac:	0018bf01 	0x18bf01
    18b0:	00611800 	0x611800
    18b4:	5b067b01 	0x5b067b01
    18b8:	02000007 	srav	zero,zero,s0
    18bc:	1a000091 	blez	s0,1b04 <Interrupt-0xb7ffe67c>
    18c0:	00037401 	0x37401
    18c4:	06940100 	0x6940100
    18c8:	0050c801 	movf	t9,v0,$fcc4
    18cc:	0051c0b8 	0x51c0b8
    18d0:	000ee0b8 	0xee0b8
    18d4:	18e80100 	0x18e80100
    18d8:	61180000 	0x61180000
    18dc:	06940100 	0x6940100
    18e0:	0000075b 	0x75b
    18e4:	00009102 	srl	s2,zero,0x4
    18e8:	04f3011a 	bgezall	a3,1d54 <Interrupt-0xb7ffe42c>
    18ec:	a8010000 	swl	at,0(zero)
    18f0:	51c00106 	beqzl	t6,1d0c <Interrupt-0xb7ffe474>
    18f4:	5570b800 	bnel	t3,s0,fffef8f8 <lport_InputArray+0x47bef8f8>
    18f8:	0f24b800 	jal	c92e000 <Interrupt-0xab6d2180>
    18fc:	3c010000 	lui	at,0x0
    1900:	18000019 	blez	zero,1968 <Interrupt-0xb7ffe818>
    1904:	00707364 	0x707364
    1908:	0b06a801 	j	c1aa004 <Interrupt-0xabe5617c>
    190c:	0200000e 	0x200000e
    1910:	66180091 	0x66180091
    1914:	06a80100 	tgei	s5,256
    1918:	00000025 	move	zero,zero
    191c:	19049102 	0x19049102
    1920:	aa01007a 	swl	at,122(s0)
    1924:	00002506 	0x2506
    1928:	48910200 	0x48910200
    192c:	000c4e1d 	0xc4e1d
    1930:	06ab0100 	tltiu	s5,256
    1934:	000007f3 	tltu	zero,zero,0x1f
    1938:	00509102 	0x509102
    193c:	10920123 	beq	a0,s2,1dcc <Interrupt-0xb7ffe3b4>
    1940:	d0010000 	0xd0010000
    1944:	00557006 	srlv	t6,s5,v0
    1948:	005594b8 	0x5594b8
    194c:	000f6bb8 	0xf6bb8
    1950:	19610100 	0x19610100
    1954:	69240000 	0x69240000
    1958:	06d40100 	0x6d40100
    195c:	0000002c 	0x2c
    1960:	49012500 	bc2t	ad64 <Interrupt-0xb7ff541c>
    1964:	0201004f 	0x201004f
    1968:	00250107 	0x250107
    196c:	55940000 	bnel	t4,s4,1970 <Interrupt-0xb7ffe810>
    1970:	671cb800 	0x671cb800
    1974:	0fafb800 	jal	ebee000 <Interrupt-0xa9412180>
    1978:	9c010000 	0x9c010000
    197c:	18000019 	blez	zero,19e4 <Interrupt-0xb7ffe79c>
    1980:	00727473 	tltu	v1,s2,0x1d1
    1984:	11070201 	beq	t0,a3,218c <Interrupt-0xb7ffdff4>
    1988:	02000008 	jr	s0
    198c:	69190091 	0x69190091
    1990:	07050100 	0x7050100
    1994:	00000025 	move	zero,zero
    1998:	00609102 	0x609102
    199c:	13410126 	beq	k0,at,1e38 <Interrupt-0xb7ffe348>
    19a0:	eb010000 	swc2	$1,0(t8)
    19a4:	671c0107 	0x671c0107
    19a8:	6790b800 	0x6790b800
    19ac:	0ff3b800 	jal	fcee000 <Interrupt-0xa8312180>
    19b0:	21010000 	addi	at,t0,0
    19b4:	0014eb01 	0x14eb01
    19b8:	07f70100 	0x7f70100
    19bc:	b8006790 	swr	zero,26512(zero)
    19c0:	b8006874 	swr	zero,26740(zero)
    19c4:	00001037 	0x1037
    19c8:	73012701 	0x73012701
    19cc:	01006970 	tge	t0,zero,0x1a5
    19d0:	25010805 	addiu	at,t0,2053
    19d4:	74000000 	jalx	0 <Interrupt-0xb8000180>
    19d8:	08b80068 	j	2e001a0 <Interrupt-0xb51fffe0>
    19dc:	7bb80069 	0x7bb80069
    19e0:	01000010 	0x1000010
    19e4:	00001a05 	0x1a05
    19e8:	01006118 	0x1006118
    19ec:	00250805 	0x250805
    19f0:	91020000 	lbu	v0,0(t0)
    19f4:	095b1d00 	j	56c7400 <Interrupt-0xb2938d80>
    19f8:	07010000 	bgez	t8,19fc <Interrupt-0xb7ffe784>
    19fc:	00002508 	0x2508
    1a00:	70910200 	0x70910200
    1a04:	68011e00 	0x68011e00
    1a08:	01000003 	0x1000003
    1a0c:	25010816 	addiu	at,t0,2070
    1a10:	08000000 	j	0 <Interrupt-0xb8000180>
    1a14:	98b80069 	lwr	t8,105(a1)
    1a18:	bfb80069 	cache	0x18,105(sp)
    1a1c:	01000010 	0x1000010
    1a20:	00001a52 	0x1a52
    1a24:	72646118 	0x72646118
    1a28:	08160100 	j	580400 <Interrupt-0xb7a7fd80>
    1a2c:	000007ec 	0x7ec
    1a30:	1b009102 	blez	t8,fffe5e3c <lport_InputArray+0x47be5e3c>
    1a34:	0000095b 	0x95b
    1a38:	ec081601 	swc3	$8,5633(zero)
    1a3c:	02000007 	srav	zero,zero,s0
    1a40:	76190491 	jalx	8641244 <Interrupt-0xaf9bef3c>
    1a44:	01007261 	0x1007261
    1a48:	00250818 	0x250818
    1a4c:	91020000 	lbu	v0,0(t0)
    1a50:	011e0070 	tge	t0,s8,0x1
    1a54:	00001737 	0x1737
    1a58:	01082001 	movf	a0,t0,$fcc2
    1a5c:	00000025 	move	zero,zero
    1a60:	b8006998 	swr	zero,27032(zero)
    1a64:	b8006a28 	swr	zero,27176(zero)
    1a68:	00001103 	sra	v0,zero,0x4
    1a6c:	001a9d01 	0x1a9d01
    1a70:	64611800 	0x64611800
    1a74:	20010072 	addi	at,zero,114
    1a78:	0007ec08 	0x7ec08
    1a7c:	00910200 	0x910200
    1a80:	72617619 	0x72617619
    1a84:	08220100 	j	880400 <Interrupt-0xb777fd80>
    1a88:	00000025 	move	zero,zero
    1a8c:	19709102 	0x19709102
    1a90:	2301007a 	addi	at,t8,122
    1a94:	00002508 	0x2508
    1a98:	74910200 	jalx	2440800 <Interrupt-0xb5bbf980>
    1a9c:	fd012100 	sdc3	$1,8448(t0)
    1aa0:	0100000b 	movn	zero,t0,zero
    1aa4:	6a28082c 	0x6a28082c
    1aa8:	6b4cb800 	0x6b4cb800
    1aac:	1147b800 	beq	t2,a3,fffefab0 <lport_InputArray+0x47befab0>
    1ab0:	1a010000 	0x1a010000
    1ab4:	000a1301 	0xa1301
    1ab8:	08770100 	j	1dc0400 <Interrupt-0xb623fd80>
    1abc:	006b4c01 	0x6b4c01
    1ac0:	00773cb8 	0x773cb8
    1ac4:	00118bb8 	0x118bb8
    1ac8:	1b070100 	0x1b070100
    1acc:	7a190000 	0x7a190000
    1ad0:	08790100 	j	1e40400 <Interrupt-0xb61bfd80>
    1ad4:	000007ec 	0x7ec
    1ad8:	19749102 	0x19749102
    1adc:	7a010069 	0x7a010069
    1ae0:	0007ec08 	0x7ec08
    1ae4:	70910200 	0x70910200
    1ae8:	72646119 	0x72646119
    1aec:	087b0100 	j	1ec0400 <Interrupt-0xb613fd80>
    1af0:	000007ec 	0x7ec
    1af4:	1d769102 	0x1d769102
    1af8:	000007dd 	0x7dd
    1afc:	ec087c01 	swc3	$8,31745(zero)
    1b00:	02000007 	srav	zero,zero,s0
    1b04:	1a007291 	blez	s0,1e54c <Interrupt-0xb7fe1c34>
    1b08:	0013d101 	0x13d101
    1b0c:	09890100 	j	6240400 <Interrupt-0xb1dbfd80>
    1b10:	00773c01 	0x773c01
    1b14:	007cb4b8 	0x7cb4b8
    1b18:	0011cfb8 	0x11cfb8
    1b1c:	1b320100 	0x1b320100
    1b20:	b21d0000 	0xb21d0000
    1b24:	01000015 	0x1000015
    1b28:	002c09b1 	tgeu	at,t4,0x26
    1b2c:	91020000 	lbu	v0,0(t0)
    1b30:	011e0070 	tge	t0,s8,0x1
    1b34:	00000d20 	0xd20
    1b38:	0109e701 	0x109e701
    1b3c:	00000025 	move	zero,zero
    1b40:	b8007cb4 	swr	zero,31924(zero)
    1b44:	b8007db4 	swr	zero,32180(zero)
    1b48:	00001213 	0x1213
    1b4c:	001bb901 	0x1bb901
    1b50:	00611800 	0x611800
    1b54:	2509e701 	addiu	t1,t0,-6399
    1b58:	02000000 	0x2000000
    1b5c:	501d0091 	beql	zero,sp,1da4 <Interrupt-0xb7ffe3dc>
    1b60:	01000019 	multu	t0,zero
    1b64:	002c09ea 	0x2c09ea
    1b68:	91020000 	lbu	v0,0(t0)
    1b6c:	09de1d58 	j	7787560 <Interrupt-0xb0878c20>
    1b70:	eb010000 	swc2	$1,0(t8)
    1b74:	00067409 	0x67409
    1b78:	68910200 	0x68910200
    1b7c:	0009e51d 	0x9e51d
    1b80:	09ec0100 	j	7b00400 <Interrupt-0xb04ffd80>
    1b84:	00000674 	teq	zero,zero,0x19
    1b88:	1d709102 	0x1d709102
    1b8c:	000007dd 	0x7dd
    1b90:	2509ed01 	addiu	t1,t0,-4863
    1b94:	02000000 	0x2000000
    1b98:	76195c91 	jalx	8657244 <Interrupt-0xaf9a8f3c>
    1b9c:	01007261 	0x1007261
    1ba0:	002509ee 	0x2509ee
    1ba4:	91020000 	lbu	v0,0(t0)
    1ba8:	17a41d60 	bne	sp,a0,912c <Interrupt-0xb7ff7054>
    1bac:	ef010000 	swc3	$1,0(t8)
    1bb0:	00102809 	0x102809
    1bb4:	64910200 	0x64910200
    1bb8:	10011700 	beq	zero,at,77bc <Interrupt-0xb7ff89c4>
    1bbc:	0100000c 	syscall	0x40000
    1bc0:	b4010a0b 	0xb4010a0b
    1bc4:	0cb8007d 	jal	2e001f4 <Interrupt-0xb51fff8c>
    1bc8:	57b8007e 	bnel	sp,t8,1dc4 <Interrupt-0xb7ffe3bc>
    1bcc:	01000012 	0x1000012
    1bd0:	00001be4 	0x1be4
    1bd4:	72617619 	0x72617619
    1bd8:	0a0d0100 	j	8340400 <Interrupt-0xafcbfd80>
    1bdc:	0000002c 	0x2c
    1be0:	00709102 	0x709102
    1be4:	13f7011f 	beq	ra,s7,2064 <Interrupt-0xb7ffe11c>
    1be8:	16010000 	bne	s0,at,1bec <Interrupt-0xb7ffe594>
    1bec:	002c010a 	0x2c010a
    1bf0:	7e0c0000 	0x7e0c0000
    1bf4:	7f60b800 	0x7f60b800
    1bf8:	129bb800 	beq	s4,k1,fffefbfc <lport_InputArray+0x47befbfc>
    1bfc:	2d010000 	sltiu	at,t0,0
    1c00:	1800001c 	blez	zero,1c74 <Interrupt-0xb7ffe50c>
    1c04:	16010069 	bne	s0,at,1dac <Interrupt-0xb7ffe3d4>
    1c08:	0000250a 	0x250a
    1c0c:	00910200 	0x910200
    1c10:	01006219 	0x1006219
    1c14:	00250a19 	0x250a19
    1c18:	91030000 	lbu	v1,0(t0)
    1c1c:	61197ef0 	0x61197ef0
    1c20:	0a1a0100 	j	8680400 <Interrupt-0xaf97fd80>
    1c24:	00001c2d 	0x1c2d
    1c28:	7ef49103 	0x7ef49103
    1c2c:	002c0b00 	0x2c0b00
    1c30:	1c3d0000 	0x1c3d0000
    1c34:	630c0000 	0x630c0000
    1c38:	1f000006 	bgtz	t8,1c54 <Interrupt-0xb7ffe52c>
    1c3c:	13011f00 	beq	t8,at,9840 <Interrupt-0xb7ff6940>
    1c40:	01000003 	0x1000003
    1c44:	2c010a42 	sltiu	at,zero,2626
    1c48:	60000000 	0x60000000
    1c4c:	b8b8007f 	swr	t8,127(a1)
    1c50:	e2b80080 	sc	t8,128(s5)
    1c54:	01000012 	0x1000012
    1c58:	00001c86 	0x1c86
    1c5c:	01006918 	0x1006918
    1c60:	00250a42 	ror	at,a1,0x9
    1c64:	91020000 	lbu	v0,0(t0)
    1c68:	00621900 	0x621900
    1c6c:	250a4501 	addiu	t2,t0,17665
    1c70:	03000000 	0x3000000
    1c74:	197ef091 	0x197ef091
    1c78:	46010061 	c1	0x10061
    1c7c:	001c2d0a 	0x1c2d0a
    1c80:	f4910300 	sdc1	$f17,768(a0)
    1c84:	0128007e 	0x128007e
    1c88:	00000719 	0x719
    1c8c:	010a6e01 	0x10a6e01
    1c90:	b80080b8 	swr	zero,-32584(zero)
    1c94:	b8008208 	swr	zero,-32248(zero)
    1c98:	00001329 	0x1329
    1c9c:	0c011c01 	jal	47004 <Interrupt-0xb7fb917c>
    1ca0:	01000015 	0x1000015
    1ca4:	82080aa0 	lb	t0,2720(s0)
    1ca8:	87e4b800 	lh	a0,-18432(ra)
    1cac:	136db800 	beq	k1,t5,fffefcb0 <lport_InputArray+0x47befcb0>
    1cb0:	13010000 	beq	t8,at,1cb4 <Interrupt-0xb7ffe4cc>
    1cb4:	1d00001e 	bgtz	t0,1d30 <Interrupt-0xb7ffe450>
    1cb8:	0000050a 	0x50a
    1cbc:	170aa201 	bne	t8,t2,fffea4c4 <lport_InputArray+0x47bea4c4>
    1cc0:	02000008 	jr	s0
    1cc4:	531d4091 	beql	t8,sp,11f0c <Interrupt-0xb7fee274>
    1cc8:	0100000b 	movn	zero,t0,zero
    1ccc:	075b0aa4 	0x75b0aa4
    1cd0:	91020000 	lbu	v0,0(t0)
    1cd4:	16801d41 	bnez	s4,91dc <Interrupt-0xb7ff6fa4>
    1cd8:	a5010000 	sh	at,0(t0)
    1cdc:	00075b0a 	0x75b0a
    1ce0:	42910200 	c0	0x910200
    1ce4:	0005761d 	0x5761d
    1ce8:	0aa70100 	j	a9c0400 <Interrupt-0xad63fd80>
    1cec:	00000025 	move	zero,zero
    1cf0:	19449102 	0x19449102
    1cf4:	a9010069 	swl	at,105(t0)
    1cf8:	0000250a 	0x250a
    1cfc:	48910200 	0x48910200
    1d00:	01006a19 	0x1006a19
    1d04:	00250aaa 	0x250aaa
    1d08:	91020000 	lbu	v0,0(t0)
    1d0c:	006b194c 	syscall	0x1ac65
    1d10:	250aab01 	addiu	t2,t0,-21759
    1d14:	02000000 	0x2000000
    1d18:	69195091 	0x69195091
    1d1c:	0100636e 	0x100636e
    1d20:	00250aac 	0x250aac
    1d24:	91020000 	lbu	v0,0(t0)
    1d28:	31761954 	andi	s6,t3,0x1954
    1d2c:	0aae0100 	j	ab80400 <Interrupt-0xad47fd80>
    1d30:	00000025 	move	zero,zero
    1d34:	19589102 	0x19589102
    1d38:	01003276 	tne	t0,zero,0xc9
    1d3c:	00250aaf 	0x250aaf
    1d40:	91020000 	lbu	v0,0(t0)
    1d44:	0cf31d5c 	jal	3cc7570 <Interrupt-0xb4338c10>
    1d48:	b1010000 	0xb1010000
    1d4c:	0007ec0a 	0x7ec0a
    1d50:	60910200 	0x60910200
    1d54:	000d2e1d 	0xd2e1d
    1d58:	0ab20100 	j	ac80400 <Interrupt-0xad37fd80>
    1d5c:	000007ec 	0x7ec
    1d60:	1d629102 	0x1d629102
    1d64:	00000736 	tne	zero,zero,0x1c
    1d68:	5b0ab301 	0x5b0ab301
    1d6c:	02000007 	srav	zero,zero,s0
    1d70:	381d6491 	xori	sp,zero,0x6491
    1d74:	01000004 	sllv	zero,zero,t0
    1d78:	075b0ab4 	0x75b0ab4
    1d7c:	91020000 	lbu	v0,0(t0)
    1d80:	30622465 	andi	v0,v1,0x2465
    1d84:	0ab60100 	j	ad80400 <Interrupt-0xad27fd80>
    1d88:	00000025 	move	zero,zero
    1d8c:	00316224 	0x316224
    1d90:	250ab601 	addiu	t2,t0,-18943
    1d94:	24000000 	li	zero,0
    1d98:	01003262 	0x1003262
    1d9c:	00250ab6 	tne	at,a1,0x2a
    1da0:	62240000 	0x62240000
    1da4:	b6010033 	0xb6010033
    1da8:	0000250a 	0x250a
    1dac:	30612400 	andi	at,v1,0x2400
    1db0:	0ab70100 	j	adc0400 <Interrupt-0xad23fd80>
    1db4:	00000025 	move	zero,zero
    1db8:	00316124 	0x316124
    1dbc:	250ab701 	addiu	t2,t0,-18687
    1dc0:	24000000 	li	zero,0
    1dc4:	01003261 	0x1003261
    1dc8:	00250ab7 	0x250ab7
    1dcc:	61240000 	0x61240000
    1dd0:	b7010033 	0xb7010033
    1dd4:	0000250a 	0x250a
    1dd8:	034e1d00 	0x34e1d00
    1ddc:	b8010000 	swr	at,0(zero)
    1de0:	0000250a 	0x250a
    1de4:	68910200 	0x68910200
    1de8:	00049b1d 	0x49b1d
    1dec:	0abc0100 	j	af00400 <Interrupt-0xad0ffd80>
    1df0:	0000002c 	0x2c
    1df4:	1d6c9102 	0x1d6c9102
    1df8:	00000991 	0x991
    1dfc:	2c0abd01 	sltiu	t2,zero,-17151
    1e00:	02000000 	0x2000000
    1e04:	a6297091 	sh	t1,28817(s1)
    1e08:	01000008 	jr	t0
    1e0c:	08170ac1 	j	5c2b04 <Interrupt-0xb7a3d67c>
    1e10:	2a000000 	slti	zero,s0,0
    1e14:	00000a95 	0xa95
    1e18:	08176001 	j	5d8004 <Interrupt-0xb7a2817c>
    1e1c:	05010000 	bgez	t0,1e20 <Interrupt-0xb7ffe360>
    1e20:	00db6803 	0xdb6803
    1e24:	13312ab8 	beq	t9,s1,c908 <Interrupt-0xb7ff3878>
    1e28:	61010000 	0x61010000
    1e2c:	00000025 	move	zero,zero
    1e30:	64030501 	0x64030501
    1e34:	2ab800db 	slti	t8,s5,219
    1e38:	000004b0 	tge	zero,zero,0x12
    1e3c:	075b6301 	0x75b6301
    1e40:	05010000 	bgez	t0,1e44 <Interrupt-0xb7ffe33c>
    1e44:	00db8803 	0xdb8803
    1e48:	0b5e2ab8 	j	d78aae0 <Interrupt-0xaa8756a0>
    1e4c:	64010000 	0x64010000
    1e50:	000007ec 	0x7ec
    1e54:	6a030501 	0x6a030501
    1e58:	0bb800db 	j	ee0036c <Interrupt-0xa91ffe14>
    1e5c:	0000075b 	0x75b
    1e60:	00001e6c 	0x1e6c
    1e64:	0006632b 	0x6632b
    1e68:	0003ff00 	sll	ra,v1,0x1c
    1e6c:	0007872a 	0x7872a
    1e70:	5b650100 	0x5b650100
    1e74:	0100001e 	0x100001e
    1e78:	df400305 	ldc3	$0,773(k0)
    1e7c:	170bb800 	bne	t8,t3,fffefe80 <lport_InputArray+0x47befe80>
    1e80:	8e000008 	lw	zero,8(s0)
    1e84:	0c00001e 	jal	78 <Interrupt-0xb8000108>
    1e88:	00000663 	0x663
    1e8c:	dc2a003f 	ldc3	$10,63(at)
    1e90:	01000010 	0x1000010
    1e94:	001ea069 	0x1ea069
    1e98:	03050100 	0x3050100
    1e9c:	b800e9c8 	swr	zero,-5688(zero)
    1ea0:	001e7e0a 	0x1e7e0a
    1ea4:	04fd2a00 	0x4fd2a00
    1ea8:	6a010000 	0x6a010000
    1eac:	0000064e 	0x64e
    1eb0:	6c030501 	0x6c030501
    1eb4:	2ab800db 	slti	t8,s5,219
    1eb8:	00001085 	0x1085
    1ebc:	064e6a01 	tnei	s2,27137
    1ec0:	05010000 	bgez	t0,1ec4 <Interrupt-0xb7ffe2bc>
    1ec4:	00db8403 	0xdb8403
    1ec8:	09ec2ab8 	j	7b0aae0 <Interrupt-0xb04f56a0>
    1ecc:	6a010000 	0x6a010000
    1ed0:	0000064e 	0x64e
    1ed4:	8c030501 	lw	v1,1281(zero)
    1ed8:	2ab800db 	slti	t8,s5,219
    1edc:	00000a25 	0xa25
    1ee0:	1eed6b01 	0x1eed6b01
    1ee4:	05010000 	bgez	t0,1ee8 <Interrupt-0xb7ffe298>
    1ee8:	00db7803 	0xdb7803
    1eec:	075b0ab8 	0x75b0ab8
    1ef0:	170b0000 	bne	t8,t3,1ef4 <Interrupt-0xb7ffe28c>
    1ef4:	02000008 	jr	s0
    1ef8:	0c00001f 	jal	7c <Interrupt-0xb8000104>
    1efc:	00000663 	0x663
    1f00:	732c0040 	0x732c0040
    1f04:	73010072 	0x73010072
    1f08:	00001ef2 	tlt	zero,zero,0x7b
    1f0c:	14030501 	bne	zero,v1,3314 <Interrupt-0xb7ffce6c>
    1f10:	2cb800eb 	sltiu	t8,a1,235
    1f14:	0072736c 	0x72736c
    1f18:	075b7401 	0x75b7401
    1f1c:	05010000 	bgez	t0,1f20 <Interrupt-0xb7ffe260>
    1f20:	00dbb003 	0xdbb003
    1f24:	6b6c2cb8 	0x6b6c2cb8
    1f28:	5b750100 	0x5b750100
    1f2c:	01000007 	srav	zero,zero,t0
    1f30:	dbb10305 	ldc2	$17,773(sp)
    1f34:	f42ab800 	sdc1	$f10,-18432(at)
    1f38:	0100000b 	movn	zero,t0,zero
    1f3c:	00002576 	tne	zero,zero,0x95
    1f40:	03050100 	0x3050100
    1f44:	b800dbb4 	swr	zero,-9292(zero)
    1f48:	0008170b 	0x8170b
    1f4c:	001f5800 	sll	t3,ra,0x0
    1f50:	06630c00 	bgezl	s3,4f54 <Interrupt-0xb7ffb22c>
    1f54:	001f0000 	sll	zero,ra,0x0
    1f58:	0006ae2a 	0x6ae2a
    1f5c:	487a0100 	0x487a0100
    1f60:	0100001f 	0x100001f
    1f64:	eb580305 	swc2	$24,773(k0)
    1f68:	562ab800 	bnel	s1,t2,fffeff6c <lport_InputArray+0x47beff6c>
    1f6c:	0100000f 	0x100000f
    1f70:	001ef27b 	0x1ef27b
    1f74:	03050100 	0x3050100
    1f78:	b800ead0 	swr	zero,-5424(zero)
    1f7c:	00077a2a 	0x77a2a
    1f80:	487c0100 	0x487c0100
    1f84:	0100001f 	0x100001f
    1f88:	df200305 	ldc3	$0,773(t9)
    1f8c:	170bb800 	bne	t8,t3,fffeff90 <lport_InputArray+0x47beff90>
    1f90:	9e000008 	0x9e000008
    1f94:	0c00001f 	jal	7c <Interrupt-0xb8000104>
    1f98:	00000663 	0x663
    1f9c:	752a00c7 	jalx	4a8031c <Interrupt-0xb357fe64>
    1fa0:	01000007 	srav	zero,zero,t0
    1fa4:	001f8e7d 	0x1f8e7d
    1fa8:	03050100 	0x3050100
    1fac:	b800de58 	swr	zero,-8616(zero)
    1fb0:	00097c2a 	0x97c2a
    1fb4:	8e7e0100 	lw	s8,256(s3)
    1fb8:	0100001f 	0x100001f
    1fbc:	ea080305 	swc2	$8,773(s0)
    1fc0:	b72ab800 	0xb72ab800
    1fc4:	01000000 	0x1000000
    1fc8:	00081780 	sll	v0,t0,0x1e
    1fcc:	03050100 	0x3050100
    1fd0:	b800dbb8 	swr	zero,-9288(zero)
    1fd4:	00004d2a 	0x4d2a
    1fd8:	17810100 	bne	gp,at,23dc <Interrupt-0xb7ffdda4>
    1fdc:	01000008 	jr	t0
    1fe0:	dbb90305 	ldc2	$25,773(sp)
    1fe4:	552ab800 	bnel	t1,t2,fffeffe8 <lport_InputArray+0x47beffe8>
    1fe8:	01000014 	0x1000014
    1fec:	0007ec83 	sra	sp,a3,0x12
    1ff0:	03050100 	0x3050100
    1ff4:	b800dbba 	swr	zero,-9286(zero)
    1ff8:	0003c82a 	slt	t9,zero,v1
    1ffc:	ec840100 	swc3	$4,256(a0)
    2000:	01000007 	srav	zero,zero,t0
    2004:	dbbc0305 	ldc2	$28,773(sp)
    2008:	982ab800 	lwr	t2,-18432(at)
    200c:	01000012 	0x1000012
    2010:	00002586 	0x2586
    2014:	03050100 	0x3050100
    2018:	b800dbc0 	swr	zero,-9280(zero)
    201c:	0014112a 	0x14112a
    2020:	5b870100 	0x5b870100
    2024:	01000007 	srav	zero,zero,t0
    2028:	dbc40305 	ldc2	$4,773(s8)
    202c:	8b2ab800 	lwl	t2,-18432(t9)
    2030:	0100000a 	movz	zero,t0,zero
    2034:	00075b88 	0x75b88
    2038:	03050100 	0x3050100
    203c:	b800dbc5 	swr	zero,-9275(zero)
    2040:	0016c62a 	0x16c62a
    2044:	5b890100 	0x5b890100
    2048:	01000007 	srav	zero,zero,t0
    204c:	dbc60305 	ldc2	$6,773(s8)
    2050:	3a2ab800 	xori	t2,s1,0xb800
    2054:	01000013 	mtlo	t0
    2058:	0000258a 	0x258a
    205c:	03050100 	0x3050100
    2060:	b800dbc8 	swr	zero,-9272(zero)
    2064:	000f422a 	0xf422a
    2068:	258b0100 	addiu	t3,t4,256
    206c:	01000000 	0x1000000
    2070:	dbcc0305 	ldc2	$12,773(s8)
    2074:	9a2ab800 	lwr	t2,-18432(s1)
    2078:	01000011 	mthi	t0
    207c:	0000258c 	syscall	0x96
    2080:	03050100 	0x3050100
    2084:	b800dbd0 	swr	zero,-9264(zero)
    2088:	0000de2a 	0xde2a
    208c:	258d0100 	addiu	t5,t4,256
    2090:	01000000 	0x1000000
    2094:	dbd40305 	ldc2	$20,773(s8)
    2098:	542ab800 	bnel	at,t2,ffff009c <lport_InputArray+0x47bf009c>
    209c:	01000009 	jalr	zero,t0
    20a0:	0000258e 	0x258e
    20a4:	03050100 	0x3050100
    20a8:	b800dbd8 	swr	zero,-9256(zero)
    20ac:	0005242a 	0x5242a
    20b0:	5b8f0100 	0x5b8f0100
    20b4:	01000007 	srav	zero,zero,t0
    20b8:	dbdc0305 	ldc2	$28,773(s8)
    20bc:	692ab800 	0x692ab800
    20c0:	0100000b 	movn	zero,t0,zero
    20c4:	00075b90 	0x75b90
    20c8:	03050100 	0x3050100
    20cc:	b800dbdd 	swr	zero,-9251(zero)
    20d0:	0014502a 	slt	t2,zero,s4
    20d4:	5b910100 	0x5b910100
    20d8:	01000007 	srav	zero,zero,t0
    20dc:	dbde0305 	ldc2	$30,773(s8)
    20e0:	502ab800 	beql	at,t2,ffff00e4 <lport_InputArray+0x47bf00e4>
    20e4:	01000009 	jalr	zero,t0
    20e8:	00002592 	0x2592
    20ec:	03050100 	0x3050100
    20f0:	b800dbe0 	swr	zero,-9248(zero)
    20f4:	0006a42a 	0x6a42a
    20f8:	5b930100 	0x5b930100
    20fc:	01000007 	srav	zero,zero,t0
    2100:	dbe40305 	ldc2	$4,773(ra)
    2104:	462ab800 	add.d	$f0,$f23,$f10
    2108:	01000006 	srlv	zero,zero,t0
    210c:	00075b94 	0x75b94
    2110:	03050100 	0x3050100
    2114:	b800dbe5 	swr	zero,-9243(zero)
    2118:	000fc02a 	slt	t8,zero,t7
    211c:	30950100 	andi	s5,a0,0x100
    2120:	01000008 	jr	t0
    2124:	dbe80305 	ldc2	$8,773(ra)
    2128:	cc2ab800 	pref	0xa,-18432(at)
    212c:	01000007 	srav	zero,zero,t0
    2130:	00002597 	0x2597
    2134:	03050100 	0x3050100
    2138:	b800dbec 	swr	zero,-9236(zero)
    213c:	00000a2a 	0xa2a
    2140:	25980100 	addiu	t8,t4,256
    2144:	01000000 	0x1000000
    2148:	dbf00305 	ldc2	$16,773(ra)
    214c:	d62ab800 	ldc1	$f10,-18432(s1)
    2150:	01000005 	0x1000005
    2154:	0000259c 	0x259c
    2158:	03050100 	0x3050100
    215c:	b800ccf8 	swr	zero,-13064(zero)
    2160:	000b8e2a 	0xb8e2a
    2164:	259e0100 	addiu	s8,t4,256
    2168:	01000000 	0x1000000
    216c:	dbf40305 	ldc2	$20,773(ra)
    2170:	dc2ab800 	ldc3	$10,-18432(at)
    2174:	01000015 	0x1000015
    2178:	0000259f 	0x259f
    217c:	03050100 	0x3050100
    2180:	b800ccfc 	swr	zero,-13060(zero)
    2184:	00132b2a 	0x132b2a
    2188:	25a00100 	addiu	zero,t5,256
    218c:	01000000 	0x1000000
    2190:	dbf80305 	ldc2	$24,773(ra)
    2194:	092ab800 	j	4aae000 <Interrupt-0xb3552180>
    2198:	01000008 	jr	t0
    219c:	000025a1 	0x25a1
    21a0:	03050100 	0x3050100
    21a4:	b800cd00 	swr	zero,-13056(zero)
    21a8:	00149c2a 	0x149c2a
    21ac:	25a20100 	addiu	v0,t5,256
    21b0:	01000000 	0x1000000
    21b4:	cd040305 	pref	0x4,773(t0)
    21b8:	172ab800 	bne	t9,t2,ffff01bc <lport_InputArray+0x47bf01bc>
    21bc:	01000017 	0x1000017
    21c0:	000025a3 	0x25a3
    21c4:	03050100 	0x3050100
    21c8:	b800cd08 	swr	zero,-13048(zero)
    21cc:	00183b2a 	0x183b2a
    21d0:	25a40100 	addiu	a0,t5,256
    21d4:	01000000 	0x1000000
    21d8:	cd0c0305 	pref	0xc,773(t0)
    21dc:	b42ab800 	0xb42ab800
    21e0:	01000006 	srlv	zero,zero,t0
    21e4:	000025a5 	0x25a5
    21e8:	03050100 	0x3050100
    21ec:	b800cd10 	swr	zero,-13040(zero)
    21f0:	0011792a 	0x11792a
    21f4:	25a60100 	addiu	a2,t5,256
    21f8:	01000000 	0x1000000
    21fc:	cd140305 	pref	0x14,773(t0)
    2200:	142ab800 	bne	at,t2,ffff0204 <lport_InputArray+0x47bf0204>
    2204:	01000018 	mult	t0,zero
    2208:	000025a7 	0x25a7
    220c:	03050100 	0x3050100
    2210:	b800cd18 	swr	zero,-13032(zero)
    2214:	00064e2a 	0x64e2a
    2218:	25a80100 	addiu	t0,t5,256
    221c:	01000000 	0x1000000
    2220:	cd1c0305 	pref	0x1c,773(t0)
    2224:	382ab800 	xori	t2,at,0xb800
    2228:	01000003 	0x1000003
    222c:	00002caa 	0x2caa
    2230:	03050100 	0x3050100
    2234:	b800dbfc 	swr	zero,-9220(zero)
    2238:	0003432a 	0x3432a
    223c:	2cab0100 	sltiu	t3,a1,256
    2240:	01000000 	0x1000000
    2244:	dc000305 	ldc3	$0,773(zero)
    2248:	e72ab800 	swc1	$f10,-18432(t9)
    224c:	01000011 	mthi	t0
    2250:	00002cac 	0x2cac
    2254:	03050100 	0x3050100
    2258:	b800dc04 	swr	zero,-9212(zero)
    225c:	0002b72a 	0x2b72a
    2260:	2cad0100 	sltiu	t5,a1,256
    2264:	01000000 	0x1000000
    2268:	dc080305 	ldc3	$8,773(zero)
    226c:	da2ab800 	ldc2	$10,-18432(s1)
    2270:	01000003 	0x1000003
    2274:	00002cae 	0x2cae
    2278:	03050100 	0x3050100
    227c:	b800dc0c 	swr	zero,-9204(zero)
    2280:	0006172a 	0x6172a
    2284:	25b10100 	addiu	s1,t5,256
    2288:	01000000 	0x1000000
    228c:	dc100305 	ldc3	$16,773(zero)
    2290:	282ab800 	slti	t2,at,-18432
    2294:	01000009 	jalr	zero,t0
    2298:	000025b2 	tlt	zero,zero,0x96
    229c:	03050100 	0x3050100
    22a0:	b800dc14 	swr	zero,-9196(zero)
    22a4:	0011552a 	0x11552a
    22a8:	25b40100 	addiu	s4,t5,256
    22ac:	01000000 	0x1000000
    22b0:	dc180305 	ldc3	$24,773(zero)
    22b4:	6d2ab800 	0x6d2ab800
    22b8:	01000016 	0x1000016
    22bc:	000025b5 	0x25b5
    22c0:	03050100 	0x3050100
    22c4:	b800cd20 	swr	zero,-13024(zero)
    22c8:	0007bc2a 	0x7bc2a
    22cc:	25b60100 	addiu	s6,t5,256
    22d0:	01000000 	0x1000000
    22d4:	dc1c0305 	ldc3	$28,773(zero)
    22d8:	2a2ab800 	slti	t2,s1,-18432
    22dc:	0100000e 	0x100000e
    22e0:	00064eb8 	0x64eb8
    22e4:	03050100 	0x3050100
    22e8:	b800cd24 	swr	zero,-13020(zero)
    22ec:	0004222a 	0x4222a
    22f0:	25b90100 	addiu	t9,t5,256
    22f4:	01000000 	0x1000000
    22f8:	db800305 	ldc2	$0,773(gp)
    22fc:	c42ab800 	lwc1	$f10,-18432(at)
    2300:	0100000d 	break	0x100
    2304:	000025ba 	0x25ba
    2308:	03050100 	0x3050100
    230c:	b800cd28 	swr	zero,-13016(zero)
    2310:	0006772a 	0x6772a
    2314:	2cbb0100 	sltiu	k1,a1,256
    2318:	01000000 	0x1000000
    231c:	dc200305 	ldc3	$0,773(at)
    2320:	2c2ab800 	sltiu	t2,at,-18432
    2324:	0100000f 	0x100000f
    2328:	00002cbc 	0x2cbc
    232c:	03050100 	0x3050100
    2330:	b800dc24 	swr	zero,-9180(zero)
    2334:	0000250b 	0x250b
    2338:	00234500 	0x234500
    233c:	06632b00 	bgezl	s3,cf40 <Interrupt-0xb7ff3240>
    2340:	2edf0000 	sltiu	ra,s6,0
    2344:	0c682a00 	jal	1a0a800 <Interrupt-0xb65f5980>
    2348:	c5010000 	lwc1	$f1,0(t0)
    234c:	00002334 	teq	zero,zero,0x8c
    2350:	00030501 	0x30501
    2354:	0bb84000 	j	ee10000 <Interrupt-0xa91f0180>
    2358:	00000025 	move	zero,zero
    235c:	00002367 	0x2367
    2360:	0006630c 	syscall	0x198c
    2364:	2a003f00 	slti	zero,s0,16128
    2368:	000010b6 	tne	zero,zero,0x42
    236c:	2357cd01 	addi	s7,k0,-13055
    2370:	05010000 	bgez	t0,2374 <Interrupt-0xb7ffde0c>
    2374:	00dc2803 	0xdc2803
    2378:	10c22ab8 	beq	a2,v0,ce5c <Interrupt-0xb7ff3324>
    237c:	ce010000 	pref	0x1,0(s0)
    2380:	00002357 	0x2357
    2384:	28030501 	slti	v1,zero,1281
    2388:	2db800dd 	sltiu	t8,t5,221
    238c:	00505344 	0x505344
    2390:	c7012701 	lwc1	$f1,9985(t8)
    2394:	0100000d 	break	0x100
    2398:	e3400305 	sc	zero,773(k0)
    239c:	e22eb800 	sc	t6,-18432(s1)
    23a0:	01000011 	mthi	t0
    23a4:	23b102fc 	addi	s1,sp,764
    23a8:	05010000 	bgez	t0,23ac <Interrupt-0xb7ffddd4>
    23ac:	00cd2c03 	0xcd2c03
    23b0:	b7040eb8 	0xb7040eb8
    23b4:	0a000023 	j	800008c <Interrupt-0xb00000f4>
    23b8:	000003db 	0x3db
    23bc:	000f9e2e 	0xf9e2e
    23c0:	02fd0100 	0x2fd0100
    23c4:	000023cf 	0x23cf
    23c8:	30030501 	andi	v1,zero,0x501
    23cc:	0eb800cd 	jal	ae00334 <Interrupt-0xad1ffe4c>
    23d0:	0023d504 	0x23d504
    23d4:	06b20a00 	bltzall	s5,4bd8 <Interrupt-0xb7ffb5a8>
    23d8:	d12e0000 	0xd12e0000
    23dc:	01000014 	0x1000014
    23e0:	23ed02fe 	addi	t5,ra,766
    23e4:	05010000 	bgez	t0,23e8 <Interrupt-0xb7ffdd98>
    23e8:	00cd3403 	0xcd3403
    23ec:	4e040eb8 	c3	0x40eb8
    23f0:	2e000006 	sltiu	zero,s0,6
    23f4:	000005b9 	0x5b9
    23f8:	25052001 	addiu	a1,t0,8193
    23fc:	01000000 	0x1000000
    2400:	de280305 	ldc3	$8,773(s1)
    2404:	0a2eb800 	j	8bae000 <Interrupt-0xaf452180>
    2408:	01000016 	0x1000016
    240c:	00250521 	0x250521
    2410:	05010000 	bgez	t0,2414 <Interrupt-0xb7ffdd6c>
    2414:	00de2c03 	0xde2c03
    2418:	10442eb8 	beq	v0,a0,defc <Interrupt-0xb7ff2284>
    241c:	62010000 	0x62010000
    2420:	00002505 	0x2505
    2424:	03050100 	0x3050100
    2428:	b800de30 	swr	zero,-8656(zero)
    242c:	000d102e 	0xd102e
    2430:	05630100 	bgezl	t3,2834 <Interrupt-0xb7ffd94c>
    2434:	00000025 	move	zero,zero
    2438:	34030501 	li	v1,0x501
    243c:	2eb800de 	sltiu	t8,s5,222
    2440:	00000385 	0x385
    2444:	2506ff01 	addiu	a2,t0,-255
    2448:	01000000 	0x1000000
    244c:	de380305 	ldc3	$24,773(s1)
    2450:	392eb800 	xori	t6,t1,0xb800
    2454:	0100000a 	movz	zero,t0,zero
    2458:	00250700 	0x250700
    245c:	05010000 	bgez	t0,2460 <Interrupt-0xb7ffdd20>
    2460:	00de3c03 	0xde3c03
    2464:	07d82eb8 	0x7d82eb8
    2468:	e8010000 	swc2	$1,0(zero)
    246c:	00075b07 	0x75b07
    2470:	03050100 	0x3050100
    2474:	b800de40 	swr	zero,-8640(zero)
    2478:	0004f700 	sll	s8,a0,0x1c
    247c:	1c000200 	bgtz	zero,2c80 <Interrupt-0xb7ffd500>
    2480:	04000003 	bltz	zero,2490 <Interrupt-0xb7ffdcf0>
    2484:	00043f01 	0x43f01
    2488:	18660100 	0x18660100
    248c:	05460000 	0x5460000
    2490:	87e40000 	lh	a0,0(ra)
    2494:	8f50b800 	lw	s0,-18432(k0)
    2498:	0c5bb800 	jal	16ee000 <Interrupt-0xb6912180>
    249c:	17020000 	bne	t8,v0,24a0 <Interrupt-0xb7ffdce0>
    24a0:	04000019 	bltz	zero,2508 <Interrupt-0xb7ffdc78>
    24a4:	00561502 	0x561502
    24a8:	f8030000 	sdc2	$3,0(zero)
    24ac:	00000018 	mult	zero,zero
    24b0:	0018b203 	sra	s6,t8,0x8
    24b4:	8b030100 	lwl	v1,256(t8)
    24b8:	02000018 	mult	s0,zero
    24bc:	00187a03 	sra	t7,t8,0x8
    24c0:	cc030300 	pref	0x3,768(zero)
    24c4:	04000018 	bltz	zero,2528 <Interrupt-0xb7ffdc58>
    24c8:	00197303 	sra	t6,t9,0xc
    24cc:	04000500 	bltz	zero,38d0 <Interrupt-0xb7ffc8b0>
    24d0:	10780704 	beq	v1,t8,40e4 <Interrupt-0xb7ffc09c>
    24d4:	04050000 	0x4050000
    24d8:	746e6905 	jalx	1b9a414 <Interrupt-0xb6465d6c>
    24dc:	03040600 	0x3040600
    24e0:	00029c19 	0x29c19
    24e4:	15990300 	bne	t4,t9,30e8 <Interrupt-0xb7ffd098>
    24e8:	03000000 	0x3000000
    24ec:	0000158a 	0x158a
    24f0:	157b0301 	bne	t3,k1,30f8 <Interrupt-0xb7ffd088>
    24f4:	03020000 	0x3020000
    24f8:	0000156c 	0x156c
    24fc:	155d0303 	bne	t2,sp,310c <Interrupt-0xb7ffd074>
    2500:	03040000 	0x3040000
    2504:	0000154e 	0x154e
    2508:	153f0305 	bne	t1,ra,3120 <Interrupt-0xb7ffd060>
    250c:	03060000 	0x3060000
    2510:	00001530 	tge	zero,zero,0x54
    2514:	0cb50307 	jal	2d40c1c <Interrupt-0xb52bf564>
    2518:	03080000 	0x3080000
    251c:	00000ca8 	0xca8
    2520:	14860309 	bne	a0,a2,3148 <Interrupt-0xb7ffd038>
    2524:	030a0000 	0x30a0000
    2528:	000011ef 	0x11ef
    252c:	15c0030b 	bnez	t6,315c <Interrupt-0xb7ffd024>
    2530:	030c0000 	0x30c0000
    2534:	00000c53 	0xc53
    2538:	0fab030d 	jal	eac0c34 <Interrupt-0xa953f54c>
    253c:	030e0000 	0x30e0000
    2540:	000008c2 	srl	at,zero,0x3
    2544:	0704030f 	0x704030f
    2548:	03100000 	0x3100000
    254c:	00000d49 	0xd49
    2550:	067e0311 	0x67e0311
    2554:	03120000 	0x3120000
    2558:	000001c7 	0x1c7
    255c:	01b60313 	0x1b60313
    2560:	03140000 	0x3140000
    2564:	000001a5 	0x1a5
    2568:	01940315 	0x1940315
    256c:	03160000 	0x3160000
    2570:	000016b9 	0x16b9
    2574:	09f80317 	j	7e00c5c <Interrupt-0xb01ff524>
    2578:	03180000 	0x3180000
    257c:	00000168 	0x168
    2580:	01590319 	0x1590319
    2584:	031a0000 	0x31a0000
    2588:	000012fb 	0x12fb
    258c:	12ed031b 	beq	s7,t5,31fc <Interrupt-0xb7ffcf84>
    2590:	031c0000 	0x31c0000
    2594:	000012df 	0x12df
    2598:	12d1031d 	beq	s6,s1,3210 <Interrupt-0xb7ffcf70>
    259c:	031e0000 	0x31e0000
    25a0:	00000b19 	0xb19
    25a4:	0b08031f 	j	c200c7c <Interrupt-0xabdff504>
    25a8:	03200000 	0x3200000
    25ac:	00000af7 	0xaf7
    25b0:	0ae60321 	j	b980c84 <Interrupt-0xac67f4fc>
    25b4:	03220000 	0x3220000
    25b8:	00000ad5 	0xad5
    25bc:	0ac40323 	j	b100c8c <Interrupt-0xaceff4f4>
    25c0:	03240000 	0x3240000
    25c4:	00000ab3 	tltu	zero,zero,0x2a
    25c8:	0aa20325 	j	a880c94 <Interrupt-0xad77f4ec>
    25cc:	03260000 	0x3260000
    25d0:	00000248 	0x248
    25d4:	02380327 	0x2380327
    25d8:	03280000 	0x3280000
    25dc:	00000228 	0x228
    25e0:	02180329 	0x2180329
    25e4:	032a0000 	0x32a0000
    25e8:	00000208 	0x208
    25ec:	01f8032b 	0x1f8032b
    25f0:	032c0000 	0x32c0000
    25f4:	000001e8 	0x1e8
    25f8:	01d8032d 	0x1d8032d
    25fc:	032e0000 	0x32e0000
    2600:	000011aa 	0x11aa
    2604:	101b032f 	beq	zero,k1,32c4 <Interrupt-0xb7ffcebc>
    2608:	03300000 	0x3300000
    260c:	00000eee 	0xeee
    2610:	012d0331 	tgeu	t1,t5,0xc
    2614:	03320000 	0x3320000
    2618:	000017cd 	break	0x0,0x5f
    261c:	0a580333 	j	9600ccc <Interrupt-0xae9ff4b4>
    2620:	03340000 	0x3340000
    2624:	00001000 	sll	v0,zero,0x0
    2628:	0ed30335 	jal	b4c0cd4 <Interrupt-0xacb3f4ac>
    262c:	03360000 	0x3360000
    2630:	00000112 	0x112
    2634:	17b20337 	bne	sp,s2,3314 <Interrupt-0xb7ffce6c>
    2638:	03380000 	0x3380000
    263c:	00000a47 	0xa47
    2640:	0ebf0339 	jal	afc0ce4 <Interrupt-0xad03f49c>
    2644:	033a0000 	0x33a0000
    2648:	00000890 	0x890
    264c:	13b3033b 	beq	sp,s3,333c <Interrupt-0xb7ffce44>
    2650:	033c0000 	0x33c0000
    2654:	00001442 	srl	v0,zero,0x11
    2658:	0eab033d 	jal	aac0cf4 <Interrupt-0xad53f48c>
    265c:	033e0000 	0x33e0000
    2660:	0000087a 	0x87a
    2664:	139d033f 	beq	gp,sp,3364 <Interrupt-0xb7ffce1c>
    2668:	00c00000 	0xc00000
    266c:	00143403 	sra	a2,s4,0x10
    2670:	0300c100 	0x300c100
    2674:	00000e97 	0xe97
    2678:	640300c2 	0x640300c2
    267c:	c3000008 	ll	zero,8(t8)
    2680:	13870300 	beq	gp,a3,3284 <Interrupt-0xb7ffcefc>
    2684:	00c40000 	0xc40000
    2688:	00142603 	sra	a0,s4,0x18
    268c:	0300c500 	0x300c500
    2690:	00000e83 	sra	at,zero,0x1a
    2694:	4e0300c6 	c3	0x300c6
    2698:	c7000008 	lwc1	$f0,8(t8)
    269c:	13710300 	beq	k1,s1,32a0 <Interrupt-0xb7ffcee0>
    26a0:	00c80000 	0xc80000
    26a4:	00141803 	sra	v1,s4,0x0
    26a8:	0300c900 	0x300c900
    26ac:	00000c26 	0xc26
    26b0:	a90300ca 	swl	v1,202(t0)
    26b4:	cb000010 	lwc2	$0,16(t8)
    26b8:	0bbe0300 	j	ef80c00 <Interrupt-0xa907f580>
    26bc:	00cc0000 	0xcc0000
    26c0:	0000a903 	sra	s5,zero,0x4
    26c4:	0300cd00 	0x300cd00
    26c8:	000000c3 	sra	zero,zero,0x3
    26cc:	490300ce 	bc2tl	2a08 <Interrupt-0xb7ffd778>
    26d0:	cf000016 	pref	0x0,22(t8)
    26d4:	165f0300 	bne	s2,ra,32d8 <Interrupt-0xb7ffcea8>
    26d8:	00d00000 	0xd00000
    26dc:	00017703 	sra	t6,at,0x1c
    26e0:	0300d100 	0x300d100
    26e4:	000016ed 	0x16ed
    26e8:	b20300d2 	0xb20300d2
    26ec:	d300000b 	0xd300000b
    26f0:	126a0300 	beq	s3,t2,32f4 <Interrupt-0xb7ffce8c>
    26f4:	00d40000 	0xd40000
    26f8:	0008ad03 	sra	s5,t0,0x14
    26fc:	0300d500 	0x300d500
    2700:	0000048d 	break	0x0,0x12
    2704:	540300d6 	bnel	zero,v1,2a60 <Interrupt-0xb7ffd720>
    2708:	d7000003 	ldc1	$f0,3(t8)
    270c:	04280300 	tgei	at,768
    2710:	00d80000 	0xd80000
    2714:	de010700 	ldc3	$1,1792(s0)
    2718:	01000018 	mult	t0,zero
    271c:	87e40114 	lh	a0,276(ra)
    2720:	88b0b800 	lwl	s0,-18432(a1)
    2724:	139bb800 	beq	gp,k1,ffff0728 <lport_InputArray+0x47bf0728>
    2728:	c4010000 	lwc1	$f1,0(zero)
    272c:	08000002 	j	8 <Interrupt-0xb8000178>
    2730:	01006469 	0x1006469
    2734:	00005d14 	0x5d14
    2738:	00910200 	0x910200
    273c:	5d010700 	0x5d010700
    2740:	01000018 	mult	t0,zero
    2744:	88b0011f 	lwl	s0,287(a1)
    2748:	8900b800 	lwl	zero,-18432(t0)
    274c:	13dfb800 	beq	s8,ra,ffff0750 <lport_InputArray+0x47bf0750>
    2750:	ec010000 	swc3	$1,0(zero)
    2754:	08000002 	j	8 <Interrupt-0xb8000178>
    2758:	01006469 	0x1006469
    275c:	00005d1f 	0x5d1f
    2760:	00910200 	0x910200
    2764:	3d010900 	0x3d010900
    2768:	01000019 	multu	t0,zero
    276c:	005d0126 	0x5d0126
    2770:	89000000 	lwl	zero,0(t0)
    2774:	8974b800 	lwl	s4,-18432(t3)
    2778:	1423b800 	bne	at,v1,ffff077c <lport_InputArray+0x47bf077c>
    277c:	18010000 	0x18010000
    2780:	08000003 	j	c <Interrupt-0xb8000174>
    2784:	01006469 	0x1006469
    2788:	00005d26 	0x5d26
    278c:	00910200 	0x910200
    2790:	55010700 	bnel	t0,at,4394 <Interrupt-0xb7ffbdec>
    2794:	01000019 	multu	t0,zero
    2798:	8974012c 	lwl	s4,300(t3)
    279c:	8a34b800 	lwl	s4,-18432(s1)
    27a0:	1467b800 	bne	v1,a3,ffff07a4 <lport_InputArray+0x47bf07a4>
    27a4:	5c010000 	0x5c010000
    27a8:	08000003 	j	c <Interrupt-0xb8000174>
    27ac:	01006469 	0x1006469
    27b0:	00005d2c 	0x5d2c
    27b4:	00910200 	0x910200
    27b8:	0004220a 	0x4220a
    27bc:	5d2c0100 	0x5d2c0100
    27c0:	02000000 	0x2000000
    27c4:	770b0491 	jalx	c2c1244 <Interrupt-0xabd3ef3c>
    27c8:	01000016 	0x1000016
    27cc:	0000562f 	0x562f
    27d0:	70910200 	0x70910200
    27d4:	62010c00 	0x62010c00
    27d8:	01000019 	multu	t0,zero
    27dc:	00250133 	tltu	at,a1,0x4
    27e0:	8a340000 	lwl	s4,0(s1)
    27e4:	8c50b800 	lw	s0,-18432(v0)
    27e8:	14abb800 	bne	a1,t3,ffff07ec <lport_InputArray+0x47bf07ec>
    27ec:	c0010000 	ll	at,0(zero)
    27f0:	08000003 	j	c <Interrupt-0xb8000174>
    27f4:	01006469 	0x1006469
    27f8:	00005d33 	tltu	zero,zero,0x174
    27fc:	00910200 	0x910200
    2800:	63727308 	0x63727308
    2804:	c0330100 	ll	s3,256(at)
    2808:	02000003 	0x2000003
    280c:	500a0491 	beql	zero,t2,3a54 <Interrupt-0xb7ffc72c>
    2810:	01000019 	multu	t0,zero
    2814:	00005d33 	tltu	zero,zero,0x174
    2818:	08910200 	j	2440800 <Interrupt-0xb5bbf980>
    281c:	001d6f0a 	0x1d6f0a
    2820:	5d330100 	0x5d330100
    2824:	02000000 	0x2000000
    2828:	4f0b0c91 	c3	0x10b0c91
    282c:	01000019 	multu	t0,zero
    2830:	00005645 	0x5645
    2834:	68910200 	0x68910200
    2838:	0c040d00 	jal	103400 <Interrupt-0xb7efcd80>
    283c:	00189f01 	0x189f01
    2840:	015b0100 	0x15b0100
    2844:	00000025 	move	zero,zero
    2848:	b8008c50 	swr	zero,-29616(zero)
    284c:	b8008d18 	swr	zero,-29416(zero)
    2850:	000014ef 	0x14ef
    2854:	00041401 	0x41401
    2858:	64690800 	0x64690800
    285c:	5d5b0100 	0x5d5b0100
    2860:	02000000 	0x2000000
    2864:	c50b0091 	lwc1	$f11,145(t0)
    2868:	01000009 	jalr	zero,t0
    286c:	0000565e 	0x565e
    2870:	70910200 	0x70910200
    2874:	008cb00e 	0x8cb00e
    2878:	008ce0b8 	0x8ce0b8
    287c:	18e80bb8 	0x18e80bb8
    2880:	67010000 	0x67010000
    2884:	0000005d 	0x5d
    2888:	00749102 	0x749102
    288c:	05010c00 	bgez	t0,5890 <Interrupt-0xb7ffa8f0>
    2890:	01000019 	multu	t0,zero
    2894:	0025016e 	0x25016e
    2898:	8d180000 	lw	t8,0(t0)
    289c:	8e24b800 	lw	a0,-18432(s1)
    28a0:	1533b800 	bne	t1,s3,ffff08a4 <lport_InputArray+0x47bf08a4>
    28a4:	6a010000 	0x6a010000
    28a8:	08000004 	j	10 <Interrupt-0xb8000170>
    28ac:	01006469 	0x1006469
    28b0:	00005d6e 	0x5d6e
    28b4:	00910200 	0x910200
    28b8:	74736408 	jalx	1cd9020 <Interrupt-0xb6327160>
    28bc:	c06e0100 	ll	t6,256(v1)
    28c0:	02000003 	0x2000003
    28c4:	490a0491 	bc2fl	$cc2,3b0c <Interrupt-0xb7ffc674>
    28c8:	01000019 	multu	t0,zero
    28cc:	00046a6e 	0x46a6e
    28d0:	08910200 	j	2440800 <Interrupt-0xb5bbf980>
    28d4:	0019500a 	movz	t2,zero,t9
    28d8:	5d6e0100 	0x5d6e0100
    28dc:	02000000 	0x2000000
    28e0:	0f000c91 	jal	c003244 <Interrupt-0xabffcf3c>
    28e4:	00005604 	0x5604
    28e8:	29010c00 	slti	at,t0,3072
    28ec:	01000019 	multu	t0,zero
    28f0:	0025017b 	0x25017b
    28f4:	8e240000 	lw	a0,0(s1)
    28f8:	8f50b800 	lw	s0,-18432(k0)
    28fc:	1577b800 	bne	t3,s7,ffff0900 <lport_InputArray+0x47bf0900>
    2900:	b9010000 	swr	at,0(t0)
    2904:	08000004 	j	10 <Interrupt-0xb8000170>
    2908:	00747364 	0x747364
    290c:	046a7b01 	tlti	v1,31489
    2910:	91020000 	lbu	v0,0(t0)
    2914:	656c0800 	0x656c0800
    2918:	7b01006e 	0x7b01006e
    291c:	000004b9 	0x4b9
    2920:	0b049102 	j	c124408 <Interrupt-0xabedbd78>
    2924:	00001921 	0x1921
    2928:	04bf7d01 	0x4bf7d01
    292c:	91020000 	lbu	v0,0(t0)
    2930:	040f0068 	0x40f0068
    2934:	0000005d 	0x5d
    2938:	00005610 	0x5610
    293c:	0004cf00 	sll	t9,a0,0x1c
    2940:	04cf1100 	0x4cf1100
    2944:	00010000 	sll	zero,at,0x0
    2948:	3d070404 	0x3d070404
    294c:	12000000 	beqz	s0,2950 <Interrupt-0xb7ffd830>
    2950:	000018ef 	0x18ef
    2954:	04bf1101 	0x4bf1101
    2958:	05010000 	bgez	t0,295c <Interrupt-0xb7ffd824>
    295c:	00de4803 	0xde4803
    2960:	18c312b8 	0x18c312b8
    2964:	12010000 	beq	s0,at,2968 <Interrupt-0xb7ffd818>
    2968:	000004bf 	0x4bf
    296c:	50030501 	beql	zero,v1,3d74 <Interrupt-0xb7ffc40c>
    2970:	00b800de 	0xb800de
    2974:	000000b5 	0xb5
    2978:	04260002 	0x4260002
    297c:	01040000 	0x1040000
    2980:	0000043f 	0x43f
    2984:	0019a101 	0x19a101
    2988:	00054600 	sll	t0,a1,0x18
    298c:	008f5000 	0x8f5000
    2990:	0091a8b8 	0x91a8b8
    2994:	000d72b8 	0xd72b8
    2998:	cb010200 	lwc2	$1,512(t8)
    299c:	01000019 	multu	t0,zero
    29a0:	00510103 	0x510103
    29a4:	8f500000 	lw	s0,0(k0)
    29a8:	8fe0b800 	lw	zero,-18432(ra)
    29ac:	15bbb800 	bne	t5,k1,ffff09b0 <lport_InputArray+0x47bf09b0>
    29b0:	51010000 	beql	t0,at,29b4 <Interrupt-0xb7ffd7cc>
    29b4:	03000000 	0x3000000
    29b8:	01006170 	tge	t0,zero,0x185
    29bc:	00005103 	sra	t2,zero,0x4
    29c0:	00910200 	0x910200
    29c4:	07040400 	0x7040400
    29c8:	00001078 	0x1078
    29cc:	19b70105 	0x19b70105
    29d0:	09010000 	j	4040000 <Interrupt-0xb3fc0180>
    29d4:	00005101 	0x5101
    29d8:	008fe000 	0x8fe000
    29dc:	0090b4b8 	0x90b4b8
    29e0:	0015ffb8 	0x15ffb8
    29e4:	00840100 	0x840100
    29e8:	76030000 	jalx	80c0000 <Interrupt-0xaff40180>
    29ec:	09010061 	j	4040184 <Interrupt-0xb3fbfffc>
    29f0:	00000051 	0x51
    29f4:	00009102 	srl	s2,zero,0x4
    29f8:	19850106 	0x19850106
    29fc:	11010000 	beq	t0,at,2a00 <Interrupt-0xb7ffd780>
    2a00:	00005101 	0x5101
    2a04:	0090b400 	0x90b400
    2a08:	00912cb8 	0x912cb8
    2a0c:	001643b8 	0x1643b8
    2a10:	01060100 	0x1060100
    2a14:	00001993 	0x1993
    2a18:	51011901 	beql	t0,at,8e20 <Interrupt-0xb7ff7360>
    2a1c:	2c000000 	sltiu	zero,zero,0
    2a20:	a8b80091 	swl	t8,145(a1)
    2a24:	87b80091 	lh	t8,145(sp)
    2a28:	01000016 	0x1000016
    2a2c:	00006d00 	sll	t5,zero,0x14
    2a30:	a6000200 	sh	zero,512(s0)
    2a34:	04000004 	bltz	zero,2a48 <Interrupt-0xb7ffd738>
    2a38:	000e0001 	0xe0001
    2a3c:	00018000 	sll	s0,at,0x0
    2a40:	00030cb8 	0x30cb8
    2a44:	736972b8 	0x736972b8
    2a48:	6e695f63 	0x6e695f63
    2a4c:	72726574 	0x72726574
    2a50:	5f747075 	0x5f747075
    2a54:	646e6168 	0x646e6168
    2a58:	2e72656c 	sltiu	s2,s3,25964
    2a5c:	3a630073 	xori	v1,s3,0x73
    2a60:	726f775c 	0x726f775c
    2a64:	72705c6b 	0x72705c6b
    2a68:	63656a6f 	0x63656a6f
    2a6c:	356d5f74 	ori	t5,t3,0x5f74
    2a70:	356d5c34 	ori	t5,t3,0x5c34
    2a74:	6c655f34 	0x6c655f34
    2a78:	5c736976 	0x5c736976
    2a7c:	75646f6d 	jalx	591bdb4 <Interrupt-0xb26e43cc>
    2a80:	34355f6c 	ori	s5,at,0x5f6c
    2a84:	5f6a705c 	0x5f6a705c
    2a88:	315f3435 	andi	ra,t2,0x3435
    2a8c:	4e470035 	c3	0x470035
    2a90:	53412055 	beql	k0,at,abe8 <Interrupt-0xb7ff5598>
    2a94:	322e3220 	andi	t6,s1,0x3220
    2a98:	00322e33 	tltu	at,s2,0xb8
    2a9c:	056d8001 	0x56d8001
    2aa0:	00020000 	sll	zero,v0,0x0
    2aa4:	000004ba 	0x4ba
    2aa8:	043f0104 	0x43f0104
    2aac:	df010000 	ldc3	$1,0(t8)
    2ab0:	46000019 	c1	0x19
    2ab4:	a8000005 	swl	zero,5(zero)
    2ab8:	d0b80091 	0xd0b80091
    2abc:	88b800bb 	lwl	t8,187(a1)
    2ac0:	0200000e 	0x200000e
    2ac4:	00001917 	0x1917
    2ac8:	56150304 	bnel	s0,s5,36dc <Interrupt-0xb7ffcaa4>
    2acc:	03000000 	0x3000000
    2ad0:	000018f8 	0x18f8
    2ad4:	18b20300 	0x18b20300
    2ad8:	03010000 	0x3010000
    2adc:	0000188b 	0x188b
    2ae0:	187a0302 	0x187a0302
    2ae4:	03030000 	0x3030000
    2ae8:	000018cc 	syscall	0x63
    2aec:	19730304 	0x19730304
    2af0:	00050000 	sll	zero,a1,0x0
    2af4:	0019fd04 	0x19fd04
    2af8:	61140200 	0x61140200
    2afc:	05000000 	bltz	t0,2b00 <Interrupt-0xb7ffd680>
    2b00:	00006704 	0x6704
    2b04:	73010600 	0x73010600
    2b08:	07000000 	bltz	t8,2b0c <Interrupt-0xb7ffd674>
    2b0c:	00000073 	tltu	zero,zero,0x1
    2b10:	05040800 	0x5040800
    2b14:	00746e69 	0x746e69
    2b18:	19020409 	0x19020409
    2b1c:	000002b2 	tlt	zero,zero,0xa
    2b20:	00159903 	sra	s3,s5,0x4
    2b24:	8a030000 	lwl	v1,0(s0)
    2b28:	01000015 	0x1000015
    2b2c:	00157b03 	sra	t7,s5,0xc
    2b30:	6c030200 	0x6c030200
    2b34:	03000015 	0x3000015
    2b38:	00155d03 	sra	t3,s5,0x14
    2b3c:	4e030400 	c3	0x30400
    2b40:	05000015 	bltz	t0,2b98 <Interrupt-0xb7ffd5e8>
    2b44:	00153f03 	sra	a3,s5,0x1c
    2b48:	30030600 	andi	v1,zero,0x600
    2b4c:	07000015 	bltz	t8,2ba4 <Interrupt-0xb7ffd5dc>
    2b50:	000cb503 	sra	s6,t4,0x14
    2b54:	a8030800 	swl	v1,2048(zero)
    2b58:	0900000c 	j	4000030 <Interrupt-0xb4000150>
    2b5c:	00148603 	sra	s0,s4,0x18
    2b60:	ef030a00 	swc3	$3,2560(t8)
    2b64:	0b000011 	j	c000044 <Interrupt-0xac00013c>
    2b68:	0015c003 	sra	t8,s5,0x0
    2b6c:	53030c00 	beql	t8,v1,5b70 <Interrupt-0xb7ffa610>
    2b70:	0d00000c 	jal	4000030 <Interrupt-0xb4000150>
    2b74:	000fab03 	sra	s5,t7,0xc
    2b78:	c2030e00 	ll	v1,3584(s0)
    2b7c:	0f000008 	jal	c000020 <Interrupt-0xac000160>
    2b80:	00070403 	sra	zero,a3,0x10
    2b84:	49031000 	bc2tl	6b88 <Interrupt-0xb7ff95f8>
    2b88:	1100000d 	beqz	t0,2bc0 <Interrupt-0xb7ffd5c0>
    2b8c:	00067e03 	sra	t7,a2,0x18
    2b90:	c7031200 	lwc1	$f3,4608(t8)
    2b94:	13000001 	beqz	t8,2b9c <Interrupt-0xb7ffd5e4>
    2b98:	0001b603 	sra	s6,at,0x18
    2b9c:	a5031400 	sh	v1,5120(t0)
    2ba0:	15000001 	bnez	t0,2ba8 <Interrupt-0xb7ffd5d8>
    2ba4:	00019403 	sra	s2,at,0x10
    2ba8:	b9031600 	swr	v1,5632(t0)
    2bac:	17000016 	bnez	t8,2c08 <Interrupt-0xb7ffd578>
    2bb0:	0009f803 	sra	ra,t1,0x0
    2bb4:	68031800 	0x68031800
    2bb8:	19000001 	blez	t0,2bc0 <Interrupt-0xb7ffd5c0>
    2bbc:	00015903 	sra	t3,at,0x4
    2bc0:	fb031a00 	sdc2	$3,6656(t8)
    2bc4:	1b000012 	blez	t8,2c10 <Interrupt-0xb7ffd570>
    2bc8:	0012ed03 	sra	sp,s2,0x14
    2bcc:	df031c00 	ldc3	$3,7168(t8)
    2bd0:	1d000012 	bgtz	t0,2c1c <Interrupt-0xb7ffd564>
    2bd4:	0012d103 	sra	k0,s2,0x4
    2bd8:	19031e00 	0x19031e00
    2bdc:	1f00000b 	bgtz	t8,2c0c <Interrupt-0xb7ffd574>
    2be0:	000b0803 	sra	at,t3,0x0
    2be4:	f7032000 	sdc1	$f3,8192(t8)
    2be8:	2100000a 	addi	zero,t0,10
    2bec:	000ae603 	sra	gp,t2,0x18
    2bf0:	d5032200 	ldc1	$f3,8704(t0)
    2bf4:	2300000a 	addi	zero,t8,10
    2bf8:	000ac403 	sra	t8,t2,0x10
    2bfc:	b3032400 	0xb3032400
    2c00:	2500000a 	addiu	zero,t0,10
    2c04:	000aa203 	sra	s4,t2,0x8
    2c08:	48032600 	0x48032600
    2c0c:	27000002 	addiu	zero,t8,2
    2c10:	00023803 	sra	a3,v0,0x0
    2c14:	28032800 	slti	v1,zero,10240
    2c18:	29000002 	slti	zero,t0,2
    2c1c:	00021803 	sra	v1,v0,0x0
    2c20:	08032a00 	j	ca800 <Interrupt-0xb7f35980>
    2c24:	2b000002 	slti	zero,t8,2
    2c28:	0001f803 	sra	ra,at,0x0
    2c2c:	e8032c00 	swc2	$3,11264(zero)
    2c30:	2d000001 	sltiu	zero,t0,1
    2c34:	0001d803 	sra	k1,at,0x0
    2c38:	aa032e00 	swl	v1,11776(s0)
    2c3c:	2f000011 	sltiu	zero,t8,17
    2c40:	00101b03 	sra	v1,s0,0xc
    2c44:	ee033000 	swc3	$3,12288(s0)
    2c48:	3100000e 	andi	zero,t0,0xe
    2c4c:	00012d03 	sra	a1,at,0x14
    2c50:	cd033200 	pref	0x3,12800(t0)
    2c54:	33000017 	andi	zero,t8,0x17
    2c58:	000a5803 	sra	t3,t2,0x0
    2c5c:	00033400 	sll	a2,v1,0x10
    2c60:	35000010 	ori	zero,t0,0x10
    2c64:	000ed303 	sra	k0,t6,0xc
    2c68:	12033600 	beq	s0,v1,1046c <Interrupt-0xb7fefd14>
    2c6c:	37000001 	ori	zero,t8,0x1
    2c70:	0017b203 	sra	s6,s7,0x8
    2c74:	47033800 	c1	0x1033800
    2c78:	3900000a 	xori	zero,t0,0xa
    2c7c:	000ebf03 	sra	s7,t6,0x1c
    2c80:	90033a00 	lbu	v1,14848(zero)
    2c84:	3b000008 	xori	zero,t8,0x8
    2c88:	0013b303 	sra	s6,s3,0xc
    2c8c:	42033c00 	c0	0x33c00
    2c90:	3d000014 	0x3d000014
    2c94:	000eab03 	sra	s5,t6,0xc
    2c98:	7a033e00 	0x7a033e00
    2c9c:	3f000008 	0x3f000008
    2ca0:	00139d03 	sra	s3,s3,0x14
    2ca4:	0300c000 	0x300c000
    2ca8:	00001434 	teq	zero,zero,0x50
    2cac:	970300c1 	lhu	v1,193(t8)
    2cb0:	c200000e 	ll	zero,14(s0)
    2cb4:	08640300 	j	1900c00 <Interrupt-0xb66ff580>
    2cb8:	00c30000 	0xc30000
    2cbc:	00138703 	sra	s0,s3,0x1c
    2cc0:	0300c400 	0x300c400
    2cc4:	00001426 	0x1426
    2cc8:	830300c5 	lb	v1,197(t8)
    2ccc:	c600000e 	lwc1	$f0,14(s0)
    2cd0:	084e0300 	j	1380c00 <Interrupt-0xb6c7f580>
    2cd4:	00c70000 	0xc70000
    2cd8:	00137103 	sra	t6,s3,0x4
    2cdc:	0300c800 	0x300c800
    2ce0:	00001418 	0x1418
    2ce4:	260300c9 	addiu	v1,s0,201
    2ce8:	ca00000c 	lwc2	$0,12(s0)
    2cec:	10a90300 	beq	a1,t1,38f0 <Interrupt-0xb7ffc890>
    2cf0:	00cb0000 	0xcb0000
    2cf4:	000bbe03 	sra	s7,t3,0x18
    2cf8:	0300cc00 	0x300cc00
    2cfc:	000000a9 	0xa9
    2d00:	c30300cd 	ll	v1,205(t8)
    2d04:	ce000000 	pref	0x0,0(s0)
    2d08:	16490300 	bne	s2,t1,390c <Interrupt-0xb7ffc874>
    2d0c:	00cf0000 	0xcf0000
    2d10:	00165f03 	sra	t3,s6,0x1c
    2d14:	0300d000 	0x300d000
    2d18:	00000177 	0x177
    2d1c:	ed0300d1 	swc3	$3,209(t0)
    2d20:	d2000016 	0xd2000016
    2d24:	0bb20300 	j	ec80c00 <Interrupt-0xa937f580>
    2d28:	00d30000 	0xd30000
    2d2c:	00126a03 	sra	t5,s2,0x8
    2d30:	0300d400 	0x300d400
    2d34:	000008ad 	0x8ad
    2d38:	8d0300d5 	lw	v1,213(t0)
    2d3c:	d6000004 	ldc1	$f0,4(s0)
    2d40:	03540300 	0x3540300
    2d44:	00d70000 	0xd70000
    2d48:	00042803 	sra	a1,a0,0x0
    2d4c:	0000d800 	sll	k1,zero,0x0
    2d50:	001b0b04 	0x1b0b04
    2d54:	7a730200 	0x7a730200
    2d58:	09000000 	j	4000000 <Interrupt-0xb4000180>
    2d5c:	de790204 	ldc3	$25,516(s3)
    2d60:	03000002 	0x3000002
    2d64:	00000ba4 	0xba4
    2d68:	17830300 	bne	gp,v1,396c <Interrupt-0xb7ffc814>
    2d6c:	03010000 	0x3010000
    2d70:	00000a05 	0xa05
    2d74:	163b0302 	bne	s1,k1,3980 <Interrupt-0xb7ffc800>
    2d78:	00030000 	sll	zero,v1,0x0
    2d7c:	001a8704 	0x1a8704
    2d80:	bd860200 	cache	0x6,512(t4)
    2d84:	0a000002 	j	8000008 <Interrupt-0xb0000178>
    2d88:	001b1f01 	0x1b1f01
    2d8c:	a8290100 	swl	t1,256(at)
    2d90:	28b80091 	slti	t8,a1,145
    2d94:	cbb80092 	lwc2	$24,146(sp)
    2d98:	01000016 	0x1000016
    2d9c:	0000030f 	sync	0xc
    2da0:	0100690b 	0x100690b
    2da4:	0000732b 	0x732b
    2da8:	70910200 	0x70910200
    2dac:	99010c00 	lwr	at,3072(t0)
    2db0:	0100001a 	div	zero,t0,zero
    2db4:	92280130 	lbu	t0,304(s1)
    2db8:	93d0b800 	lbu	s0,-18432(s8)
    2dbc:	170fb800 	bne	t8,t7,ffff0dc0 <lport_InputArray+0x47bf0dc0>
    2dc0:	46010000 	add.s	$f0,$f0,$f1
    2dc4:	0d000003 	jal	400000c <Interrupt-0xb4000174>
    2dc8:	00636f6c 	0x636f6c
    2dcc:	02de3001 	0x2de3001
    2dd0:	91020000 	lbu	v0,0(t0)
    2dd4:	1a0c0e00 	0x1a0c0e00
    2dd8:	32010000 	andi	at,s0,0x0
    2ddc:	00000346 	0x346
    2de0:	00709102 	0x709102
    2de4:	7807040f 	0x7807040f
    2de8:	10000010 	b	2e2c <Interrupt-0xb7ffd354>
    2dec:	00001ab4 	teq	zero,zero,0x6a
    2df0:	d0015901 	0xd0015901
    2df4:	0cb80093 	jal	2e0024c <Interrupt-0xb51fff34>
    2df8:	53b80095 	beql	sp,t8,3050 <Interrupt-0xb7ffd130>
    2dfc:	01000017 	0x1000017
    2e00:	000003ac 	0x3ac
    2e04:	001b0011 	0x1b0011
    2e08:	46590100 	c1	0x590100
    2e0c:	02000003 	0x2000003
    2e10:	58110091 	0x58110091
    2e14:	01000018 	mult	t0,zero
    2e18:	00034659 	0x34659
    2e1c:	04910200 	bgezal	a0,3620 <Interrupt-0xb7ffcb60>
    2e20:	6765720d 	0x6765720d
    2e24:	73590100 	0x73590100
    2e28:	02000000 	0x2000000
    2e2c:	e20e0891 	sc	t6,2193(s0)
    2e30:	0100000c 	syscall	0x40000
    2e34:	0003465b 	0x3465b
    2e38:	70910200 	0x70910200
    2e3c:	0074730b 	0x74730b
    2e40:	03465b01 	0x3465b01
    2e44:	91020000 	lbu	v0,0(t0)
    2e48:	11100074 	beq	t0,s0,301c <Interrupt-0xb7ffd164>
    2e4c:	0100001a 	div	zero,t0,zero
    2e50:	950c0165 	lhu	t4,357(t0)
    2e54:	962cb800 	lhu	t4,-18432(s1)
    2e58:	1797b800 	bne	gp,s7,ffff0e5c <lport_InputArray+0x47bf0e5c>
    2e5c:	e2010000 	sc	at,0(s0)
    2e60:	11000003 	beqz	t0,2e70 <Interrupt-0xb7ffd310>
    2e64:	00001858 	0x1858
    2e68:	03466501 	0x3466501
    2e6c:	91020000 	lbu	v0,0(t0)
    2e70:	65720d00 	0x65720d00
    2e74:	65010067 	0x65010067
    2e78:	00000073 	tltu	zero,zero,0x1
    2e7c:	00049102 	srl	s2,a0,0x4
    2e80:	1a1e0112 	0x1a1e0112
    2e84:	6c010000 	0x6c010000
    2e88:	00962c01 	0x962c01
    2e8c:	009f20b8 	0x9f20b8
    2e90:	0017dbb8 	0x17dbb8
    2e94:	04190100 	0x4190100
    2e98:	6f110000 	0x6f110000
    2e9c:	0100001d 	0x100001d
    2ea0:	0002b26c 	0x2b26c
    2ea4:	00910200 	0x910200
    2ea8:	000ce20e 	0xce20e
    2eac:	466e0100 	c1	0x6e0100
    2eb0:	02000003 	0x2000003
    2eb4:	13007091 	beqz	t8,1f0fc <Interrupt-0xb7fe1084>
    2eb8:	001ad501 	0x1ad501
    2ebc:	01680100 	0x1680100
    2ec0:	009f2001 	0x9f2001
    2ec4:	00a6ccb8 	0xa6ccb8
    2ec8:	00181fb8 	0x181fb8
    2ecc:	04530100 	bgezall	v0,32d0 <Interrupt-0xb7ffceb0>
    2ed0:	6f140000 	0x6f140000
    2ed4:	0100001d 	0x100001d
    2ed8:	02b20168 	0x2b20168
    2edc:	91020000 	lbu	v0,0(t0)
    2ee0:	0ce21500 	jal	3885400 <Interrupt-0xb477ad80>
    2ee4:	6a010000 	0x6a010000
    2ee8:	00034601 	0x34601
    2eec:	70910200 	0x70910200
    2ef0:	bd011600 	cache	0x1,5632(t0)
    2ef4:	0100001a 	div	zero,t0,zero
    2ef8:	a6cc025f 	sh	t4,607(s6)
    2efc:	a71cb800 	sh	gp,-18432(t8)
    2f00:	1863b800 	0x1863b800
    2f04:	7d010000 	0x7d010000
    2f08:	15000004 	bnez	t0,2f1c <Interrupt-0xb7ffd264>
    2f0c:	00000ce2 	0xce2
    2f10:	46026101 	sub.s	$f4,$f12,$f2
    2f14:	02000003 	0x2000003
    2f18:	16007091 	bnez	s0,1f160 <Interrupt-0xb7fe1020>
    2f1c:	001a7001 	0x1a7001
    2f20:	02670100 	0x2670100
    2f24:	b800a71c 	swr	zero,-22756(zero)
    2f28:	b800a768 	swr	zero,-22680(zero)
    2f2c:	000018a7 	0x18a7
    2f30:	0004a701 	0x4a701
    2f34:	0ce21500 	jal	3885400 <Interrupt-0xb477ad80>
    2f38:	69010000 	0x69010000
    2f3c:	00034602 	srl	t0,v1,0x18
    2f40:	70910200 	0x70910200
    2f44:	34011700 	li	at,0x1700
    2f48:	0100001a 	div	zero,t0,zero
    2f4c:	2501026f 	addiu	at,t0,623
    2f50:	68000000 	0x68000000
    2f54:	e4b800a7 	swc1	$f24,167(a1)
    2f58:	ebb800a7 	swc2	$24,167(sp)
    2f5c:	01000018 	mult	t0,zero
    2f60:	000004e4 	0x4e4
    2f64:	006e6618 	0x6e6618
    2f68:	56026f01 	bnel	s0,v0,1eb70 <Interrupt-0xb7fe1610>
    2f6c:	02000000 	0x2000000
    2f70:	6f140091 	0x6f140091
    2f74:	0100001d 	0x100001d
    2f78:	02b2026f 	0x2b2026f
    2f7c:	91020000 	lbu	v0,0(t0)
    2f80:	4c190004 	mfc3	t9,$0,4
    2f84:	0100001a 	div	zero,t0,zero
    2f88:	73010279 	0x73010279
    2f8c:	e4000000 	swc1	$f0,0(zero)
    2f90:	60b800a7 	0x60b800a7
    2f94:	2fb800b7 	sltiu	t8,sp,183
    2f98:	01000019 	multu	t0,zero
    2f9c:	00000510 	0x510
    2fa0:	01007618 	0x1007618
    2fa4:	03460279 	0x3460279
    2fa8:	91020000 	lbu	v0,0(t0)
    2fac:	011a0000 	0x11a0000
    2fb0:	00001aec 	0x1aec
    2fb4:	6002e701 	0x6002e701
    2fb8:	d0b800b7 	0xd0b800b7
    2fbc:	73b800bb 	0x73b800bb
    2fc0:	01000019 	multu	t0,zero
    2fc4:	00000547 	0x547
    2fc8:	0100761b 	0x100761b
    2fcc:	034602e9 	0x34602e9
    2fd0:	91020000 	lbu	v0,0(t0)
    2fd4:	1a6a1570 	0x1a6a1570
    2fd8:	ea010000 	swc2	$1,0(s0)
    2fdc:	00007302 	srl	t6,zero,0xc
    2fe0:	74910200 	jalx	2440800 <Interrupt-0xb5bbf980>
    2fe4:	00561c00 	0x561c00
    2fe8:	05570000 	0x5570000
    2fec:	571d0000 	bnel	t8,sp,2ff0 <Interrupt-0xb7ffd190>
    2ff0:	58000005 	blezl	zero,3008 <Interrupt-0xb7ffd178>
    2ff4:	07040f00 	0x7040f00
    2ff8:	0000003d 	0x3d
    2ffc:	001a5b1e 	0x1a5b1e
    3000:	47110100 	c1	0x1110100
    3004:	01000005 	0x1000005
    3008:	cd380305 	pref	0x18,773(t1)
    300c:	1c00b800 	bgtz	zero,ffff1010 <lport_InputArray+0x47bf1010>
    3010:	02000003 	0x2000003
    3014:	0006ae00 	sll	s5,a2,0x18
    3018:	3f010400 	0x3f010400
    301c:	01000004 	sllv	zero,zero,t0
    3020:	00001b49 	0x1b49
    3024:	00000546 	0x546
    3028:	b800bbd0 	swr	zero,-17456(zero)
    302c:	b800bfb0 	swr	zero,-16464(zero)
    3030:	000014c1 	0x14c1
    3034:	0006e302 	srl	gp,a2,0xc
    3038:	03021000 	0x3021000
    303c:	00000068 	0x68
    3040:	52534303 	beql	s2,s3,13c50 <Interrupt-0xb7fec530>
    3044:	68040200 	0x68040200
    3048:	02000000 	0x2000000
    304c:	43030023 	c0	0x1030023
    3050:	05020050 	bltzl	t0,3194 <Interrupt-0xb7ffcfec>
    3054:	00000068 	0x68
    3058:	03042302 	0x3042302
    305c:	02005249 	0x2005249
    3060:	00006806 	srlv	t5,zero,zero
    3064:	08230200 	j	8c0800 <Interrupt-0xb773f980>
    3068:	4e555203 	c3	0x555203
    306c:	68070200 	0x68070200
    3070:	02000000 	0x2000000
    3074:	04000c23 	bltz	zero,6104 <Interrupt-0xb7ffa07c>
    3078:	0000006d 	0x6d
    307c:	78070405 	0x78070405
    3080:	02000010 	0x2000010
    3084:	000011d3 	0x11d3
    3088:	9d0a0208 	0x9d0a0208
    308c:	06000000 	bltz	s0,3090 <Interrupt-0xb7ffd0f0>
    3090:	000011e2 	0x11e2
    3094:	009d0b02 	0x9d0b02
    3098:	23020000 	addi	v0,t8,0
    309c:	12140600 	beq	s0,s4,48a0 <Interrupt-0xb7ffb8e0>
    30a0:	0c020000 	jal	80000 <Interrupt-0xb7f80180>
    30a4:	000000a8 	0xa8
    30a8:	00042302 	srl	a0,a0,0xc
    30ac:	00a30407 	0xa30407
    30b0:	25040000 	addiu	a0,t0,0
    30b4:	08000000 	j	0 <Interrupt-0xb8000180>
    30b8:	6e690504 	0x6e690504
    30bc:	01090074 	teq	t0,t1,0x1
    30c0:	00001b55 	0x1b55
    30c4:	d0010a01 	0xd0010a01
    30c8:	0cb800bb 	jal	2e002ec <Interrupt-0xb51ffe94>
    30cc:	b7b800bc 	0xb7b800bc
    30d0:	01000019 	multu	t0,zero
    30d4:	000000d8 	0xd8
    30d8:	7274700a 	0x7274700a
    30dc:	d80a0100 	ldc2	$10,256(zero)
    30e0:	02000000 	0x2000000
    30e4:	07000091 	bltz	t8,332c <Interrupt-0xb7ffce54>
    30e8:	00007404 	0x7404
    30ec:	f5010900 	sdc1	$f1,2304(t0)
    30f0:	0100001b 	divu	zero,t0,zero
    30f4:	bc0c010f 	cache	0xc,271(zero)
    30f8:	bc48b800 	cache	0x8,-18432(v0)
    30fc:	19fbb800 	0x19fbb800
    3100:	07010000 	bgez	t8,3104 <Interrupt-0xb7ffd07c>
    3104:	0a000001 	j	8000004 <Interrupt-0xb000017c>
    3108:	00727470 	tge	v1,s2,0x1d1
    310c:	00d80f01 	0xd80f01
    3110:	91020000 	lbu	v0,0(t0)
    3114:	01090000 	0x1090000
    3118:	00001bb8 	0x1bb8
    311c:	48011401 	0x48011401
    3120:	84b800bc 	lh	t8,188(a1)
    3124:	3fb800bc 	0x3fb800bc
    3128:	0100001a 	div	zero,t0,zero
    312c:	00000130 	tge	zero,zero,0x4
    3130:	7274700a 	0x7274700a
    3134:	d8140100 	ldc2	$20,256(zero)
    3138:	02000000 	0x2000000
    313c:	09000091 	j	4000244 <Interrupt-0xb3ffff3c>
    3140:	001b8a01 	0x1b8a01
    3144:	01190100 	0x1190100
    3148:	b800bc84 	swr	zero,-17276(zero)
    314c:	b800bcc0 	swr	zero,-17216(zero)
    3150:	00001a83 	sra	v1,zero,0xa
    3154:	00015901 	0x15901
    3158:	74700a00 	jalx	1c02800 <Interrupt-0xb63fd980>
    315c:	19010072 	0x19010072
    3160:	000000d8 	0xd8
    3164:	00009102 	srl	s2,zero,0x4
    3168:	1be8010b 	0x1be8010b
    316c:	1e010000 	0x1e010000
    3170:	0000a801 	movf	s5,zero,$fcc0
    3174:	00bcc000 	0xbcc000
    3178:	00be00b8 	0xbe00b8
    317c:	001ac7b8 	0x1ac7b8
    3180:	01cb0100 	0x1cb0100
    3184:	9d0c0000 	0x9d0c0000
    3188:	0100001b 	divu	zero,t0,zero
    318c:	0000d81e 	0xd81e
    3190:	00910200 	0x910200
    3194:	001b3d0c 	syscall	0x6cf4
    3198:	cb1e0100 	lwc2	$30,256(t8)
    319c:	02000001 	movf	zero,s0,$fcc0
    31a0:	cb0c0491 	lwc2	$12,1169(t8)
    31a4:	0100001b 	divu	zero,t0,zero
    31a8:	00006d1e 	0x6d1e
    31ac:	08910200 	j	2440800 <Interrupt-0xb5bbf980>
    31b0:	006e770a 	0x6e770a
    31b4:	00a81e01 	0xa81e01
    31b8:	91020000 	lbu	v0,0(t0)
    31bc:	1b420c0c 	0x1b420c0c
    31c0:	1e010000 	0x1e010000
    31c4:	000000a8 	0xa8
    31c8:	0d109102 	jal	4424408 <Interrupt-0xb3bdbd78>
    31cc:	00001b34 	teq	zero,zero,0x6c
    31d0:	00a81f01 	0xa81f01
    31d4:	91020000 	lbu	v0,0(t0)
    31d8:	040e0068 	tnei	zero,104
    31dc:	18e8010f 	0x18e8010f
    31e0:	29010000 	slti	at,t0,0
    31e4:	0000a801 	movf	s5,zero,$fcc0
    31e8:	00be0000 	0xbe0000
    31ec:	00be50b8 	0xbe50b8
    31f0:	001b0bb8 	0x1b0bb8
    31f4:	01fa0100 	0x1fa0100
    31f8:	9d0c0000 	0x9d0c0000
    31fc:	0100001b 	divu	zero,t0,zero
    3200:	0000d829 	0xd829
    3204:	00910200 	0x910200
    3208:	74010b00 	jalx	42c00 <Interrupt-0xb7fbd580>
    320c:	0100001b 	divu	zero,t0,zero
    3210:	00a8012e 	0xa8012e
    3214:	be500000 	cache	0x10,0(s2)
    3218:	bea4b800 	cache	0x4,-18432(s5)
    321c:	1b4fb800 	0x1b4fb800
    3220:	27010000 	addiu	at,t8,0
    3224:	0c000002 	jal	8 <Interrupt-0xb8000178>
    3228:	00001b9d 	0x1b9d
    322c:	00d82e01 	0xd82e01
    3230:	91020000 	lbu	v0,0(t0)
    3234:	010f0000 	0x10f0000
    3238:	00001bb2 	tlt	zero,zero,0x6e
    323c:	a8013401 	swl	at,13313(zero)
    3240:	a4000000 	sh	zero,0(zero)
    3244:	ecb800be 	swc3	$24,190(a1)
    3248:	93b800be 	lbu	t8,190(sp)
    324c:	0100001b 	divu	zero,t0,zero
    3250:	00000254 	0x254
    3254:	001b9d0c 	syscall	0x6e74
    3258:	d8340100 	ldc2	$20,256(at)
    325c:	02000000 	0x2000000
    3260:	0b000091 	j	c000244 <Interrupt-0xabffff3c>
    3264:	001b8101 	0x1b8101
    3268:	01390100 	0x1390100
    326c:	000000a8 	0xa8
    3270:	b800beec 	swr	zero,-16660(zero)
    3274:	b800bf68 	swr	zero,-16536(zero)
    3278:	00001bd7 	0x1bd7
    327c:	0002aa01 	0x2aa01
    3280:	1b9d0c00 	0x1b9d0c00
    3284:	39010000 	xori	at,t0,0x0
    3288:	000000d8 	0xd8
    328c:	0c009102 	jal	24408 <Interrupt-0xb7fdbd78>
    3290:	00001b3d 	0x1b3d
    3294:	01cb3901 	0x1cb3901
    3298:	91020000 	lbu	v0,0(t0)
    329c:	1bcb0c04 	0x1bcb0c04
    32a0:	39010000 	xori	at,t0,0x0
    32a4:	0000006d 	0x6d
    32a8:	0a089102 	j	8224408 <Interrupt-0xafddbd78>
    32ac:	01006e77 	0x1006e77
    32b0:	0000a839 	0xa839
    32b4:	0c910200 	jal	2440800 <Interrupt-0xb5bbf980>
    32b8:	a5010f00 	sh	at,3840(t0)
    32bc:	0100001b 	divu	zero,t0,zero
    32c0:	006d013e 	0x6d013e
    32c4:	bf680000 	cache	0x8,0(k1)
    32c8:	bfb0b800 	cache	0x10,-18432(sp)
    32cc:	1c1bb800 	0x1c1bb800
    32d0:	d7010000 	ldc1	$f1,0(t8)
    32d4:	0c000002 	jal	8 <Interrupt-0xb8000178>
    32d8:	00001b9d 	0x1b9d
    32dc:	00d83e01 	0xd83e01
    32e0:	91020000 	lbu	v0,0(t0)
    32e4:	dc100000 	ldc3	$16,0(zero)
    32e8:	0100001b 	divu	zero,t0,zero
    32ec:	0000d805 	0xd805
    32f0:	03050100 	0x3050100
    32f4:	b800db60 	swr	zero,-9376(zero)
    32f8:	001b6810 	0x1b6810
    32fc:	d8060100 	ldc2	$6,256(zero)
    3300:	01000000 	0x1000000
    3304:	db700305 	ldc2	$16,773(k1)
    3308:	d010b800 	0xd010b800
    330c:	0100001b 	divu	zero,t0,zero
    3310:	0000d807 	srav	k1,zero,zero
    3314:	03050100 	0x3050100
    3318:	b800db7c 	swr	zero,-9348(zero)
    331c:	001c0810 	0x1c0810
    3320:	d8080100 	ldc2	$8,256(zero)
    3324:	01000000 	0x1000000
    3328:	db740305 	ldc2	$20,773(k1)
    332c:	ef00b800 	swc3	$0,-18432(t8)
    3330:	02000005 	0x2000005
    3334:	0007ac00 	sll	s5,a3,0x10
    3338:	34010400 	li	at,0x400
    333c:	0100001c 	0x100001c
    3340:	00001df1 	tgeu	zero,zero,0x77
    3344:	00001d74 	teq	zero,zero,0x75
    3348:	b800bfb0 	swr	zero,-16464(zero)
    334c:	b800c47c 	swr	zero,-15236(zero)
    3350:	0000155e 	0x155e
    3354:	6e070802 	0x6e070802
    3358:	02000010 	0x2000010
    335c:	10780704 	beq	v1,t8,4f70 <Interrupt-0xb7ffb210>
    3360:	04030000 	bgezl	zero,3364 <Interrupt-0xb7ffce1c>
    3364:	746e6905 	jalx	1b9a414 <Interrupt-0xb6465d6c>
    3368:	08010200 	j	40800 <Interrupt-0xb7fbf980>
    336c:	00000538 	0x538
    3370:	41060102 	0x41060102
    3374:	02000005 	0x2000005
    3378:	053a0601 	0x53a0601
    337c:	02020000 	0x2020000
    3380:	000d7205 	0xd7205
    3384:	07020200 	bltzl	t8,3b88 <Interrupt-0xb7ffc5f8>
    3388:	000016a6 	0x16a6
    338c:	001d4504 	0x1d4504
    3390:	33810200 	andi	at,gp,0x200
    3394:	04000000 	bltz	zero,3398 <Interrupt-0xb7ffcde8>
    3398:	00001d44 	0x1d44
    339c:	002c8202 	ror	s0,t4,0x8
    33a0:	6d040000 	0x6d040000
    33a4:	0200001d 	0x200001d
    33a8:	00007e85 	0x7e85
    33ac:	05080200 	tgei	t0,512
    33b0:	00000b96 	0xb96
    33b4:	001d6c04 	0x1d6c04
    33b8:	25860200 	addiu	a2,t4,512
    33bc:	02000000 	0x2000000
    33c0:	1d5c0404 	0x1d5c0404
    33c4:	08020000 	j	80000 <Interrupt-0xb7f80180>
    33c8:	001d5403 	sra	t2,sp,0x10
    33cc:	04080200 	tgei	zero,512
    33d0:	00000f61 	0xf61
    33d4:	18031002 	0x18031002
    33d8:	0500001e 	bltz	t0,3454 <Interrupt-0xb7ffcd2c>
    33dc:	00001e27 	0x1e27
    33e0:	01e30208 	0x1e30208
    33e4:	000000d8 	0xd8
    33e8:	776f6c06 	jalx	dbdb018 <Interrupt-0xaa425168>
    33ec:	01e30200 	0x1e30200
    33f0:	0000005d 	0x5d
    33f4:	07002302 	bltz	t8,c000 <Interrupt-0xb7ff4180>
    33f8:	00000b7b 	0xb7b
    33fc:	5d01e302 	0x5d01e302
    3400:	02000000 	0x2000000
    3404:	08000423 	j	108c <Interrupt-0xb7fff0f4>
    3408:	01ea0208 	0x1ea0208
    340c:	000000f7 	0xf7
    3410:	02007309 	0x2007309
    3414:	00ac01ec 	0xac01ec
    3418:	6c090000 	0x6c090000
    341c:	ed02006c 	swc3	$2,108(t0)
    3420:	00007301 	0x7301
    3424:	4c0a0000 	mfc3	t2,$0
    3428:	0200001d 	0x200001d
    342c:	00d801ee 	0xd801ee
    3430:	270b0000 	addiu	t3,t8,0
    3434:	0100001c 	0x100001c
    3438:	85010386 	lh	at,902(t0)
    343c:	03000000 	0x3000000
    3440:	00000387 	0x387
    3444:	01006e0c 	syscall	0x401b8
    3448:	00850386 	0x850386
    344c:	640c0000 	0x640c0000
    3450:	03860100 	0x3860100
    3454:	00000085 	0x85
    3458:	0070720c 	syscall	0x1c1c8
    345c:	87038601 	lh	v1,-31231(t8)
    3460:	0d000003 	jal	400000c <Interrupt-0xb4000174>
    3464:	01006e6e 	0x1006e6e
    3468:	038d0388 	0x38d0388
    346c:	640d0000 	0x640d0000
    3470:	89010064 	lwl	at,100(t0)
    3474:	00038d03 	sra	s1,v1,0x14
    3478:	72720d00 	0x72720d00
    347c:	038a0100 	0x38a0100
    3480:	000000f7 	0xf7
    3484:	0030640d 	break	0x30,0x190
    3488:	68038b01 	0x68038b01
    348c:	0d000000 	jal	4000000 <Interrupt-0xb4000180>
    3490:	01003164 	0x1003164
    3494:	0068038b 	0x68038b
    3498:	6e0d0000 	0x6e0d0000
    349c:	8b010030 	lwl	at,48(t8)
    34a0:	00006803 	sra	t5,zero,0x0
    34a4:	316e0d00 	andi	t6,t3,0xd00
    34a8:	038b0100 	0x38b0100
    34ac:	00000068 	0x68
    34b0:	00326e0d 	break	0x32,0x1b8
    34b4:	68038b01 	0x68038b01
    34b8:	0d000000 	jal	4000000 <Interrupt-0xb4000180>
    34bc:	01003071 	tgeu	t0,zero,0xc1
    34c0:	0068038c 	syscall	0x1a00e
    34c4:	710d0000 	madd	t0,t5
    34c8:	8c010031 	lw	at,49(zero)
    34cc:	00006803 	sra	t5,zero,0x0
    34d0:	00620d00 	0x620d00
    34d4:	68038d01 	0x68038d01
    34d8:	0d000000 	jal	4000000 <Interrupt-0xb4000180>
    34dc:	01006d62 	0x1006d62
    34e0:	0068038d 	break	0x68,0xe
    34e4:	770d0000 	jalx	c340000 <Interrupt-0xabcc0180>
    34e8:	56010077 	bnel	s0,at,36c8 <Interrupt-0xb7ffcab8>
    34ec:	00038d04 	0x38d04
    34f0:	021c0e00 	0x21c0e00
    34f4:	ec0f0000 	swc3	$15,0(zero)
    34f8:	0100001d 	0x100001d
    34fc:	006803c9 	0x6803c9
    3500:	e70f0000 	swc1	$f15,0(t8)
    3504:	0100001d 	0x100001d
    3508:	006803c9 	0x6803c9
    350c:	670f0000 	0x670f0000
    3510:	0100001d 	0x100001d
    3514:	006803c9 	0x6803c9
    3518:	620f0000 	0x620f0000
    351c:	0100001d 	0x100001d
    3520:	006803c9 	0x6803c9
    3524:	220f0000 	addi	t7,s0,0
    3528:	0100001c 	0x100001c
    352c:	006803c9 	0x6803c9
    3530:	1d0f0000 	0x1d0f0000
    3534:	0100001c 	0x100001c
    3538:	006803c9 	0x6803c9
    353c:	5f0d0000 	0x5f0d0000
    3540:	01006d5f 	0x1006d5f
    3544:	006803c9 	0x6803c9
    3548:	0e000000 	jal	8000000 <Interrupt-0xb0000180>
    354c:	00000276 	tne	zero,zero,0x9
    3550:	001dec0f 	0x1dec0f
    3554:	03ee0100 	0x3ee0100
    3558:	00000068 	0x68
    355c:	001de70f 	0x1de70f
    3560:	03ee0100 	0x3ee0100
    3564:	00000068 	0x68
    3568:	001d670f 	0x1d670f
    356c:	03ee0100 	0x3ee0100
    3570:	00000068 	0x68
    3574:	001d620f 	0x1d620f
    3578:	03ee0100 	0x3ee0100
    357c:	00000068 	0x68
    3580:	001c220f 	0x1c220f
    3584:	03ee0100 	0x3ee0100
    3588:	00000068 	0x68
    358c:	001c1d0f 	0x1c1d0f
    3590:	03ee0100 	0x3ee0100
    3594:	00000068 	0x68
    3598:	6d5f5f0d 	0x6d5f5f0d
    359c:	03ee0100 	0x3ee0100
    35a0:	00000068 	0x68
    35a4:	02d00e00 	0x2d00e00
    35a8:	ec0f0000 	swc3	$15,0(zero)
    35ac:	0100001d 	0x100001d
    35b0:	006803f3 	tltu	v1,t0,0xf
    35b4:	e70f0000 	swc1	$f15,0(t8)
    35b8:	0100001d 	0x100001d
    35bc:	006803f3 	tltu	v1,t0,0xf
    35c0:	670f0000 	0x670f0000
    35c4:	0100001d 	0x100001d
    35c8:	006803f3 	tltu	v1,t0,0xf
    35cc:	620f0000 	0x620f0000
    35d0:	0100001d 	0x100001d
    35d4:	006803f3 	tltu	v1,t0,0xf
    35d8:	220f0000 	addi	t7,s0,0
    35dc:	0100001c 	0x100001c
    35e0:	006803f3 	tltu	v1,t0,0xf
    35e4:	1d0f0000 	0x1d0f0000
    35e8:	0100001c 	0x100001c
    35ec:	006803f3 	tltu	v1,t0,0xf
    35f0:	5f0d0000 	0x5f0d0000
    35f4:	01006d5f 	0x1006d5f
    35f8:	006803f3 	tltu	v1,t0,0xf
    35fc:	0e000000 	jal	8000000 <Interrupt-0xb0000180>
    3600:	000002e2 	0x2e2
    3604:	785f5f0d 	0x785f5f0d
    3608:	04240100 	0x4240100
    360c:	00000068 	0x68
    3610:	6d0d1000 	0x6d0d1000
    3614:	34010031 	li	at,0x31
    3618:	00006804 	sllv	t5,zero,zero
    361c:	306d0d00 	andi	t5,v1,0xd00
    3620:	04340100 	0x4340100
    3624:	00000068 	0x68
    3628:	0003530e 	0x3530e
    362c:	1dec0f00 	0x1dec0f00
    3630:	3f010000 	0x3f010000
    3634:	00006804 	sllv	t5,zero,zero
    3638:	1de70f00 	0x1de70f00
    363c:	3f010000 	0x3f010000
    3640:	00006804 	sllv	t5,zero,zero
    3644:	1d670f00 	0x1d670f00
    3648:	3f010000 	0x3f010000
    364c:	00006804 	sllv	t5,zero,zero
    3650:	1d620f00 	0x1d620f00
    3654:	3f010000 	0x3f010000
    3658:	00006804 	sllv	t5,zero,zero
    365c:	1c220f00 	0x1c220f00
    3660:	3f010000 	0x3f010000
    3664:	00006804 	sllv	t5,zero,zero
    3668:	1c1d0f00 	0x1c1d0f00
    366c:	3f010000 	0x3f010000
    3670:	00006804 	sllv	t5,zero,zero
    3674:	5f5f0d00 	0x5f5f0d00
    3678:	3f01006d 	0x3f01006d
    367c:	00006804 	sllv	t5,zero,zero
    3680:	650e0000 	0x650e0000
    3684:	0d000003 	jal	400000c <Interrupt-0xb4000174>
    3688:	00785f5f 	0x785f5f
    368c:	85044001 	lh	a0,16385(t0)
    3690:	00000000 	nop
    3694:	0003770e 	0x3770e
    3698:	5f5f0d00 	0x5f5f0d00
    369c:	45010078 	bc1t	3880 <Interrupt-0xb7ffc900>
    36a0:	00006804 	sllv	t5,zero,zero
    36a4:	0d100000 	jal	4400000 <Interrupt-0xb3c00180>
    36a8:	00785f5f 	0x785f5f
    36ac:	68044d01 	0x68044d01
    36b0:	00000000 	nop
    36b4:	04110000 	bal	36b8 <Interrupt-0xb7ffcac8>
    36b8:	00000085 	0x85
    36bc:	0000f712 	0xf712
    36c0:	14011300 	bne	zero,at,82c4 <Interrupt-0xb7ff7ebc>
    36c4:	0100001c 	0x100001c
    36c8:	7301045d 	0x7301045d
    36cc:	b0000000 	0xb0000000
    36d0:	7cb800bf 	0x7cb800bf
    36d4:	02b800c4 	0x2b800c4
    36d8:	1401008d 	bne	zero,at,3910 <Interrupt-0xb7ffc870>
    36dc:	5d010075 	0x5d010075
    36e0:	00007304 	0x7304
    36e4:	001c5f00 	sll	t3,gp,0x1c
    36e8:	00761400 	0x761400
    36ec:	73045d01 	0x73045d01
    36f0:	87000000 	lh	zero,0(t8)
    36f4:	1500001c 	bnez	t0,3768 <Interrupt-0xb7ffca18>
    36f8:	5f010063 	0x5f010063
    36fc:	00005d04 	0x5d04
    3700:	001d0f00 	sll	at,sp,0x1c
    3704:	75751500 	jalx	5d45400 <Interrupt-0xb22bad80>
    3708:	04600100 	bltz	v1,3b0c <Interrupt-0xb7ffc674>
    370c:	000000f7 	0xf7
    3710:	00001d3b 	0x1d3b
    3714:	00767615 	0x767615
    3718:	f7046101 	sdc1	$f4,24833(t8)
    371c:	c3000000 	ll	zero,0(t8)
    3720:	1500001d 	bnez	t0,3798 <Interrupt-0xb7ffc9e8>
    3724:	62010077 	0x62010077
    3728:	00007304 	0x7304
    372c:	001e1b00 	sll	v1,s8,0xc
    3730:	01031600 	0x1031600
    3734:	bff40000 	cache	0x14,0(ra)
    3738:	c45cb800 	lwc1	$f28,-18432(v0)
    373c:	6b01b800 	0x6b01b800
    3740:	01291704 	0x1291704
    3744:	18000000 	blez	zero,3748 <Interrupt-0xb7ffca38>
    3748:	0000011f 	0x11f
    374c:	00001e43 	sra	v1,zero,0x19
    3750:	00011518 	0x11518
    3754:	001eab00 	sll	s5,s8,0xc
    3758:	bff41900 	cache	0x14,6400(ra)
    375c:	c45cb800 	lwc1	$f28,-18432(v0)
    3760:	341ab800 	li	k0,0xb800
    3764:	1a000001 	blez	s0,376c <Interrupt-0xb7ffca14>
    3768:	0000013f 	0x13f
    376c:	00014a1a 	0x14a1a
    3770:	01551b00 	0x1551b00
    3774:	1f830000 	0x1f830000
    3778:	601b0000 	0x601b0000
    377c:	29000001 	slti	zero,t0,1
    3780:	1b000020 	blez	t8,3804 <Interrupt-0xb7ffc97c>
    3784:	0000016b 	0x16b
    3788:	00002073 	tltu	zero,zero,0x81
    378c:	0001761b 	0x1761b
    3790:	00210400 	0x210400
    3794:	01811b00 	0x1811b00
    3798:	219b0000 	addi	k1,t4,0
    379c:	8c1b0000 	lw	k1,0(zero)
    37a0:	b9000001 	swr	zero,1(t0)
    37a4:	1b000021 	blez	t8,382c <Interrupt-0xb7ffc954>
    37a8:	00000197 	0x197
    37ac:	000021fb 	0x21fb
    37b0:	0001a21b 	0x1a21b
    37b4:	00223f00 	0x223f00
    37b8:	01ac1b00 	0x1ac1b00
    37bc:	228d0000 	addi	t5,s4,0
    37c0:	b71a0000 	0xb71a0000
    37c4:	1c000001 	bgtz	zero,37cc <Interrupt-0xb7ffc9b4>
    37c8:	b800c038 	swr	zero,-16328(zero)
    37cc:	b800c0fc 	swr	zero,-16132(zero)
    37d0:	000004e5 	0x4e5
    37d4:	0001c71b 	0x1c71b
    37d8:	0022e200 	0x22e200
    37dc:	01d31b00 	0x1d31b00
    37e0:	23040000 	addi	a0,t8,0
    37e4:	df1b0000 	ldc3	$27,0(t8)
    37e8:	17000001 	bnez	t8,37f0 <Interrupt-0xb7ffc990>
    37ec:	1b000023 	blez	t8,387c <Interrupt-0xb7ffc904>
    37f0:	000001eb 	0x1eb
    37f4:	00002335 	0x2335
    37f8:	0001f71b 	0x1f71b
    37fc:	00235300 	0x235300
    3800:	02031b00 	0x2031b00
    3804:	237c0000 	addi	gp,k1,0
    3808:	0f1b0000 	jal	c6c0000 <Interrupt-0xab940180>
    380c:	9a000002 	lwr	zero,2(s0)
    3810:	00000023 	negu	zero,zero
    3814:	0000001d 	0x1d
    3818:	00052e00 	sll	a1,a1,0x18
    381c:	02211b00 	0x2211b00
    3820:	23e80000 	addi	t0,ra,0
    3824:	2d1b0000 	sltiu	k1,t0,0
    3828:	0a000002 	j	8000008 <Interrupt-0xb0000178>
    382c:	1b000024 	blez	t8,38c0 <Interrupt-0xb7ffc8c0>
    3830:	00000239 	0x239
    3834:	0000242e 	0x242e
    3838:	0002451b 	0x2451b
    383c:	00244c00 	0x244c00
    3840:	02511b00 	0x2511b00
    3844:	246a0000 	addiu	t2,v1,0
    3848:	5d1b0000 	0x5d1b0000
    384c:	93000002 	lbu	zero,2(t8)
    3850:	1b000024 	blez	t8,38e4 <Interrupt-0xb7ffc89c>
    3854:	00000269 	0x269
    3858:	000024bc 	0x24bc
    385c:	c2141c00 	ll	s4,7168(s0)
    3860:	c2d8b800 	ll	t8,-18432(s6)
    3864:	057bb800 	0x57bb800
    3868:	7b1b0000 	0x7b1b0000
    386c:	ea000002 	swc2	$0,2(s0)
    3870:	1b000024 	blez	t8,3904 <Interrupt-0xb7ffc87c>
    3874:	00000287 	0x287
    3878:	0000250c 	syscall	0x94
    387c:	0002931b 	0x2931b
    3880:	00251f00 	0x251f00
    3884:	029f1b00 	0x29f1b00
    3888:	253d0000 	addiu	sp,t1,0
    388c:	ab1b0000 	swl	k1,0(t8)
    3890:	5b000002 	blezl	t8,389c <Interrupt-0xb7ffc8e4>
    3894:	1b000025 	blez	t8,392c <Interrupt-0xb7ffc854>
    3898:	000002b7 	0x2b7
    389c:	00002584 	0x2584
    38a0:	0002c31b 	0x2c31b
    38a4:	0025a200 	0x25a200
    38a8:	20190000 	addi	t9,zero,0
    38ac:	54b800c3 	bnel	a1,t8,3bbc <Interrupt-0xb7ffc5c4>
    38b0:	1bb800c4 	0x1bb800c4
    38b4:	000002e3 	0x2e3
    38b8:	000025f0 	tge	zero,zero,0x97
    38bc:	0002ee1b 	0x2ee1b
    38c0:	00260300 	0x260300
    38c4:	00181d00 	sll	v1,t8,0x14
    38c8:	05df0000 	0x5df0000
    38cc:	fe1b0000 	sdc3	$27,0(s0)
    38d0:	16000002 	bnez	s0,38dc <Interrupt-0xb7ffc8a4>
    38d4:	1b000026 	blez	t8,3970 <Interrupt-0xb7ffc810>
    38d8:	0000030a 	0x30a
    38dc:	00002638 	0x2638
    38e0:	0003161b 	0x3161b
    38e4:	00264b00 	0x264b00
    38e8:	03221b00 	0x3221b00
    38ec:	26690000 	addiu	t1,s3,0
    38f0:	2e1b0000 	sltiu	k1,s0,0
    38f4:	87000003 	lh	zero,3(t8)
    38f8:	1b000026 	blez	t8,3994 <Interrupt-0xb7ffc7ec>
    38fc:	0000033a 	0x33a
    3900:	000026b0 	tge	zero,zero,0x9a
    3904:	0003461b 	0x3461b
    3908:	0026e400 	0x26e400
    390c:	481e0000 	mfc2	s8,$0
    3910:	1b000000 	blez	t8,3914 <Interrupt-0xb7ffc86c>
    3914:	00000358 	0x358
    3918:	00002722 	0x2722
    391c:	00000000 	nop
	...

Disassembly of section .debug_abbrev:

00000000 <.debug_abbrev>:
   0:	25011101 	addiu	at,t0,4353
   4:	030b130e 	0x30b130e
   8:	110e1b0e 	beq	t0,t6,6c44 <Interrupt-0xb7ff953c>
   c:	10011201 	beq	zero,at,4814 <Interrupt-0xb7ffb96c>
  10:	02000006 	srlv	zero,zero,s0
  14:	0b0b0024 	j	c2c0090 <Interrupt-0xabd400f0>
  18:	0e030b3e 	jal	80c2cf8 <Interrupt-0xaff3d488>
  1c:	24030000 	li	v1,0
  20:	3e0b0b00 	0x3e0b0b00
  24:	0008030b 	0x8030b
  28:	01040400 	0x1040400
  2c:	0b3a0b0b 	j	ce82c2c <Interrupt-0xab17d554>
  30:	13010b3b 	beq	t8,at,2d20 <Interrupt-0xb7ffd460>
  34:	28050000 	slti	a1,zero,0
  38:	1c0e0300 	0x1c0e0300
  3c:	0600000d 	bltz	s0,74 <Interrupt-0xb800010c>
  40:	0e030104 	jal	80c0410 <Interrupt-0xaff3fd70>
  44:	0b3a0b0b 	j	ce82c2c <Interrupt-0xab17d554>
  48:	13010b3b 	beq	t8,at,2d38 <Interrupt-0xb7ffd448>
  4c:	13070000 	beq	t8,a3,50 <Interrupt-0xb8000130>
  50:	0b0e0301 	j	c380c04 <Interrupt-0xabc7f57c>
  54:	3b0b3a05 	xori	t3,t8,0x3a05
  58:	0013010b 	0x13010b
  5c:	000d0800 	sll	at,t5,0x0
  60:	0b3a0e03 	j	ce8380c <Interrupt-0xab17c974>
  64:	13490b3b 	beq	k0,t1,2d54 <Interrupt-0xb7ffd42c>
  68:	00000a38 	0xa38
  6c:	03000d09 	0x3000d09
  70:	3b0b3a08 	xori	t3,t8,0x3a08
  74:	3813490b 	xori	s3,zero,0x490b
  78:	0a00000a 	j	8000028 <Interrupt-0xb0000158>
  7c:	13490035 	beq	k0,t1,154 <Interrupt-0xb800002c>
  80:	010b0000 	0x10b0000
  84:	01134901 	0x1134901
  88:	0c000013 	jal	4c <Interrupt-0xb8000134>
  8c:	13490021 	beq	k0,t1,114 <Interrupt-0xb800006c>
  90:	00000b2f 	0xb2f
  94:	0301130d 	break	0x301,0x4c
  98:	3a0b0b0e 	xori	t3,s0,0xb0e
  9c:	010b3b0b 	0x10b3b0b
  a0:	0e000013 	jal	800004c <Interrupt-0xb0000134>
  a4:	0b0b000f 	j	c2c003c <Interrupt-0xabd40144>
  a8:	00001349 	0x1349
  ac:	0b000f0f 	j	c003c3c <Interrupt-0xabffc544>
  b0:	1000000b 	b	e0 <Interrupt-0xb80000a0>
  b4:	13490026 	beq	k0,t1,150 <Interrupt-0xb8000030>
  b8:	0d110000 	jal	4440000 <Interrupt-0xb3bc0180>
  bc:	3a0e0300 	xori	t6,s0,0x300
  c0:	490b3b0b 	bc2tl	$cc2,ecf0 <Interrupt-0xb7ff1490>
  c4:	0d0b0b13 	jal	42c2c4c <Interrupt-0xb3d3d534>
  c8:	380b0c0b 	xori	t3,zero,0xc0b
  cc:	1200000a 	beqz	s0,f8 <Interrupt-0xb8000088>
  d0:	0803000d 	j	c0034 <Interrupt-0xb7f4014c>
  d4:	0b3b0b3a 	j	cec2ce8 <Interrupt-0xab13d498>
  d8:	0b0b1349 	j	c2c4d24 <Interrupt-0xabd3b45c>
  dc:	0b0c0b0d 	j	c302c34 <Interrupt-0xabcfd54c>
  e0:	00000a38 	0xa38
  e4:	03000d13 	0x3000d13
  e8:	3b0b3a0e 	xori	t3,t8,0x3a0e
  ec:	38134905 	xori	s3,zero,0x4905
  f0:	1400000a 	bnez	zero,11c <Interrupt-0xb8000064>
  f4:	0803000d 	j	c0034 <Interrupt-0xb7f4014c>
  f8:	053b0b3a 	0x53b0b3a
  fc:	0b0b1349 	j	c2c4d24 <Interrupt-0xabd3b45c>
 100:	0b0c0b0d 	j	c302c34 <Interrupt-0xabcfd54c>
 104:	00000a38 	0xa38
 108:	03000d15 	0x3000d15
 10c:	3b0b3a0e 	xori	t3,t8,0x3a0e
 110:	0b134905 	j	c4d2414 <Interrupt-0xabb2dd6c>
 114:	0c0b0d0b 	jal	2c342c <Interrupt-0xb7d3cd54>
 118:	000a380b 	movn	a3,zero,t2
 11c:	00161600 	sll	v0,s6,0x18
 120:	0b3a0e03 	j	ce8380c <Interrupt-0xab17c974>
 124:	1349053b 	beq	k0,t1,1614 <Interrupt-0xb7ffeb6c>
 128:	2e170000 	sltiu	s7,s0,0
 12c:	030c3f01 	0x30c3f01
 130:	3b0b3a0e 	xori	t3,t8,0x3a0e
 134:	110c2705 	beq	t0,t4,9d4c <Interrupt-0xb7ff6434>
 138:	40011201 	0x40011201
 13c:	0c429706 	jal	10a5c18 <Interrupt-0xb6f5a568>
 140:	00001301 	0x1301
 144:	03000518 	0x3000518
 148:	3b0b3a08 	xori	t3,t8,0x3a08
 14c:	02134905 	0x2134905
 150:	1900000a 	blez	t0,17c <Interrupt-0xb8000004>
 154:	08030034 	j	c00d0 <Interrupt-0xb7f400b0>
 158:	053b0b3a 	0x53b0b3a
 15c:	0a021349 	j	8084d24 <Interrupt-0xaff7b45c>
 160:	2e1a0000 	sltiu	k0,s0,0
 164:	030c3f01 	0x30c3f01
 168:	3b0b3a0e 	xori	t3,t8,0x3a0e
 16c:	110c2705 	beq	t0,t4,9d84 <Interrupt-0xb7ff63fc>
 170:	40011201 	0x40011201
 174:	0c429606 	jal	10a5818 <Interrupt-0xb6f5a968>
 178:	00001301 	0x1301
 17c:	0300051b 	0x300051b
 180:	3b0b3a0e 	xori	t3,t8,0x3a0e
 184:	02134905 	0x2134905
 188:	1c00000a 	bgtz	zero,1b4 <Interrupt-0xb7ffffcc>
 18c:	0c3f012e 	jal	fc04b8 <Interrupt-0xb703fcc8>
 190:	0b3a0e03 	j	ce8380c <Interrupt-0xab17c974>
 194:	0111053b 	0x111053b
 198:	06400112 	bltz	s2,5e4 <Interrupt-0xb7fffb9c>
 19c:	010c4296 	0x10c4296
 1a0:	1d000013 	bgtz	t0,1f0 <Interrupt-0xb7ffff90>
 1a4:	0e030034 	jal	80c00d0 <Interrupt-0xaff400b0>
 1a8:	053b0b3a 	0x53b0b3a
 1ac:	0a021349 	j	8084d24 <Interrupt-0xaff7b45c>
 1b0:	2e1e0000 	sltiu	s8,s0,0
 1b4:	030c3f01 	0x30c3f01
 1b8:	3b0b3a0e 	xori	t3,t8,0x3a0e
 1bc:	490c2705 	bc2f	$cc3,9dd4 <Interrupt-0xb7ff63ac>
 1c0:	12011113 	beq	s0,at,4610 <Interrupt-0xb7ffbb70>
 1c4:	96064001 	lhu	a2,16385(s0)
 1c8:	13010c42 	beq	t8,at,32d4 <Interrupt-0xb7ffceac>
 1cc:	2e1f0000 	sltiu	ra,s0,0
 1d0:	030c3f01 	0x30c3f01
 1d4:	3b0b3a0e 	xori	t3,t8,0x3a0e
 1d8:	490c2705 	bc2f	$cc3,9df0 <Interrupt-0xb7ff6390>
 1dc:	12011113 	beq	s0,at,462c <Interrupt-0xb7ffbb54>
 1e0:	97064001 	lhu	a2,16385(t8)
 1e4:	13010c42 	beq	t8,at,32f0 <Interrupt-0xb7ffce90>
 1e8:	2e200000 	sltiu	zero,s1,0
 1ec:	030c3f01 	0x30c3f01
 1f0:	3b0b3a0e 	xori	t3,t8,0x3a0e
 1f4:	11134905 	beq	t0,s3,1260c <Interrupt-0xb7fedb74>
 1f8:	40011201 	0x40011201
 1fc:	0c429706 	jal	10a5c18 <Interrupt-0xb6f5a568>
 200:	00001301 	0x1301
 204:	3f002e21 	0x3f002e21
 208:	3a0e030c 	xori	t6,s0,0x30c
 20c:	11053b0b 	beq	t0,a1,ee3c <Interrupt-0xb7ff1344>
 210:	40011201 	0x40011201
 214:	0c429706 	jal	10a5c18 <Interrupt-0xb6f5a568>
 218:	2e220000 	sltiu	v0,s1,0
 21c:	030c3f01 	0x30c3f01
 220:	3b0b3a08 	xori	t3,t8,0x3a08
 224:	110c2705 	beq	t0,t4,9e3c <Interrupt-0xb7ff6344>
 228:	40011201 	0x40011201
 22c:	0c429706 	jal	10a5c18 <Interrupt-0xb6f5a568>
 230:	00001301 	0x1301
 234:	3f012e23 	0x3f012e23
 238:	3a0e030c 	xori	t6,s0,0x30c
 23c:	11053b0b 	beq	t0,a1,ee6c <Interrupt-0xb7ff1314>
 240:	40011201 	0x40011201
 244:	0c429706 	jal	10a5c18 <Interrupt-0xb6f5a568>
 248:	00001301 	0x1301
 24c:	03003424 	0x3003424
 250:	3b0b3a08 	xori	t3,t8,0x3a08
 254:	00134905 	0x134905
 258:	012e2500 	0x12e2500
 25c:	08030c3f 	j	c30fc <Interrupt-0xb7f3d084>
 260:	053b0b3a 	0x53b0b3a
 264:	13490c27 	beq	k0,t1,3304 <Interrupt-0xb7ffce7c>
 268:	01120111 	0x1120111
 26c:	42960640 	c0	0x960640
 270:	0013010c 	syscall	0x4c04
 274:	002e2600 	0x2e2600
 278:	0e030c3f 	jal	80c30fc <Interrupt-0xaff3d084>
 27c:	053b0b3a 	0x53b0b3a
 280:	01110c27 	0x1110c27
 284:	06400112 	bltz	s2,6d0 <Interrupt-0xb7fffab0>
 288:	000c4297 	0xc4297
 28c:	012e2700 	0x12e2700
 290:	08030c3f 	j	c30fc <Interrupt-0xb7f3d084>
 294:	053b0b3a 	0x53b0b3a
 298:	13490c27 	beq	k0,t1,3338 <Interrupt-0xb7ffce48>
 29c:	01120111 	0x1120111
 2a0:	42970640 	c0	0x970640
 2a4:	0013010c 	syscall	0x4c04
 2a8:	002e2800 	0x2e2800
 2ac:	0e030c3f 	jal	80c30fc <Interrupt-0xaff3d084>
 2b0:	053b0b3a 	0x53b0b3a
 2b4:	01110c27 	0x1110c27
 2b8:	06400112 	bltz	s2,704 <Interrupt-0xb7fffa7c>
 2bc:	000c4296 	0xc4296
 2c0:	00342900 	0x342900
 2c4:	0b3a0e03 	j	ce8380c <Interrupt-0xab17c974>
 2c8:	1349053b 	beq	k0,t1,17b8 <Interrupt-0xb7ffe9c8>
 2cc:	342a0000 	ori	t2,at,0x0
 2d0:	3a0e0300 	xori	t6,s0,0x300
 2d4:	490b3b0b 	bc2tl	$cc2,ef04 <Interrupt-0xb7ff127c>
 2d8:	020c3f13 	0x20c3f13
 2dc:	2b00000a 	slti	zero,t8,10
 2e0:	13490021 	beq	k0,t1,368 <Interrupt-0xb7fffe18>
 2e4:	0000052f 	0x52f
 2e8:	0300342c 	0x300342c
 2ec:	3b0b3a08 	xori	t3,t8,0x3a08
 2f0:	3f13490b 	0x3f13490b
 2f4:	000a020c 	syscall	0x2808
 2f8:	00342d00 	0x342d00
 2fc:	0b3a0803 	j	ce8200c <Interrupt-0xab17e174>
 300:	1349053b 	beq	k0,t1,17f0 <Interrupt-0xb7ffe990>
 304:	0a020c3f 	j	80830fc <Interrupt-0xaff7d084>
 308:	342e0000 	ori	t6,at,0x0
 30c:	3a0e0300 	xori	t6,s0,0x300
 310:	49053b0b 	bc2t	$cc1,ef40 <Interrupt-0xb7ff1240>
 314:	020c3f13 	0x20c3f13
 318:	0000000a 	movz	zero,zero,zero
 31c:	25011101 	addiu	at,t0,4353
 320:	030b130e 	0x30b130e
 324:	110e1b0e 	beq	t0,t6,6f60 <Interrupt-0xb7ff9220>
 328:	10011201 	beq	zero,at,4b30 <Interrupt-0xb7ffb650>
 32c:	02000006 	srlv	zero,zero,s0
 330:	0e030104 	jal	80c0410 <Interrupt-0xaff3fd70>
 334:	0b3a0b0b 	j	ce82c2c <Interrupt-0xab17d554>
 338:	13010b3b 	beq	t8,at,3028 <Interrupt-0xb7ffd158>
 33c:	28030000 	slti	v1,zero,0
 340:	1c0e0300 	0x1c0e0300
 344:	0400000d 	bltz	zero,37c <Interrupt-0xb7fffe04>
 348:	0b0b0024 	j	c2c0090 <Interrupt-0xabd400f0>
 34c:	0e030b3e 	jal	80c2cf8 <Interrupt-0xaff3d488>
 350:	24050000 	li	a1,0
 354:	3e0b0b00 	0x3e0b0b00
 358:	0008030b 	0x8030b
 35c:	01040600 	0x1040600
 360:	0b3a0b0b 	j	ce82c2c <Interrupt-0xab17d554>
 364:	13010b3b 	beq	t8,at,3054 <Interrupt-0xb7ffd12c>
 368:	2e070000 	sltiu	a3,s0,0
 36c:	030c3f01 	0x30c3f01
 370:	3b0b3a0e 	xori	t3,t8,0x3a0e
 374:	110c270b 	beq	t0,t4,9fa4 <Interrupt-0xb7ff61dc>
 378:	40011201 	0x40011201
 37c:	0c429706 	jal	10a5c18 <Interrupt-0xb6f5a568>
 380:	00001301 	0x1301
 384:	03000508 	0x3000508
 388:	3b0b3a08 	xori	t3,t8,0x3a08
 38c:	0213490b 	0x213490b
 390:	0900000a 	j	4000028 <Interrupt-0xb4000158>
 394:	0c3f012e 	jal	fc04b8 <Interrupt-0xb703fcc8>
 398:	0b3a0e03 	j	ce8380c <Interrupt-0xab17c974>
 39c:	0c270b3b 	jal	9c2cec <Interrupt-0xb763d494>
 3a0:	01111349 	0x1111349
 3a4:	06400112 	bltz	s2,7f0 <Interrupt-0xb7fff990>
 3a8:	010c4297 	0x10c4297
 3ac:	0a000013 	j	800004c <Interrupt-0xb0000134>
 3b0:	0e030005 	jal	80c0014 <Interrupt-0xaff4016c>
 3b4:	0b3b0b3a 	j	cec2ce8 <Interrupt-0xab13d498>
 3b8:	0a021349 	j	8084d24 <Interrupt-0xaff7b45c>
 3bc:	340b0000 	li	t3,0x0
 3c0:	3a0e0300 	xori	t6,s0,0x300
 3c4:	490b3b0b 	bc2tl	$cc2,eff4 <Interrupt-0xb7ff118c>
 3c8:	000a0213 	0xa0213
 3cc:	012e0c00 	0x12e0c00
 3d0:	0e030c3f 	jal	80c30fc <Interrupt-0xaff3d084>
 3d4:	0b3b0b3a 	j	cec2ce8 <Interrupt-0xab13d498>
 3d8:	13490c27 	beq	k0,t1,3478 <Interrupt-0xb7ffcd08>
 3dc:	01120111 	0x1120111
 3e0:	42960640 	c0	0x960640
 3e4:	0013010c 	syscall	0x4c04
 3e8:	000f0d00 	sll	at,t7,0x14
 3ec:	00000b0b 	0xb0b
 3f0:	11010b0e 	beq	t0,at,302c <Interrupt-0xb7ffd154>
 3f4:	00011201 	0x11201
 3f8:	000f0f00 	sll	at,t7,0x1c
 3fc:	13490b0b 	beq	k0,t1,302c <Interrupt-0xb7ffd154>
 400:	01100000 	0x1100000
 404:	01134901 	0x1134901
 408:	11000013 	beqz	t0,458 <Interrupt-0xb7fffd28>
 40c:	13490021 	beq	k0,t1,494 <Interrupt-0xb7fffcec>
 410:	00000b2f 	0xb2f
 414:	03003412 	0x3003412
 418:	3b0b3a0e 	xori	t3,t8,0x3a0e
 41c:	3f13490b 	0x3f13490b
 420:	000a020c 	syscall	0x2808
 424:	11010000 	beq	t0,at,428 <Interrupt-0xb7fffd58>
 428:	130e2501 	beq	t8,t6,9830 <Interrupt-0xb7ff6950>
 42c:	1b0e030b 	0x1b0e030b
 430:	1201110e 	beq	s0,at,486c <Interrupt-0xb7ffb914>
 434:	00061001 	0x61001
 438:	012e0200 	0x12e0200
 43c:	0e030c3f 	jal	80c30fc <Interrupt-0xaff3d084>
 440:	0b3b0b3a 	j	cec2ce8 <Interrupt-0xab13d498>
 444:	13490c27 	beq	k0,t1,34e4 <Interrupt-0xb7ffcc9c>
 448:	01120111 	0x1120111
 44c:	42970640 	c0	0x970640
 450:	0013010c 	syscall	0x4c04
 454:	00050300 	sll	zero,a1,0xc
 458:	0b3a0803 	j	ce8200c <Interrupt-0xab17e174>
 45c:	13490b3b 	beq	k0,t1,314c <Interrupt-0xb7ffd034>
 460:	00000a02 	srl	at,zero,0x8
 464:	0b002404 	j	c009010 <Interrupt-0xabff7170>
 468:	030b3e0b 	0x30b3e0b
 46c:	0500000e 	bltz	t0,4a8 <Interrupt-0xb7fffcd8>
 470:	0c3f012e 	jal	fc04b8 <Interrupt-0xb703fcc8>
 474:	0b3a0e03 	j	ce8380c <Interrupt-0xab17c974>
 478:	0c270b3b 	jal	9c2cec <Interrupt-0xb763d494>
 47c:	01111349 	0x1111349
 480:	06400112 	bltz	s2,8cc <Interrupt-0xb7fff8b4>
 484:	010c4296 	0x10c4296
 488:	06000013 	bltz	s0,4d8 <Interrupt-0xb7fffca8>
 48c:	0c3f002e 	jal	fc00b8 <Interrupt-0xb70400c8>
 490:	0b3a0e03 	j	ce8380c <Interrupt-0xab17c974>
 494:	0c270b3b 	jal	9c2cec <Interrupt-0xb763d494>
 498:	01111349 	0x1111349
 49c:	06400112 	bltz	s2,8e8 <Interrupt-0xb7fff898>
 4a0:	000c4297 	0xc4297
 4a4:	11010000 	beq	t0,at,4a8 <Interrupt-0xb7fffcd8>
 4a8:	11061000 	beq	t0,a2,44ac <Interrupt-0xb7ffbcd4>
 4ac:	03011201 	0x3011201
 4b0:	25081b08 	addiu	t0,t0,6920
 4b4:	00051308 	0x51308
 4b8:	11010000 	beq	t0,at,4bc <Interrupt-0xb7fffcc4>
 4bc:	130e2501 	beq	t8,t6,98c4 <Interrupt-0xb7ff68bc>
 4c0:	1b0e030b 	0x1b0e030b
 4c4:	1201110e 	beq	s0,at,4900 <Interrupt-0xb7ffb880>
 4c8:	00061001 	0x61001
 4cc:	01040200 	0x1040200
 4d0:	0b0b0e03 	j	c2c380c <Interrupt-0xabd3c974>
 4d4:	0b3b0b3a 	j	cec2ce8 <Interrupt-0xab13d498>
 4d8:	00001301 	0x1301
 4dc:	03002803 	0x3002803
 4e0:	000d1c0e 	0xd1c0e
 4e4:	00160400 	sll	zero,s6,0x10
 4e8:	0b3a0e03 	j	ce8380c <Interrupt-0xab17c974>
 4ec:	13490b3b 	beq	k0,t1,31dc <Interrupt-0xb7ffcfa4>
 4f0:	0f050000 	jal	c140000 <Interrupt-0xabec0180>
 4f4:	490b0b00 	bc2tl	$cc2,30f8 <Interrupt-0xb7ffd088>
 4f8:	06000013 	bltz	s0,548 <Interrupt-0xb7fffc38>
 4fc:	0c270115 	jal	9c0454 <Interrupt-0xb763fd2c>
 500:	00001301 	0x1301
 504:	49000507 	bc2f	1924 <Interrupt-0xb7ffe85c>
 508:	08000013 	j	4c <Interrupt-0xb8000134>
 50c:	0b0b0024 	j	c2c0090 <Interrupt-0xabd400f0>
 510:	08030b3e 	j	c2cf8 <Interrupt-0xb7f3d488>
 514:	04090000 	tgeiu	zero,0
 518:	3a0b0b01 	xori	t3,s0,0xb01
 51c:	010b3b0b 	0x10b3b0b
 520:	0a000013 	j	800004c <Interrupt-0xb0000134>
 524:	0c3f012e 	jal	fc04b8 <Interrupt-0xb703fcc8>
 528:	0b3a0e03 	j	ce8380c <Interrupt-0xab17c974>
 52c:	01110b3b 	0x1110b3b
 530:	06400112 	bltz	s2,97c <Interrupt-0xb7fff804>
 534:	010c4297 	0x10c4297
 538:	0b000013 	j	c00004c <Interrupt-0xac000134>
 53c:	08030034 	j	c00d0 <Interrupt-0xb7f400b0>
 540:	0b3b0b3a 	j	cec2ce8 <Interrupt-0xab13d498>
 544:	0a021349 	j	8084d24 <Interrupt-0xaff7b45c>
 548:	2e0c0000 	sltiu	t4,s0,0
 54c:	030c3f01 	0x30c3f01
 550:	3b0b3a0e 	xori	t3,t8,0x3a0e
 554:	110c270b 	beq	t0,t4,a184 <Interrupt-0xb7ff5ffc>
 558:	40011201 	0x40011201
 55c:	0c429706 	jal	10a5c18 <Interrupt-0xb6f5a568>
 560:	00001301 	0x1301
 564:	0300050d 	break	0x300,0x14
 568:	3b0b3a08 	xori	t3,t8,0x3a08
 56c:	0213490b 	0x213490b
 570:	0e00000a 	jal	8000028 <Interrupt-0xb0000158>
 574:	0e030034 	jal	80c00d0 <Interrupt-0xaff400b0>
 578:	0b3b0b3a 	j	cec2ce8 <Interrupt-0xab13d498>
 57c:	0a021349 	j	8084d24 <Interrupt-0xaff7b45c>
 580:	240f0000 	li	t7,0
 584:	3e0b0b00 	0x3e0b0b00
 588:	000e030b 	0xe030b
 58c:	012e1000 	0x12e1000
 590:	0b3a0e03 	j	ce8380c <Interrupt-0xab17c974>
 594:	0c270b3b 	jal	9c2cec <Interrupt-0xb763d494>
 598:	01120111 	0x1120111
 59c:	42970640 	c0	0x970640
 5a0:	0013010c 	syscall	0x4c04
 5a4:	00051100 	sll	v0,a1,0x4
 5a8:	0b3a0e03 	j	ce8380c <Interrupt-0xab17c974>
 5ac:	13490b3b 	beq	k0,t1,329c <Interrupt-0xb7ffcee4>
 5b0:	00000a02 	srl	at,zero,0x8
 5b4:	3f012e12 	0x3f012e12
 5b8:	3a0e030c 	xori	t6,s0,0x30c
 5bc:	270b3b0b 	addiu	t3,t8,15115
 5c0:	1201110c 	beq	s0,at,49f4 <Interrupt-0xb7ffb78c>
 5c4:	96064001 	lhu	a2,16385(s0)
 5c8:	13010c42 	beq	t8,at,36d4 <Interrupt-0xb7ffcaac>
 5cc:	2e130000 	sltiu	s3,s0,0
 5d0:	030c3f01 	0x30c3f01
 5d4:	3b0b3a0e 	xori	t3,t8,0x3a0e
 5d8:	110c2705 	beq	t0,t4,a1f0 <Interrupt-0xb7ff5f90>
 5dc:	40011201 	0x40011201
 5e0:	0c429606 	jal	10a5818 <Interrupt-0xb6f5a968>
 5e4:	00001301 	0x1301
 5e8:	03000514 	0x3000514
 5ec:	3b0b3a0e 	xori	t3,t8,0x3a0e
 5f0:	02134905 	0x2134905
 5f4:	1500000a 	bnez	t0,620 <Interrupt-0xb7fffb60>
 5f8:	0e030034 	jal	80c00d0 <Interrupt-0xaff400b0>
 5fc:	053b0b3a 	0x53b0b3a
 600:	0a021349 	j	8084d24 <Interrupt-0xaff7b45c>
 604:	2e160000 	sltiu	s6,s0,0
 608:	030c3f01 	0x30c3f01
 60c:	3b0b3a0e 	xori	t3,t8,0x3a0e
 610:	12011105 	beq	s0,at,4a28 <Interrupt-0xb7ffb758>
 614:	97064001 	lhu	a2,16385(t8)
 618:	13010c42 	beq	t8,at,3724 <Interrupt-0xb7ffca5c>
 61c:	2e170000 	sltiu	s7,s0,0
 620:	030c3f01 	0x30c3f01
 624:	3b0b3a0e 	xori	t3,t8,0x3a0e
 628:	490c2705 	bc2f	$cc3,a240 <Interrupt-0xb7ff5f40>
 62c:	12011113 	beq	s0,at,4a7c <Interrupt-0xb7ffb704>
 630:	97064001 	lhu	a2,16385(t8)
 634:	13010c42 	beq	t8,at,3740 <Interrupt-0xb7ffca40>
 638:	05180000 	0x5180000
 63c:	3a080300 	xori	t0,s0,0x300
 640:	49053b0b 	bc2t	$cc1,f270 <Interrupt-0xb7ff0f10>
 644:	000a0213 	0xa0213
 648:	012e1900 	0x12e1900
 64c:	0b3a0e03 	j	ce8380c <Interrupt-0xab17c974>
 650:	0c27053b 	jal	9c14ec <Interrupt-0xb763ec94>
 654:	01111349 	0x1111349
 658:	06400112 	bltz	s2,aa4 <Interrupt-0xb7fff6dc>
 65c:	010c4297 	0x10c4297
 660:	1a000013 	blez	s0,6b0 <Interrupt-0xb7fffad0>
 664:	0c3f012e 	jal	fc04b8 <Interrupt-0xb703fcc8>
 668:	0b3a0e03 	j	ce8380c <Interrupt-0xab17c974>
 66c:	0111053b 	0x111053b
 670:	06400112 	bltz	s2,abc <Interrupt-0xb7fff6c4>
 674:	010c4296 	0x10c4296
 678:	1b000013 	blez	t8,6c8 <Interrupt-0xb7fffab8>
 67c:	08030034 	j	c00d0 <Interrupt-0xb7f400b0>
 680:	053b0b3a 	0x53b0b3a
 684:	0a021349 	j	8084d24 <Interrupt-0xaff7b45c>
 688:	011c0000 	0x11c0000
 68c:	01134901 	0x1134901
 690:	1d000013 	bgtz	t0,6e0 <Interrupt-0xb7fffaa0>
 694:	13490021 	beq	k0,t1,71c <Interrupt-0xb7fffa64>
 698:	00000b2f 	0xb2f
 69c:	0300341e 	0x300341e
 6a0:	3b0b3a0e 	xori	t3,t8,0x3a0e
 6a4:	3f13490b 	0x3f13490b
 6a8:	000a020c 	syscall	0x2808
 6ac:	11010000 	beq	t0,at,6b0 <Interrupt-0xb7fffad0>
 6b0:	130e2501 	beq	t8,t6,9ab8 <Interrupt-0xb7ff66c8>
 6b4:	1b0e030b 	0x1b0e030b
 6b8:	1201110e 	beq	s0,at,4af4 <Interrupt-0xb7ffb68c>
 6bc:	00061001 	0x61001
 6c0:	01130200 	0x1130200
 6c4:	0b0b0e03 	j	c2c380c <Interrupt-0xabd3c974>
 6c8:	0b3b0b3a 	j	cec2ce8 <Interrupt-0xab13d498>
 6cc:	00001301 	0x1301
 6d0:	03000d03 	0x3000d03
 6d4:	3b0b3a08 	xori	t3,t8,0x3a08
 6d8:	3813490b 	xori	s3,zero,0x490b
 6dc:	0400000a 	bltz	zero,708 <Interrupt-0xb7fffa78>
 6e0:	13490035 	beq	k0,t1,7b8 <Interrupt-0xb7fff9c8>
 6e4:	24050000 	li	a1,0
 6e8:	3e0b0b00 	0x3e0b0b00
 6ec:	000e030b 	0xe030b
 6f0:	000d0600 	sll	zero,t5,0x18
 6f4:	0b3a0e03 	j	ce8380c <Interrupt-0xab17c974>
 6f8:	13490b3b 	beq	k0,t1,33e8 <Interrupt-0xb7ffcd98>
 6fc:	00000a38 	0xa38
 700:	0b000f07 	j	c003c1c <Interrupt-0xabffc564>
 704:	0013490b 	0x13490b
 708:	00240800 	0x240800
 70c:	0b3e0b0b 	j	cf82c2c <Interrupt-0xab07d554>
 710:	00000803 	sra	at,zero,0x0
 714:	3f012e09 	0x3f012e09
 718:	3a0e030c 	xori	t6,s0,0x30c
 71c:	270b3b0b 	addiu	t3,t8,15115
 720:	1201110c 	beq	s0,at,4b54 <Interrupt-0xb7ffb62c>
 724:	97064001 	lhu	a2,16385(t8)
 728:	13010c42 	beq	t8,at,3834 <Interrupt-0xb7ffc94c>
 72c:	050a0000 	tlti	t0,0
 730:	3a080300 	xori	t0,s0,0x300
 734:	490b3b0b 	bc2tl	$cc2,f364 <Interrupt-0xb7ff0e1c>
 738:	000a0213 	0xa0213
 73c:	012e0b00 	0x12e0b00
 740:	0e030c3f 	jal	80c30fc <Interrupt-0xaff3d084>
 744:	0b3b0b3a 	j	cec2ce8 <Interrupt-0xab13d498>
 748:	13490c27 	beq	k0,t1,37e8 <Interrupt-0xb7ffc998>
 74c:	01120111 	0x1120111
 750:	42960640 	c0	0x960640
 754:	0013010c 	syscall	0x4c04
 758:	00050c00 	sll	at,a1,0x10
 75c:	0b3a0e03 	j	ce8380c <Interrupt-0xab17c974>
 760:	13490b3b 	beq	k0,t1,3450 <Interrupt-0xb7ffcd30>
 764:	00000a02 	srl	at,zero,0x8
 768:	0300340d 	break	0x300,0xd0
 76c:	3b0b3a0e 	xori	t3,t8,0x3a0e
 770:	0213490b 	0x213490b
 774:	0e00000a 	jal	8000028 <Interrupt-0xb0000158>
 778:	0b0b000f 	j	c2c003c <Interrupt-0xabd40144>
 77c:	2e0f0000 	sltiu	t7,s0,0
 780:	030c3f01 	0x30c3f01
 784:	3b0b3a0e 	xori	t3,t8,0x3a0e
 788:	490c270b 	bc2f	$cc3,a3b8 <Interrupt-0xb7ff5dc8>
 78c:	12011113 	beq	s0,at,4bdc <Interrupt-0xb7ffb5a4>
 790:	97064001 	lhu	a2,16385(t8)
 794:	13010c42 	beq	t8,at,38a0 <Interrupt-0xb7ffc8e0>
 798:	34100000 	li	s0,0x0
 79c:	3a0e0300 	xori	t6,s0,0x300
 7a0:	490b3b0b 	bc2tl	$cc2,f3d0 <Interrupt-0xb7ff0db0>
 7a4:	020c3f13 	0x20c3f13
 7a8:	0000000a 	movz	zero,zero,zero
 7ac:	25011101 	addiu	at,t0,4353
 7b0:	030b130e 	0x30b130e
 7b4:	110e1b0e 	beq	t0,t6,73f0 <Interrupt-0xb7ff8d90>
 7b8:	10011201 	beq	zero,at,4fc0 <Interrupt-0xb7ffb1c0>
 7bc:	02000006 	srlv	zero,zero,s0
 7c0:	0b0b0024 	j	c2c0090 <Interrupt-0xabd400f0>
 7c4:	0e030b3e 	jal	80c2cf8 <Interrupt-0xaff3d488>
 7c8:	24030000 	li	v1,0
 7cc:	3e0b0b00 	0x3e0b0b00
 7d0:	0008030b 	0x8030b
 7d4:	00160400 	sll	zero,s6,0x10
 7d8:	0b3a0e03 	j	ce8380c <Interrupt-0xab17c974>
 7dc:	13490b3b 	beq	k0,t1,34cc <Interrupt-0xb7ffccb4>
 7e0:	13050000 	beq	t8,a1,7e4 <Interrupt-0xb7fff99c>
 7e4:	0b0e0301 	j	c380c04 <Interrupt-0xabc7f57c>
 7e8:	3b0b3a0b 	xori	t3,t8,0x3a0b
 7ec:	00130105 	0x130105
 7f0:	000d0600 	sll	zero,t5,0x18
 7f4:	0b3a0803 	j	ce8200c <Interrupt-0xab17e174>
 7f8:	1349053b 	beq	k0,t1,1ce8 <Interrupt-0xb7ffe498>
 7fc:	00000a38 	0xa38
 800:	03000d07 	0x3000d07
 804:	3b0b3a0e 	xori	t3,t8,0x3a0e
 808:	38134905 	xori	s3,zero,0x4905
 80c:	0800000a 	j	28 <Interrupt-0xb8000158>
 810:	0b0b0117 	j	c2c045c <Interrupt-0xabd3fd24>
 814:	053b0b3a 	0x53b0b3a
 818:	00001301 	0x1301
 81c:	03000d09 	0x3000d09
 820:	3b0b3a08 	xori	t3,t8,0x3a08
 824:	00134905 	0x134905
 828:	00160a00 	sll	at,s6,0x8
 82c:	0b3a0e03 	j	ce8380c <Interrupt-0xab17c974>
 830:	1349053b 	beq	k0,t1,1d20 <Interrupt-0xb7ffe460>
 834:	2e0b0000 	sltiu	t3,s0,0
 838:	3a0e0301 	xori	t6,s0,0x301
 83c:	27053b0b 	addiu	a1,t8,15115
 840:	2013490c 	addi	s3,zero,18700
 844:	0013010b 	0x13010b
 848:	00050c00 	sll	at,a1,0x10
 84c:	0b3a0803 	j	ce8200c <Interrupt-0xab17e174>
 850:	1349053b 	beq	k0,t1,1d40 <Interrupt-0xb7ffe440>
 854:	340d0000 	li	t5,0x0
 858:	3a080300 	xori	t0,s0,0x300
 85c:	49053b0b 	bc2t	$cc1,f48c <Interrupt-0xb7ff0cf4>
 860:	0e000013 	jal	800004c <Interrupt-0xb0000134>
 864:	1301010b 	beq	t8,at,c94 <Interrupt-0xb7fff4ec>
 868:	340f0000 	li	t7,0x0
 86c:	3a0e0300 	xori	t6,s0,0x300
 870:	49053b0b 	bc2t	$cc1,f4a0 <Interrupt-0xb7ff0ce0>
 874:	10000013 	b	8c4 <Interrupt-0xb7fff8bc>
 878:	0000010b 	0x10b
 87c:	0b000f11 	j	c003c44 <Interrupt-0xabffc53c>
 880:	0013490b 	0x13490b
 884:	00261200 	0x261200
 888:	00001349 	0x1349
 88c:	3f012e13 	0x3f012e13
 890:	3a0e030c 	xori	t6,s0,0x30c
 894:	27053b0b 	addiu	a1,t8,15115
 898:	1113490c 	beq	t0,s3,12ccc <Interrupt-0xb7fed4b4>
 89c:	40011201 	0x40011201
 8a0:	0c42970a 	jal	10a5c28 <Interrupt-0xb6f5a558>
 8a4:	05140000 	0x5140000
 8a8:	3a080300 	xori	t0,s0,0x300
 8ac:	49053b0b 	bc2t	$cc1,f4dc <Interrupt-0xb7ff0ca4>
 8b0:	00060213 	0x60213
 8b4:	00341500 	0x341500
 8b8:	0b3a0803 	j	ce8200c <Interrupt-0xab17e174>
 8bc:	1349053b 	beq	k0,t1,1dac <Interrupt-0xb7ffe3d4>
 8c0:	00000602 	srl	zero,zero,0x18
 8c4:	31011d16 	andi	at,t0,0x1d16
 8c8:	12011113 	beq	s0,at,4d18 <Interrupt-0xb7ffb468>
 8cc:	590b5801 	0x590b5801
 8d0:	17000005 	bnez	t8,8e8 <Interrupt-0xb7fff898>
 8d4:	13310005 	beq	t9,s1,8ec <Interrupt-0xb7fff894>
 8d8:	00000b1c 	0xb1c
 8dc:	31000518 	andi	zero,t0,0x518
 8e0:	00060213 	0x60213
 8e4:	010b1900 	0x10b1900
 8e8:	01120111 	0x1120111
 8ec:	341a0000 	li	k0,0x0
 8f0:	00133100 	sll	a2,s3,0x4
 8f4:	00341b00 	0x341b00
 8f8:	06021331 	bltzl	s0,55c0 <Interrupt-0xb7ffabc0>
 8fc:	0b1c0000 	j	c700000 <Interrupt-0xab900180>
 900:	12011101 	beq	s0,at,4d08 <Interrupt-0xb7ffb478>
 904:	00130101 	0x130101
 908:	010b1d00 	0x10b1d00
 90c:	13010655 	beq	t8,at,2264 <Interrupt-0xb7ffdf1c>
 910:	0b1e0000 	j	c780000 <Interrupt-0xab880180>
 914:	00065501 	0x65501
	...

Disassembly of section .debug_loc:

00000000 <.debug_loc>:
       0:	00000000 	nop
       4:	00000004 	sllv	zero,zero,zero
       8:	008d0002 	0x8d0002
       c:	00000004 	sllv	zero,zero,zero
      10:	0000000c 	syscall
      14:	108d0002 	beq	a0,t5,20 <Interrupt-0xb8000160>
      18:	0000000c 	syscall
      1c:	000010d0 	0x10d0
      20:	108e0002 	beq	a0,t6,2c <Interrupt-0xb8000154>
      24:	000010d0 	0x10d0
      28:	000010dc 	0x10dc
      2c:	108d0002 	beq	a0,t5,38 <Interrupt-0xb8000148>
      30:	000010dc 	0x10dc
      34:	000010e4 	0x10e4
      38:	008d0002 	0x8d0002
	...
      44:	000010e4 	0x10e4
      48:	000010e8 	0x10e8
      4c:	008d0002 	0x8d0002
      50:	000010e8 	0x10e8
      54:	000010f0 	tge	zero,zero,0x43
      58:	088d0002 	j	2340008 <Interrupt-0xb5cc0178>
      5c:	000010f0 	tge	zero,zero,0x43
      60:	000010f8 	0x10f8
      64:	088e0002 	j	2380008 <Interrupt-0xb5c80178>
      68:	000010f8 	0x10f8
      6c:	00001104 	0x1104
      70:	088d0002 	j	2340008 <Interrupt-0xb5cc0178>
      74:	00001104 	0x1104
      78:	0000110c 	syscall	0x44
      7c:	008d0002 	0x8d0002
	...
      88:	0000110c 	syscall	0x44
      8c:	00001110 	0x1110
      90:	008d0002 	0x8d0002
      94:	00001110 	0x1110
      98:	00001118 	0x1118
      9c:	088d0002 	j	2340008 <Interrupt-0xb5cc0178>
      a0:	00001118 	0x1118
      a4:	00001150 	0x1150
      a8:	088e0002 	j	2380008 <Interrupt-0xb5c80178>
      ac:	00001150 	0x1150
      b0:	0000115c 	0x115c
      b4:	088d0002 	j	2340008 <Interrupt-0xb5cc0178>
      b8:	0000115c 	0x115c
      bc:	00001164 	0x1164
      c0:	008d0002 	0x8d0002
	...
      cc:	00001164 	0x1164
      d0:	00001168 	0x1168
      d4:	008d0002 	0x8d0002
      d8:	00001168 	0x1168
      dc:	00001174 	teq	zero,zero,0x45
      e0:	188d0002 	0x188d0002
      e4:	00001174 	teq	zero,zero,0x45
      e8:	0000119c 	0x119c
      ec:	188e0002 	0x188e0002
      f0:	0000119c 	0x119c
      f4:	000011b0 	tge	zero,zero,0x46
      f8:	188d0002 	0x188d0002
      fc:	000011b0 	tge	zero,zero,0x46
     100:	000011b8 	0x11b8
     104:	008d0002 	0x8d0002
	...
     110:	000011b8 	0x11b8
     114:	000011bc 	0x11bc
     118:	008d0002 	0x8d0002
     11c:	000011bc 	0x11bc
     120:	000011c4 	0x11c4
     124:	088d0002 	j	2340008 <Interrupt-0xb5cc0178>
     128:	000011c4 	0x11c4
     12c:	00001208 	0x1208
     130:	088e0002 	j	2380008 <Interrupt-0xb5c80178>
     134:	00001208 	0x1208
     138:	00001214 	0x1214
     13c:	088d0002 	j	2340008 <Interrupt-0xb5cc0178>
     140:	00001214 	0x1214
     144:	0000121c 	0x121c
     148:	008d0002 	0x8d0002
	...
     154:	0000121c 	0x121c
     158:	00001220 	0x1220
     15c:	008d0002 	0x8d0002
     160:	00001220 	0x1220
     164:	00001228 	0x1228
     168:	088d0002 	j	2340008 <Interrupt-0xb5cc0178>
     16c:	00001228 	0x1228
     170:	00001268 	0x1268
     174:	088e0002 	j	2380008 <Interrupt-0xb5c80178>
     178:	00001268 	0x1268
     17c:	00001274 	teq	zero,zero,0x49
     180:	088d0002 	j	2340008 <Interrupt-0xb5cc0178>
     184:	00001274 	teq	zero,zero,0x49
     188:	0000127c 	0x127c
     18c:	008d0002 	0x8d0002
	...
     198:	0000127c 	0x127c
     19c:	00001280 	sll	v0,zero,0xa
     1a0:	008d0002 	0x8d0002
     1a4:	00001280 	sll	v0,zero,0xa
     1a8:	00001288 	0x1288
     1ac:	108d0002 	beq	a0,t5,1b8 <Interrupt-0xb7ffffc8>
     1b0:	00001288 	0x1288
     1b4:	00001320 	0x1320
     1b8:	108e0002 	beq	a0,t6,1c4 <Interrupt-0xb7ffffbc>
     1bc:	00001320 	0x1320
     1c0:	0000132c 	0x132c
     1c4:	108d0002 	beq	a0,t5,1d0 <Interrupt-0xb7ffffb0>
     1c8:	0000132c 	0x132c
     1cc:	00001334 	teq	zero,zero,0x4c
     1d0:	008d0002 	0x8d0002
	...
     1dc:	00001334 	teq	zero,zero,0x4c
     1e0:	00001338 	0x1338
     1e4:	008d0002 	0x8d0002
     1e8:	00001338 	0x1338
     1ec:	00001344 	0x1344
     1f0:	208d0002 	addi	t5,a0,2
     1f4:	00001344 	0x1344
     1f8:	000013cc 	syscall	0x4f
     1fc:	208e0002 	addi	t6,a0,2
     200:	000013cc 	syscall	0x4f
     204:	000013e0 	0x13e0
     208:	208d0002 	addi	t5,a0,2
     20c:	000013e0 	0x13e0
     210:	000013e8 	0x13e8
     214:	008d0002 	0x8d0002
	...
     220:	000013e8 	0x13e8
     224:	000013ec 	0x13ec
     228:	008d0002 	0x8d0002
     22c:	000013ec 	0x13ec
     230:	000013f4 	teq	zero,zero,0x4f
     234:	108d0002 	beq	a0,t5,240 <Interrupt-0xb7ffff40>
     238:	000013f4 	teq	zero,zero,0x4f
     23c:	00001878 	0x1878
     240:	108e0002 	beq	a0,t6,24c <Interrupt-0xb7ffff34>
     244:	00001878 	0x1878
     248:	00001884 	0x1884
     24c:	108d0002 	beq	a0,t5,258 <Interrupt-0xb7ffff28>
     250:	00001884 	0x1884
     254:	0000188c 	syscall	0x62
     258:	008d0002 	0x8d0002
	...
     264:	0000188c 	syscall	0x62
     268:	00001890 	0x1890
     26c:	008d0002 	0x8d0002
     270:	00001890 	0x1890
     274:	00001898 	0x1898
     278:	088d0002 	j	2340008 <Interrupt-0xb5cc0178>
     27c:	00001898 	0x1898
     280:	00001950 	0x1950
     284:	088e0002 	j	2380008 <Interrupt-0xb5c80178>
     288:	00001950 	0x1950
     28c:	0000195c 	0x195c
     290:	088d0002 	j	2340008 <Interrupt-0xb5cc0178>
     294:	0000195c 	0x195c
     298:	00001964 	0x1964
     29c:	008d0002 	0x8d0002
	...
     2a8:	00001964 	0x1964
     2ac:	00001968 	0x1968
     2b0:	008d0002 	0x8d0002
     2b4:	00001968 	0x1968
     2b8:	00001970 	tge	zero,zero,0x65
     2bc:	088d0002 	j	2340008 <Interrupt-0xb5cc0178>
     2c0:	00001970 	tge	zero,zero,0x65
     2c4:	000019cc 	syscall	0x67
     2c8:	088e0002 	j	2380008 <Interrupt-0xb5c80178>
     2cc:	000019cc 	syscall	0x67
     2d0:	000019d8 	0x19d8
     2d4:	088d0002 	j	2340008 <Interrupt-0xb5cc0178>
     2d8:	000019d8 	0x19d8
     2dc:	000019e0 	0x19e0
     2e0:	008d0002 	0x8d0002
	...
     2ec:	000019e0 	0x19e0
     2f0:	000019e4 	0x19e4
     2f4:	008d0002 	0x8d0002
     2f8:	000019e4 	0x19e4
     2fc:	000019ec 	0x19ec
     300:	088d0002 	j	2340008 <Interrupt-0xb5cc0178>
     304:	000019ec 	0x19ec
     308:	00001a44 	0x1a44
     30c:	088e0002 	j	2380008 <Interrupt-0xb5c80178>
     310:	00001a44 	0x1a44
     314:	00001a50 	0x1a50
     318:	088d0002 	j	2340008 <Interrupt-0xb5cc0178>
     31c:	00001a50 	0x1a50
     320:	00001a58 	0x1a58
     324:	008d0002 	0x8d0002
	...
     330:	00001a58 	0x1a58
     334:	00001a5c 	0x1a5c
     338:	008d0002 	0x8d0002
     33c:	00001a5c 	0x1a5c
     340:	00001a64 	0x1a64
     344:	088d0002 	j	2340008 <Interrupt-0xb5cc0178>
     348:	00001a64 	0x1a64
     34c:	00001af0 	tge	zero,zero,0x6b
     350:	088e0002 	j	2380008 <Interrupt-0xb5c80178>
     354:	00001af0 	tge	zero,zero,0x6b
     358:	00001afc 	0x1afc
     35c:	088d0002 	j	2340008 <Interrupt-0xb5cc0178>
     360:	00001afc 	0x1afc
     364:	00001b04 	0x1b04
     368:	008d0002 	0x8d0002
	...
     374:	00001b04 	0x1b04
     378:	00001b08 	0x1b08
     37c:	008d0002 	0x8d0002
     380:	00001b08 	0x1b08
     384:	00001b10 	0x1b10
     388:	108d0002 	beq	a0,t5,394 <Interrupt-0xb7fffdec>
     38c:	00001b10 	0x1b10
     390:	00001c38 	0x1c38
     394:	108e0002 	beq	a0,t6,3a0 <Interrupt-0xb7fffde0>
     398:	00001c38 	0x1c38
     39c:	00001c44 	0x1c44
     3a0:	108d0002 	beq	a0,t5,3ac <Interrupt-0xb7fffdd4>
     3a4:	00001c44 	0x1c44
     3a8:	00001c4c 	syscall	0x71
     3ac:	008d0002 	0x8d0002
	...
     3b8:	00001c4c 	syscall	0x71
     3bc:	00001c50 	0x1c50
     3c0:	008d0002 	0x8d0002
     3c4:	00001c50 	0x1c50
     3c8:	00001c5c 	0x1c5c
     3cc:	208d0002 	addi	t5,a0,2
     3d0:	00001c5c 	0x1c5c
     3d4:	00001dd0 	0x1dd0
     3d8:	208e0002 	addi	t6,a0,2
     3dc:	00001dd0 	0x1dd0
     3e0:	00001de4 	0x1de4
     3e4:	208d0002 	addi	t5,a0,2
     3e8:	00001de4 	0x1de4
     3ec:	00001dec 	0x1dec
     3f0:	008d0002 	0x8d0002
	...
     3fc:	00001dec 	0x1dec
     400:	00001df0 	tge	zero,zero,0x77
     404:	008d0002 	0x8d0002
     408:	00001df0 	tge	zero,zero,0x77
     40c:	00001dfc 	0x1dfc
     410:	208d0002 	addi	t5,a0,2
     414:	00001dfc 	0x1dfc
     418:	00001eac 	0x1eac
     41c:	208e0002 	addi	t6,a0,2
     420:	00001eac 	0x1eac
     424:	00001ec0 	sll	v1,zero,0x1b
     428:	208d0002 	addi	t5,a0,2
     42c:	00001ec0 	sll	v1,zero,0x1b
     430:	00001ec8 	0x1ec8
     434:	008d0002 	0x8d0002
	...
     440:	00001ec8 	0x1ec8
     444:	00001ecc 	syscall	0x7b
     448:	008d0002 	0x8d0002
     44c:	00001ecc 	syscall	0x7b
     450:	00001ed4 	0x1ed4
     454:	088d0002 	j	2340008 <Interrupt-0xb5cc0178>
     458:	00001ed4 	0x1ed4
     45c:	00001f08 	0x1f08
     460:	088e0002 	j	2380008 <Interrupt-0xb5c80178>
     464:	00001f08 	0x1f08
     468:	00001f14 	0x1f14
     46c:	088d0002 	j	2340008 <Interrupt-0xb5cc0178>
     470:	00001f14 	0x1f14
     474:	00001f1c 	0x1f1c
     478:	008d0002 	0x8d0002
	...
     484:	00001f1c 	0x1f1c
     488:	00001f20 	0x1f20
     48c:	008d0002 	0x8d0002
     490:	00001f20 	0x1f20
     494:	00001f2c 	0x1f2c
     498:	208d0002 	addi	t5,a0,2
     49c:	00001f2c 	0x1f2c
     4a0:	00001f74 	teq	zero,zero,0x7d
     4a4:	208e0002 	addi	t6,a0,2
     4a8:	00001f74 	teq	zero,zero,0x7d
     4ac:	00001f88 	0x1f88
     4b0:	208d0002 	addi	t5,a0,2
     4b4:	00001f88 	0x1f88
     4b8:	00001f90 	0x1f90
     4bc:	008d0002 	0x8d0002
	...
     4c8:	00001f90 	0x1f90
     4cc:	00001f94 	0x1f94
     4d0:	008d0002 	0x8d0002
     4d4:	00001f94 	0x1f94
     4d8:	00001fa0 	0x1fa0
     4dc:	208d0002 	addi	t5,a0,2
     4e0:	00001fa0 	0x1fa0
     4e4:	00002100 	sll	a0,zero,0x4
     4e8:	208e0002 	addi	t6,a0,2
     4ec:	00002100 	sll	a0,zero,0x4
     4f0:	00002114 	0x2114
     4f4:	208d0002 	addi	t5,a0,2
     4f8:	00002114 	0x2114
     4fc:	0000211c 	0x211c
     500:	008d0002 	0x8d0002
	...
     50c:	0000211c 	0x211c
     510:	00002120 	0x2120
     514:	008d0002 	0x8d0002
     518:	00002120 	0x2120
     51c:	00002128 	0x2128
     520:	108d0002 	beq	a0,t5,52c <Interrupt-0xb7fffc54>
     524:	00002128 	0x2128
     528:	00002154 	0x2154
     52c:	108e0002 	beq	a0,t6,538 <Interrupt-0xb7fffc48>
     530:	00002154 	0x2154
     534:	00002160 	0x2160
     538:	108d0002 	beq	a0,t5,544 <Interrupt-0xb7fffc3c>
     53c:	00002160 	0x2160
     540:	00002168 	0x2168
     544:	008d0002 	0x8d0002
	...
     550:	00002168 	0x2168
     554:	0000216c 	0x216c
     558:	008d0002 	0x8d0002
     55c:	0000216c 	0x216c
     560:	00002174 	teq	zero,zero,0x85
     564:	088d0002 	j	2340008 <Interrupt-0xb5cc0178>
     568:	00002174 	teq	zero,zero,0x85
     56c:	00002194 	0x2194
     570:	088e0002 	j	2380008 <Interrupt-0xb5c80178>
     574:	00002194 	0x2194
     578:	000021a0 	0x21a0
     57c:	088d0002 	j	2340008 <Interrupt-0xb5cc0178>
     580:	000021a0 	0x21a0
     584:	000021a8 	0x21a8
     588:	008d0002 	0x8d0002
	...
     594:	000021a8 	0x21a8
     598:	000021ac 	0x21ac
     59c:	008d0002 	0x8d0002
     5a0:	000021ac 	0x21ac
     5a4:	000021b8 	0x21b8
     5a8:	288d0002 	slti	t5,a0,2
     5ac:	000021b8 	0x21b8
     5b0:	000022bc 	0x22bc
     5b4:	288e0002 	slti	t6,a0,2
     5b8:	000022bc 	0x22bc
     5bc:	000022d0 	0x22d0
     5c0:	288d0002 	slti	t5,a0,2
     5c4:	000022d0 	0x22d0
     5c8:	000022d8 	0x22d8
     5cc:	008d0002 	0x8d0002
	...
     5d8:	000022d8 	0x22d8
     5dc:	000022dc 	0x22dc
     5e0:	008d0002 	0x8d0002
     5e4:	000022dc 	0x22dc
     5e8:	000022e8 	0x22e8
     5ec:	208d0002 	addi	t5,a0,2
     5f0:	000022e8 	0x22e8
     5f4:	0000244c 	syscall	0x91
     5f8:	208e0002 	addi	t6,a0,2
     5fc:	0000244c 	syscall	0x91
     600:	00002460 	0x2460
     604:	208d0002 	addi	t5,a0,2
     608:	00002460 	0x2460
     60c:	00002468 	0x2468
     610:	008d0002 	0x8d0002
	...
     61c:	00002468 	0x2468
     620:	0000246c 	0x246c
     624:	008d0002 	0x8d0002
     628:	0000246c 	0x246c
     62c:	00002474 	teq	zero,zero,0x91
     630:	108d0002 	beq	a0,t5,63c <Interrupt-0xb7fffb44>
     634:	00002474 	teq	zero,zero,0x91
     638:	00002538 	0x2538
     63c:	108e0002 	beq	a0,t6,648 <Interrupt-0xb7fffb38>
     640:	00002538 	0x2538
     644:	00002544 	0x2544
     648:	108d0002 	beq	a0,t5,654 <Interrupt-0xb7fffb2c>
     64c:	00002544 	0x2544
     650:	0000254c 	syscall	0x95
     654:	008d0002 	0x8d0002
	...
     660:	0000254c 	syscall	0x95
     664:	00002550 	0x2550
     668:	008d0002 	0x8d0002
     66c:	00002550 	0x2550
     670:	00002558 	0x2558
     674:	108d0002 	beq	a0,t5,680 <Interrupt-0xb7fffb00>
     678:	00002558 	0x2558
     67c:	000025f8 	0x25f8
     680:	108e0002 	beq	a0,t6,68c <Interrupt-0xb7fffaf4>
     684:	000025f8 	0x25f8
     688:	00002604 	0x2604
     68c:	108d0002 	beq	a0,t5,698 <Interrupt-0xb7fffae8>
     690:	00002604 	0x2604
     694:	0000260c 	syscall	0x98
     698:	008d0002 	0x8d0002
	...
     6a4:	0000260c 	syscall	0x98
     6a8:	00002610 	0x2610
     6ac:	008d0002 	0x8d0002
     6b0:	00002610 	0x2610
     6b4:	00002618 	0x2618
     6b8:	108d0002 	beq	a0,t5,6c4 <Interrupt-0xb7fffabc>
     6bc:	00002618 	0x2618
     6c0:	000026b8 	0x26b8
     6c4:	108e0002 	beq	a0,t6,6d0 <Interrupt-0xb7fffab0>
     6c8:	000026b8 	0x26b8
     6cc:	000026c4 	0x26c4
     6d0:	108d0002 	beq	a0,t5,6dc <Interrupt-0xb7fffaa4>
     6d4:	000026c4 	0x26c4
     6d8:	000026cc 	syscall	0x9b
     6dc:	008d0002 	0x8d0002
	...
     6e8:	000026cc 	syscall	0x9b
     6ec:	000026d0 	0x26d0
     6f0:	008d0002 	0x8d0002
     6f4:	000026d0 	0x26d0
     6f8:	000026d8 	0x26d8
     6fc:	088d0002 	j	2340008 <Interrupt-0xb5cc0178>
     700:	000026d8 	0x26d8
     704:	00002724 	0x2724
     708:	088e0002 	j	2380008 <Interrupt-0xb5c80178>
     70c:	00002724 	0x2724
     710:	00002730 	tge	zero,zero,0x9c
     714:	088d0002 	j	2340008 <Interrupt-0xb5cc0178>
     718:	00002730 	tge	zero,zero,0x9c
     71c:	00002738 	0x2738
     720:	008d0002 	0x8d0002
	...
     72c:	00002738 	0x2738
     730:	0000273c 	0x273c
     734:	008d0002 	0x8d0002
     738:	0000273c 	0x273c
     73c:	00002744 	0x2744
     740:	108d0002 	beq	a0,t5,74c <Interrupt-0xb7fffa34>
     744:	00002744 	0x2744
     748:	0000278c 	syscall	0x9e
     74c:	108e0002 	beq	a0,t6,758 <Interrupt-0xb7fffa28>
     750:	0000278c 	syscall	0x9e
     754:	00002798 	0x2798
     758:	108d0002 	beq	a0,t5,764 <Interrupt-0xb7fffa1c>
     75c:	00002798 	0x2798
     760:	000027a0 	0x27a0
     764:	008d0002 	0x8d0002
	...
     770:	000027a0 	0x27a0
     774:	000027a4 	0x27a4
     778:	008d0002 	0x8d0002
     77c:	000027a4 	0x27a4
     780:	000027b0 	tge	zero,zero,0x9e
     784:	188d0002 	0x188d0002
     788:	000027b0 	tge	zero,zero,0x9e
     78c:	00002814 	0x2814
     790:	188e0002 	0x188e0002
     794:	00002814 	0x2814
     798:	00002828 	0x2828
     79c:	188d0002 	0x188d0002
     7a0:	00002828 	0x2828
     7a4:	00002830 	tge	zero,zero,0xa0
     7a8:	008d0002 	0x8d0002
	...
     7b4:	00002830 	tge	zero,zero,0xa0
     7b8:	00002834 	teq	zero,zero,0xa0
     7bc:	008d0002 	0x8d0002
     7c0:	00002834 	teq	zero,zero,0xa0
     7c4:	00002840 	sll	a1,zero,0x1
     7c8:	208d0002 	addi	t5,a0,2
     7cc:	00002840 	sll	a1,zero,0x1
     7d0:	000028c0 	sll	a1,zero,0x3
     7d4:	208e0002 	addi	t6,a0,2
     7d8:	000028c0 	sll	a1,zero,0x3
     7dc:	000028d4 	0x28d4
     7e0:	208d0002 	addi	t5,a0,2
     7e4:	000028d4 	0x28d4
     7e8:	000028dc 	0x28dc
     7ec:	008d0002 	0x8d0002
	...
     7f8:	000028dc 	0x28dc
     7fc:	000028e0 	0x28e0
     800:	008d0002 	0x8d0002
     804:	000028e0 	0x28e0
     808:	000028ec 	0x28ec
     80c:	188d0002 	0x188d0002
     810:	000028ec 	0x28ec
     814:	00002948 	0x2948
     818:	188e0002 	0x188e0002
     81c:	00002948 	0x2948
     820:	0000295c 	0x295c
     824:	188d0002 	0x188d0002
     828:	0000295c 	0x295c
     82c:	00002964 	0x2964
     830:	008d0002 	0x8d0002
	...
     83c:	00002964 	0x2964
     840:	00002968 	0x2968
     844:	008d0002 	0x8d0002
     848:	00002968 	0x2968
     84c:	00002974 	teq	zero,zero,0xa5
     850:	188d0002 	0x188d0002
     854:	00002974 	teq	zero,zero,0xa5
     858:	000029c8 	0x29c8
     85c:	188e0002 	0x188e0002
     860:	000029c8 	0x29c8
     864:	000029dc 	0x29dc
     868:	188d0002 	0x188d0002
     86c:	000029dc 	0x29dc
     870:	000029e4 	0x29e4
     874:	008d0002 	0x8d0002
	...
     880:	000029e4 	0x29e4
     884:	000029e8 	0x29e8
     888:	008d0002 	0x8d0002
     88c:	000029e8 	0x29e8
     890:	000029f4 	teq	zero,zero,0xa7
     894:	188d0002 	0x188d0002
     898:	000029f4 	teq	zero,zero,0xa7
     89c:	00002a38 	0x2a38
     8a0:	188e0002 	0x188e0002
     8a4:	00002a38 	0x2a38
     8a8:	00002a4c 	syscall	0xa9
     8ac:	188d0002 	0x188d0002
     8b0:	00002a4c 	syscall	0xa9
     8b4:	00002a54 	0x2a54
     8b8:	008d0002 	0x8d0002
	...
     8c4:	00002a54 	0x2a54
     8c8:	00002a58 	0x2a58
     8cc:	008d0002 	0x8d0002
     8d0:	00002a58 	0x2a58
     8d4:	00002a64 	0x2a64
     8d8:	188d0002 	0x188d0002
     8dc:	00002a64 	0x2a64
     8e0:	00002ab0 	tge	zero,zero,0xaa
     8e4:	188e0002 	0x188e0002
     8e8:	00002ab0 	tge	zero,zero,0xaa
     8ec:	00002ac4 	0x2ac4
     8f0:	188d0002 	0x188d0002
     8f4:	00002ac4 	0x2ac4
     8f8:	00002acc 	syscall	0xab
     8fc:	008d0002 	0x8d0002
	...
     908:	00002acc 	syscall	0xab
     90c:	00002ad0 	0x2ad0
     910:	008d0002 	0x8d0002
     914:	00002ad0 	0x2ad0
     918:	00002ad8 	0x2ad8
     91c:	088d0002 	j	2340008 <Interrupt-0xb5cc0178>
     920:	00002ad8 	0x2ad8
     924:	00002b00 	sll	a1,zero,0xc
     928:	088e0002 	j	2380008 <Interrupt-0xb5c80178>
     92c:	00002b00 	sll	a1,zero,0xc
     930:	00002b0c 	syscall	0xac
     934:	088d0002 	j	2340008 <Interrupt-0xb5cc0178>
     938:	00002b0c 	syscall	0xac
     93c:	00002b14 	0x2b14
     940:	008d0002 	0x8d0002
	...
     94c:	00002b14 	0x2b14
     950:	00002b18 	0x2b18
     954:	008d0002 	0x8d0002
     958:	00002b18 	0x2b18
     95c:	00002b20 	0x2b20
     960:	108d0002 	beq	a0,t5,96c <Interrupt-0xb7fff814>
     964:	00002b20 	0x2b20
     968:	00002bc4 	0x2bc4
     96c:	108e0002 	beq	a0,t6,978 <Interrupt-0xb7fff808>
     970:	00002bc4 	0x2bc4
     974:	00002bd0 	0x2bd0
     978:	108d0002 	beq	a0,t5,984 <Interrupt-0xb7fff7fc>
     97c:	00002bd0 	0x2bd0
     980:	00002bd8 	0x2bd8
     984:	008d0002 	0x8d0002
	...
     990:	00002bd8 	0x2bd8
     994:	00002bdc 	0x2bdc
     998:	008d0002 	0x8d0002
     99c:	00002bdc 	0x2bdc
     9a0:	00002bec 	0x2bec
     9a4:	288d0002 	slti	t5,a0,2
     9a8:	00002bec 	0x2bec
     9ac:	00002d34 	teq	zero,zero,0xb4
     9b0:	288e0002 	slti	t6,a0,2
     9b4:	00002d34 	teq	zero,zero,0xb4
     9b8:	00002d50 	0x2d50
     9bc:	288d0002 	slti	t5,a0,2
     9c0:	00002d50 	0x2d50
     9c4:	00002d58 	0x2d58
     9c8:	008d0002 	0x8d0002
	...
     9d4:	00002d58 	0x2d58
     9d8:	00002d5c 	0x2d5c
     9dc:	008d0002 	0x8d0002
     9e0:	00002d5c 	0x2d5c
     9e4:	00002d64 	0x2d64
     9e8:	108d0002 	beq	a0,t5,9f4 <Interrupt-0xb7fff78c>
     9ec:	00002d64 	0x2d64
     9f0:	00002dd8 	0x2dd8
     9f4:	108e0002 	beq	a0,t6,a00 <Interrupt-0xb7fff780>
     9f8:	00002dd8 	0x2dd8
     9fc:	00002de4 	0x2de4
     a00:	108d0002 	beq	a0,t5,a0c <Interrupt-0xb7fff774>
     a04:	00002de4 	0x2de4
     a08:	00002dec 	0x2dec
     a0c:	008d0002 	0x8d0002
	...
     a18:	00002dec 	0x2dec
     a1c:	00002df0 	tge	zero,zero,0xb7
     a20:	008d0002 	0x8d0002
     a24:	00002df0 	tge	zero,zero,0xb7
     a28:	00002df8 	0x2df8
     a2c:	088d0002 	j	2340008 <Interrupt-0xb5cc0178>
     a30:	00002df8 	0x2df8
     a34:	00003074 	teq	zero,zero,0xc1
     a38:	088e0002 	j	2380008 <Interrupt-0xb5c80178>
     a3c:	00003074 	teq	zero,zero,0xc1
     a40:	00003080 	sll	a2,zero,0x2
     a44:	088d0002 	j	2340008 <Interrupt-0xb5cc0178>
     a48:	00003080 	sll	a2,zero,0x2
     a4c:	00003088 	0x3088
     a50:	008d0002 	0x8d0002
	...
     a5c:	00003088 	0x3088
     a60:	0000308c 	syscall	0xc2
     a64:	008d0002 	0x8d0002
     a68:	0000308c 	syscall	0xc2
     a6c:	00003094 	0x3094
     a70:	088d0002 	j	2340008 <Interrupt-0xb5cc0178>
     a74:	00003094 	0x3094
     a78:	00003310 	0x3310
     a7c:	088e0002 	j	2380008 <Interrupt-0xb5c80178>
     a80:	00003310 	0x3310
     a84:	0000331c 	0x331c
     a88:	088d0002 	j	2340008 <Interrupt-0xb5cc0178>
     a8c:	0000331c 	0x331c
     a90:	00003324 	0x3324
     a94:	008d0002 	0x8d0002
	...
     aa0:	00003324 	0x3324
     aa4:	00003328 	0x3328
     aa8:	008d0002 	0x8d0002
     aac:	00003328 	0x3328
     ab0:	00003330 	tge	zero,zero,0xcc
     ab4:	088d0002 	j	2340008 <Interrupt-0xb5cc0178>
     ab8:	00003330 	tge	zero,zero,0xcc
     abc:	0000340c 	syscall	0xd0
     ac0:	088e0002 	j	2380008 <Interrupt-0xb5c80178>
     ac4:	0000340c 	syscall	0xd0
     ac8:	00003418 	0x3418
     acc:	088d0002 	j	2340008 <Interrupt-0xb5cc0178>
     ad0:	00003418 	0x3418
     ad4:	00003420 	0x3420
     ad8:	008d0002 	0x8d0002
	...
     ae4:	00003420 	0x3420
     ae8:	00003424 	0x3424
     aec:	008d0002 	0x8d0002
     af0:	00003424 	0x3424
     af4:	0000342c 	0x342c
     af8:	088d0002 	j	2340008 <Interrupt-0xb5cc0178>
     afc:	0000342c 	0x342c
     b00:	00003440 	sll	a2,zero,0x11
     b04:	088e0002 	j	2380008 <Interrupt-0xb5c80178>
     b08:	00003440 	sll	a2,zero,0x11
     b0c:	0000344c 	syscall	0xd1
     b10:	088d0002 	j	2340008 <Interrupt-0xb5cc0178>
     b14:	0000344c 	syscall	0xd1
     b18:	00003454 	0x3454
     b1c:	008d0002 	0x8d0002
	...
     b28:	00003454 	0x3454
     b2c:	00003458 	0x3458
     b30:	008d0002 	0x8d0002
     b34:	00003458 	0x3458
     b38:	00003460 	0x3460
     b3c:	088d0002 	j	2340008 <Interrupt-0xb5cc0178>
     b40:	00003460 	0x3460
     b44:	00003464 	0x3464
     b48:	088e0002 	j	2380008 <Interrupt-0xb5c80178>
     b4c:	00003464 	0x3464
     b50:	00003470 	tge	zero,zero,0xd1
     b54:	088d0002 	j	2340008 <Interrupt-0xb5cc0178>
     b58:	00003470 	tge	zero,zero,0xd1
     b5c:	00003478 	0x3478
     b60:	008d0002 	0x8d0002
	...
     b6c:	00003478 	0x3478
     b70:	0000347c 	0x347c
     b74:	008d0002 	0x8d0002
     b78:	0000347c 	0x347c
     b7c:	00003484 	0x3484
     b80:	088d0002 	j	2340008 <Interrupt-0xb5cc0178>
     b84:	00003484 	0x3484
     b88:	000034ac 	0x34ac
     b8c:	088e0002 	j	2380008 <Interrupt-0xb5c80178>
     b90:	000034ac 	0x34ac
     b94:	000034b8 	0x34b8
     b98:	088d0002 	j	2340008 <Interrupt-0xb5cc0178>
     b9c:	000034b8 	0x34b8
     ba0:	000034c0 	sll	a2,zero,0x13
     ba4:	008d0002 	0x8d0002
	...
     bb0:	000034c0 	sll	a2,zero,0x13
     bb4:	000034c4 	0x34c4
     bb8:	008d0002 	0x8d0002
     bbc:	000034c4 	0x34c4
     bc0:	000034cc 	syscall	0xd3
     bc4:	088d0002 	j	2340008 <Interrupt-0xb5cc0178>
     bc8:	000034cc 	syscall	0xd3
     bcc:	000034f4 	teq	zero,zero,0xd3
     bd0:	088e0002 	j	2380008 <Interrupt-0xb5c80178>
     bd4:	000034f4 	teq	zero,zero,0xd3
     bd8:	00003500 	sll	a2,zero,0x14
     bdc:	088d0002 	j	2340008 <Interrupt-0xb5cc0178>
     be0:	00003500 	sll	a2,zero,0x14
     be4:	00003508 	0x3508
     be8:	008d0002 	0x8d0002
	...
     bf4:	00003508 	0x3508
     bf8:	0000350c 	syscall	0xd4
     bfc:	008d0002 	0x8d0002
     c00:	0000350c 	syscall	0xd4
     c04:	00003514 	0x3514
     c08:	108d0002 	beq	a0,t5,c14 <Interrupt-0xb7fff56c>
     c0c:	00003514 	0x3514
     c10:	00003590 	0x3590
     c14:	108e0002 	beq	a0,t6,c20 <Interrupt-0xb7fff560>
     c18:	00003590 	0x3590
     c1c:	0000359c 	0x359c
     c20:	108d0002 	beq	a0,t5,c2c <Interrupt-0xb7fff554>
     c24:	0000359c 	0x359c
     c28:	000035a4 	0x35a4
     c2c:	008d0002 	0x8d0002
	...
     c38:	000035a4 	0x35a4
     c3c:	000035a8 	0x35a8
     c40:	008d0002 	0x8d0002
     c44:	000035a8 	0x35a8
     c48:	000035b0 	tge	zero,zero,0xd6
     c4c:	088d0002 	j	2340008 <Interrupt-0xb5cc0178>
     c50:	000035b0 	tge	zero,zero,0xd6
     c54:	00003678 	0x3678
     c58:	088e0002 	j	2380008 <Interrupt-0xb5c80178>
     c5c:	00003678 	0x3678
     c60:	00003684 	0x3684
     c64:	088d0002 	j	2340008 <Interrupt-0xb5cc0178>
     c68:	00003684 	0x3684
     c6c:	0000368c 	syscall	0xda
     c70:	008d0002 	0x8d0002
	...
     c7c:	0000368c 	syscall	0xda
     c80:	00003690 	0x3690
     c84:	008d0002 	0x8d0002
     c88:	00003690 	0x3690
     c8c:	00003698 	0x3698
     c90:	088d0002 	j	2340008 <Interrupt-0xb5cc0178>
     c94:	00003698 	0x3698
     c98:	000036c8 	0x36c8
     c9c:	088e0002 	j	2380008 <Interrupt-0xb5c80178>
     ca0:	000036c8 	0x36c8
     ca4:	000036d4 	0x36d4
     ca8:	088d0002 	j	2340008 <Interrupt-0xb5cc0178>
     cac:	000036d4 	0x36d4
     cb0:	000036dc 	0x36dc
     cb4:	008d0002 	0x8d0002
	...
     cc0:	000036dc 	0x36dc
     cc4:	000036e0 	0x36e0
     cc8:	008d0002 	0x8d0002
     ccc:	000036e0 	0x36e0
     cd0:	000036e8 	0x36e8
     cd4:	088d0002 	j	2340008 <Interrupt-0xb5cc0178>
     cd8:	000036e8 	0x36e8
     cdc:	00003718 	0x3718
     ce0:	088e0002 	j	2380008 <Interrupt-0xb5c80178>
     ce4:	00003718 	0x3718
     ce8:	00003724 	0x3724
     cec:	088d0002 	j	2340008 <Interrupt-0xb5cc0178>
     cf0:	00003724 	0x3724
     cf4:	0000372c 	0x372c
     cf8:	008d0002 	0x8d0002
	...
     d04:	0000372c 	0x372c
     d08:	00003730 	tge	zero,zero,0xdc
     d0c:	008d0002 	0x8d0002
     d10:	00003730 	tge	zero,zero,0xdc
     d14:	00003738 	0x3738
     d18:	108d0002 	beq	a0,t5,d24 <Interrupt-0xb7fff45c>
     d1c:	00003738 	0x3738
     d20:	00003844 	0x3844
     d24:	108e0002 	beq	a0,t6,d30 <Interrupt-0xb7fff450>
     d28:	00003844 	0x3844
     d2c:	00003850 	0x3850
     d30:	108d0002 	beq	a0,t5,d3c <Interrupt-0xb7fff444>
     d34:	00003850 	0x3850
     d38:	00003858 	0x3858
     d3c:	008d0002 	0x8d0002
	...
     d48:	00003858 	0x3858
     d4c:	0000385c 	0x385c
     d50:	008d0002 	0x8d0002
     d54:	0000385c 	0x385c
     d58:	00003864 	0x3864
     d5c:	088d0002 	j	2340008 <Interrupt-0xb5cc0178>
     d60:	00003864 	0x3864
     d64:	000038b4 	teq	zero,zero,0xe2
     d68:	088e0002 	j	2380008 <Interrupt-0xb5c80178>
     d6c:	000038b4 	teq	zero,zero,0xe2
     d70:	000038c0 	sll	a3,zero,0x3
     d74:	088d0002 	j	2340008 <Interrupt-0xb5cc0178>
     d78:	000038c0 	sll	a3,zero,0x3
     d7c:	000038c8 	0x38c8
     d80:	008d0002 	0x8d0002
	...
     d8c:	000038c8 	0x38c8
     d90:	000038cc 	syscall	0xe3
     d94:	008d0002 	0x8d0002
     d98:	000038cc 	syscall	0xe3
     d9c:	000038d4 	0x38d4
     da0:	108d0002 	beq	a0,t5,dac <Interrupt-0xb7fff3d4>
     da4:	000038d4 	0x38d4
     da8:	00003928 	0x3928
     dac:	108e0002 	beq	a0,t6,db8 <Interrupt-0xb7fff3c8>
     db0:	00003928 	0x3928
     db4:	00003934 	teq	zero,zero,0xe4
     db8:	108d0002 	beq	a0,t5,dc4 <Interrupt-0xb7fff3bc>
     dbc:	00003934 	teq	zero,zero,0xe4
     dc0:	0000393c 	0x393c
     dc4:	008d0002 	0x8d0002
	...
     dd0:	0000393c 	0x393c
     dd4:	00003940 	sll	a3,zero,0x5
     dd8:	008d0002 	0x8d0002
     ddc:	00003940 	sll	a3,zero,0x5
     de0:	00003948 	0x3948
     de4:	088d0002 	j	2340008 <Interrupt-0xb5cc0178>
     de8:	00003948 	0x3948
     dec:	000039dc 	0x39dc
     df0:	088e0002 	j	2380008 <Interrupt-0xb5c80178>
     df4:	000039dc 	0x39dc
     df8:	000039e8 	0x39e8
     dfc:	088d0002 	j	2340008 <Interrupt-0xb5cc0178>
     e00:	000039e8 	0x39e8
     e04:	000039f0 	tge	zero,zero,0xe7
     e08:	008d0002 	0x8d0002
	...
     e14:	000039f0 	tge	zero,zero,0xe7
     e18:	000039f4 	teq	zero,zero,0xe7
     e1c:	008d0002 	0x8d0002
     e20:	000039f4 	teq	zero,zero,0xe7
     e24:	000039fc 	0x39fc
     e28:	088d0002 	j	2340008 <Interrupt-0xb5cc0178>
     e2c:	000039fc 	0x39fc
     e30:	00003a90 	0x3a90
     e34:	088e0002 	j	2380008 <Interrupt-0xb5c80178>
     e38:	00003a90 	0x3a90
     e3c:	00003a9c 	0x3a9c
     e40:	088d0002 	j	2340008 <Interrupt-0xb5cc0178>
     e44:	00003a9c 	0x3a9c
     e48:	00003aa4 	0x3aa4
     e4c:	008d0002 	0x8d0002
	...
     e58:	00003aa4 	0x3aa4
     e5c:	00003aa8 	0x3aa8
     e60:	008d0002 	0x8d0002
     e64:	00003aa8 	0x3aa8
     e68:	00003ab0 	tge	zero,zero,0xea
     e6c:	088d0002 	j	2340008 <Interrupt-0xb5cc0178>
     e70:	00003ab0 	tge	zero,zero,0xea
     e74:	00003abc 	0x3abc
     e78:	088e0002 	j	2380008 <Interrupt-0xb5c80178>
     e7c:	00003abc 	0x3abc
     e80:	00003ac8 	0x3ac8
     e84:	088d0002 	j	2340008 <Interrupt-0xb5cc0178>
     e88:	00003ac8 	0x3ac8
     e8c:	00003ad0 	0x3ad0
     e90:	008d0002 	0x8d0002
	...
     e9c:	00003ad0 	0x3ad0
     ea0:	00003ad4 	0x3ad4
     ea4:	008d0002 	0x8d0002
     ea8:	00003ad4 	0x3ad4
     eac:	00003ae0 	0x3ae0
     eb0:	188d0002 	0x188d0002
     eb4:	00003ae0 	0x3ae0
     eb8:	00003bac 	0x3bac
     ebc:	188e0002 	0x188e0002
     ec0:	00003bac 	0x3bac
     ec4:	00003bc0 	sll	a3,zero,0xf
     ec8:	188d0002 	0x188d0002
     ecc:	00003bc0 	sll	a3,zero,0xf
     ed0:	00003bc8 	0x3bc8
     ed4:	008d0002 	0x8d0002
	...
     ee0:	00003bc8 	0x3bc8
     ee4:	00003bcc 	syscall	0xef
     ee8:	008d0002 	0x8d0002
     eec:	00003bcc 	syscall	0xef
     ef0:	00003bd8 	0x3bd8
     ef4:	188d0002 	0x188d0002
     ef8:	00003bd8 	0x3bd8
     efc:	00003ca4 	0x3ca4
     f00:	188e0002 	0x188e0002
     f04:	00003ca4 	0x3ca4
     f08:	00003cb8 	0x3cb8
     f0c:	188d0002 	0x188d0002
     f10:	00003cb8 	0x3cb8
     f14:	00003cc0 	sll	a3,zero,0x13
     f18:	008d0002 	0x8d0002
	...
     f24:	00003cc0 	sll	a3,zero,0x13
     f28:	00003cc4 	0x3cc4
     f2c:	008d0002 	0x8d0002
     f30:	00003cc4 	0x3cc4
     f34:	00003cf0 	tge	zero,zero,0xf3
     f38:	c88d0003 	lwc2	$13,3(a0)
     f3c:	003cf000 	0x3cf000
     f40:	00401400 	0x401400
     f44:	8e000300 	lw	zero,768(s0)
     f48:	401400c8 	0x401400c8
     f4c:	40680000 	0x40680000
     f50:	00030000 	sll	zero,v1,0x0
     f54:	6800c88d 	0x6800c88d
     f58:	70000040 	0x70000040
     f5c:	02000040 	0x2000040
     f60:	00008d00 	sll	s1,zero,0x14
     f64:	00000000 	nop
     f68:	70000000 	madd	zero,zero
     f6c:	74000040 	jalx	100 <Interrupt-0xb8000080>
     f70:	02000040 	0x2000040
     f74:	74008d00 	jalx	23400 <Interrupt-0xb7fdcd80>
     f78:	7c000040 	0x7c000040
     f7c:	02000040 	0x2000040
     f80:	7c088d00 	0x7c088d00
     f84:	80000040 	lb	zero,64(zero)
     f88:	02000040 	0x2000040
     f8c:	80088e00 	lb	t0,-29184(zero)
     f90:	8c000040 	lw	zero,64(zero)
     f94:	02000040 	0x2000040
     f98:	8c088d00 	lw	t0,-29440(zero)
     f9c:	94000040 	lhu	zero,64(zero)
     fa0:	02000040 	0x2000040
     fa4:	00008d00 	sll	s1,zero,0x14
     fa8:	00000000 	nop
     fac:	94000000 	lhu	zero,0(zero)
     fb0:	98000040 	lwr	zero,64(zero)
     fb4:	02000040 	0x2000040
     fb8:	98008d00 	lwr	zero,-29440(zero)
     fbc:	a4000040 	sh	zero,64(zero)
     fc0:	02000040 	0x2000040
     fc4:	a4308d00 	sh	s0,-29440(at)
     fc8:	00000040 	ssnop
     fcc:	02000052 	0x2000052
     fd0:	00308e00 	0x308e00
     fd4:	14000052 	bnez	zero,1120 <Interrupt-0xb7fff060>
     fd8:	02000052 	0x2000052
     fdc:	14308d00 	bne	at,s0,fffe43e0 <lport_InputArray+0x47be43e0>
     fe0:	1c000052 	bgtz	zero,112c <Interrupt-0xb7fff054>
     fe4:	02000052 	0x2000052
     fe8:	00008d00 	sll	s1,zero,0x14
     fec:	00000000 	nop
     ff0:	1c000000 	bgtz	zero,ff4 <Interrupt-0xb7fff18c>
     ff4:	20000052 	addi	zero,zero,82
     ff8:	02000052 	0x2000052
     ffc:	20008d00 	addi	zero,zero,-29440
    1000:	28000052 	slti	zero,zero,82
    1004:	02000052 	0x2000052
    1008:	28088d00 	slti	t0,zero,-29440
    100c:	7c000052 	0x7c000052
    1010:	02000052 	0x2000052
    1014:	7c088e00 	0x7c088e00
    1018:	88000052 	lwl	zero,82(zero)
    101c:	02000052 	0x2000052
    1020:	88088d00 	lwl	t0,-29440(zero)
    1024:	90000052 	lbu	zero,82(zero)
    1028:	02000052 	0x2000052
    102c:	00008d00 	sll	s1,zero,0x14
    1030:	00000000 	nop
    1034:	90000000 	lbu	zero,0(zero)
    1038:	94000052 	lhu	zero,82(zero)
    103c:	02000052 	0x2000052
    1040:	94008d00 	lhu	zero,-29440(zero)
    1044:	9c000052 	0x9c000052
    1048:	02000052 	0x2000052
    104c:	9c088d00 	0x9c088d00
    1050:	60000052 	0x60000052
    1054:	02000053 	mtlhx	s0
    1058:	60088e00 	0x60088e00
    105c:	6c000053 	0x6c000053
    1060:	02000053 	mtlhx	s0
    1064:	6c088d00 	0x6c088d00
    1068:	74000053 	jalx	14c <Interrupt-0xb8000034>
    106c:	02000053 	mtlhx	s0
    1070:	00008d00 	sll	s1,zero,0x14
    1074:	00000000 	nop
    1078:	74000000 	jalx	0 <Interrupt-0xb8000180>
    107c:	78000053 	0x78000053
    1080:	02000053 	mtlhx	s0
    1084:	78008d00 	0x78008d00
    1088:	80000053 	lb	zero,83(zero)
    108c:	02000053 	mtlhx	s0
    1090:	80108d00 	lb	s0,-29440(zero)
    1094:	f4000053 	sdc1	$f0,83(zero)
    1098:	02000053 	mtlhx	s0
    109c:	f4108e00 	sdc1	$f16,-29184(zero)
    10a0:	00000053 	mtlhx	zero
    10a4:	02000054 	0x2000054
    10a8:	00108d00 	sll	s1,s0,0x14
    10ac:	08000054 	j	150 <Interrupt-0xb8000030>
    10b0:	02000054 	0x2000054
    10b4:	00008d00 	sll	s1,zero,0x14
    10b8:	00000000 	nop
    10bc:	08000000 	j	0 <Interrupt-0xb8000180>
    10c0:	0c000054 	jal	150 <Interrupt-0xb8000030>
    10c4:	02000054 	0x2000054
    10c8:	0c008d00 	jal	23400 <Interrupt-0xb7fdcd80>
    10cc:	18000054 	blez	zero,1220 <Interrupt-0xb7ffef60>
    10d0:	02000054 	0x2000054
    10d4:	18208d00 	blez	at,fffe44d8 <lport_InputArray+0x47be44d8>
    10d8:	7c000054 	0x7c000054
    10dc:	02000054 	0x2000054
    10e0:	7c208e00 	0x7c208e00
    10e4:	90000054 	lbu	zero,84(zero)
    10e8:	02000054 	0x2000054
    10ec:	90208d00 	lbu	zero,-29440(at)
    10f0:	98000054 	lwr	zero,84(zero)
    10f4:	02000054 	0x2000054
    10f8:	00008d00 	sll	s1,zero,0x14
    10fc:	00000000 	nop
    1100:	98000000 	lwr	zero,0(zero)
    1104:	9c000054 	0x9c000054
    1108:	02000054 	0x2000054
    110c:	9c008d00 	0x9c008d00
    1110:	a8000054 	swl	zero,84(zero)
    1114:	02000054 	0x2000054
    1118:	a8208d00 	swl	zero,-29440(at)
    111c:	0c000054 	jal	150 <Interrupt-0xb8000030>
    1120:	02000055 	0x2000055
    1124:	0c208e00 	jal	823800 <Interrupt-0xb77dc980>
    1128:	20000055 	addi	zero,zero,85
    112c:	02000055 	0x2000055
    1130:	20208d00 	addi	zero,at,-29440
    1134:	28000055 	slti	zero,zero,85
    1138:	02000055 	0x2000055
    113c:	00008d00 	sll	s1,zero,0x14
    1140:	00000000 	nop
    1144:	28000000 	slti	zero,zero,0
    1148:	2c000055 	sltiu	zero,zero,85
    114c:	02000055 	0x2000055
    1150:	2c008d00 	sltiu	zero,zero,-29440
    1154:	34000055 	li	zero,0x55
    1158:	02000055 	0x2000055
    115c:	34088d00 	li	t0,0x8d00
    1160:	38000055 	xori	zero,zero,0x55
    1164:	02000056 	0x2000056
    1168:	38088e00 	xori	t0,zero,0x8e00
    116c:	44000056 	0x44000056
    1170:	02000056 	0x2000056
    1174:	44088d00 	0x44088d00
    1178:	4c000056 	0x4c000056
    117c:	02000056 	0x2000056
    1180:	00008d00 	sll	s1,zero,0x14
    1184:	00000000 	nop
    1188:	4c000000 	mfc3	zero,$0
    118c:	50000056 	beqzl	zero,12e8 <Interrupt-0xb7ffee98>
    1190:	02000056 	0x2000056
    1194:	50008d00 	beqzl	zero,fffe4598 <lport_InputArray+0x47be4598>
    1198:	5c000056 	bgtzl	zero,12f4 <Interrupt-0xb7ffee8c>
    119c:	02000056 	0x2000056
    11a0:	5c208d00 	bgtzl	at,fffe45a4 <lport_InputArray+0x47be45a4>
    11a4:	20000056 	addi	zero,zero,86
    11a8:	02000062 	0x2000062
    11ac:	20208e00 	addi	zero,at,-29184
    11b0:	34000062 	li	zero,0x62
    11b4:	02000062 	0x2000062
    11b8:	34208d00 	ori	zero,at,0x8d00
    11bc:	3c000062 	lui	zero,0x62
    11c0:	02000062 	0x2000062
    11c4:	00008d00 	sll	s1,zero,0x14
    11c8:	00000000 	nop
    11cc:	3c000000 	lui	zero,0x0
    11d0:	40000062 	0x40000062
    11d4:	02000062 	0x2000062
    11d8:	40008d00 	0x40008d00
    11dc:	4c000062 	0x4c000062
    11e0:	02000062 	0x2000062
    11e4:	4c208d00 	0x4c208d00
    11e8:	98000062 	lwr	zero,98(zero)
    11ec:	02000067 	0x2000067
    11f0:	98208e00 	lwr	zero,-29184(at)
    11f4:	ac000067 	sw	zero,103(zero)
    11f8:	02000067 	0x2000067
    11fc:	ac208d00 	sw	zero,-29440(at)
    1200:	b4000067 	0xb4000067
    1204:	02000067 	0x2000067
    1208:	00008d00 	sll	s1,zero,0x14
    120c:	00000000 	nop
    1210:	b4000000 	0xb4000000
    1214:	b8000067 	swr	zero,103(zero)
    1218:	02000067 	0x2000067
    121c:	b8008d00 	swr	zero,-29440(zero)
    1220:	c4000067 	lwc1	$f0,103(zero)
    1224:	02000067 	0x2000067
    1228:	c4388d00 	lwc1	$f24,-29440(at)
    122c:	98000067 	lwr	zero,103(zero)
    1230:	02000068 	0x2000068
    1234:	98388e00 	lwr	t8,-29184(at)
    1238:	ac000068 	sw	zero,104(zero)
    123c:	02000068 	0x2000068
    1240:	ac388d00 	sw	t8,-29440(at)
    1244:	b4000068 	0xb4000068
    1248:	02000068 	0x2000068
    124c:	00008d00 	sll	s1,zero,0x14
    1250:	00000000 	nop
    1254:	b4000000 	0xb4000000
    1258:	b8000068 	swr	zero,104(zero)
    125c:	02000068 	0x2000068
    1260:	b8008d00 	swr	zero,-29440(zero)
    1264:	c0000068 	ll	zero,104(zero)
    1268:	02000068 	0x2000068
    126c:	c0108d00 	ll	s0,-29440(zero)
    1270:	f8000068 	sdc2	$0,104(zero)
    1274:	02000068 	0x2000068
    1278:	f8108e00 	sdc2	$16,-29184(zero)
    127c:	04000068 	bltz	zero,1420 <Interrupt-0xb7ffed60>
    1280:	02000069 	0x2000069
    1284:	04108d00 	bltzal	zero,fffe4688 <lport_InputArray+0x47be4688>
    1288:	0c000069 	jal	1a4 <Interrupt-0xb7ffffdc>
    128c:	02000069 	0x2000069
    1290:	00008d00 	sll	s1,zero,0x14
    1294:	00000000 	nop
    1298:	0c000000 	jal	0 <Interrupt-0xb8000180>
    129c:	10000069 	b	1444 <Interrupt-0xb7ffed3c>
    12a0:	02000069 	0x2000069
    12a4:	10008d00 	b	fffe46a8 <lport_InputArray+0x47be46a8>
    12a8:	18000069 	blez	zero,1450 <Interrupt-0xb7ffed30>
    12ac:	03000069 	0x3000069
    12b0:	01908d00 	0x1908d00
    12b4:	00006918 	0x6918
    12b8:	00006a4c 	syscall	0x1a9
    12bc:	908e0003 	lbu	t6,3(a0)
    12c0:	006a4c01 	0x6a4c01
    12c4:	006a5800 	0x6a5800
    12c8:	8d000300 	lw	zero,768(t0)
    12cc:	6a580190 	0x6a580190
    12d0:	6a600000 	0x6a600000
    12d4:	00020000 	sll	zero,v0,0x0
    12d8:	0000008d 	break	0x0,0x2
    12dc:	00000000 	nop
    12e0:	6a600000 	0x6a600000
    12e4:	6a640000 	0x6a640000
    12e8:	00020000 	sll	zero,v0,0x0
    12ec:	6a64008d 	0x6a64008d
    12f0:	6a6c0000 	0x6a6c0000
    12f4:	00030000 	sll	zero,v1,0x0
    12f8:	6c01908d 	0x6c01908d
    12fc:	a400006a 	sh	zero,106(zero)
    1300:	0300006b 	0x300006b
    1304:	01908e00 	0x1908e00
    1308:	00006ba4 	0x6ba4
    130c:	00006bb0 	tge	zero,zero,0x1ae
    1310:	908d0003 	lbu	t5,3(a0)
    1314:	006bb001 	0x6bb001
    1318:	006bb800 	0x6bb800
    131c:	8d000200 	lw	zero,512(t0)
	...
    1328:	006bb800 	0x6bb800
    132c:	006bbc00 	0x6bbc00
    1330:	8d000200 	lw	zero,512(t0)
    1334:	006bbc00 	0x6bbc00
    1338:	006bc800 	0x6bc800
    133c:	8d000200 	lw	zero,512(t0)
    1340:	006bc818 	0x6bc818
    1344:	006cec00 	0x6cec00
    1348:	8e000200 	lw	zero,512(s0)
    134c:	006cec18 	0x6cec18
    1350:	006d0000 	0x6d0000
    1354:	8d000200 	lw	zero,512(t0)
    1358:	006d0018 	mult	v1,t5
    135c:	006d0800 	0x6d0800
    1360:	8d000200 	lw	zero,512(t0)
	...
    136c:	006d0800 	0x6d0800
    1370:	006d0c00 	0x6d0c00
    1374:	8d000200 	lw	zero,512(t0)
    1378:	006d0c00 	0x6d0c00
    137c:	006d1800 	0x6d1800
    1380:	8d000300 	lw	zero,768(t0)
    1384:	6d1800d0 	0x6d1800d0
    1388:	72e40000 	madd	s7,a0
    138c:	00030000 	sll	zero,v1,0x0
    1390:	0000d08e 	0xd08e
	...
    139c:	04000000 	bltz	zero,13a0 <Interrupt-0xb7ffede0>
    13a0:	02000000 	0x2000000
    13a4:	04008d00 	bltz	zero,fffe47a8 <lport_InputArray+0x47be47a8>
    13a8:	0c000000 	jal	0 <Interrupt-0xb8000180>
    13ac:	02000000 	0x2000000
    13b0:	0c088d00 	jal	223400 <Interrupt-0xb7ddcd80>
    13b4:	b8000000 	swr	zero,0(zero)
    13b8:	02000000 	0x2000000
    13bc:	b8088e00 	swr	t0,-29184(zero)
    13c0:	c4000000 	lwc1	$f0,0(zero)
    13c4:	02000000 	0x2000000
    13c8:	c4088d00 	lwc1	$f8,-29440(zero)
    13cc:	cc000000 	pref	0x0,0(zero)
    13d0:	02000000 	0x2000000
    13d4:	00008d00 	sll	s1,zero,0x14
    13d8:	00000000 	nop
    13dc:	cc000000 	pref	0x0,0(zero)
    13e0:	d0000000 	0xd0000000
    13e4:	02000000 	0x2000000
    13e8:	d0008d00 	0xd0008d00
    13ec:	d8000000 	ldc2	$0,0(zero)
    13f0:	02000000 	0x2000000
    13f4:	d8088d00 	ldc2	$8,-29440(zero)
    13f8:	08000000 	j	0 <Interrupt-0xb8000180>
    13fc:	02000001 	movf	zero,s0,$fcc0
    1400:	08088e00 	j	223800 <Interrupt-0xb7ddc980>
    1404:	14000001 	bnez	zero,140c <Interrupt-0xb7ffed74>
    1408:	02000001 	movf	zero,s0,$fcc0
    140c:	14088d00 	bne	zero,t0,fffe4810 <lport_InputArray+0x47be4810>
    1410:	1c000001 	bgtz	zero,1418 <Interrupt-0xb7ffed68>
    1414:	02000001 	movf	zero,s0,$fcc0
    1418:	00008d00 	sll	s1,zero,0x14
    141c:	00000000 	nop
    1420:	1c000000 	bgtz	zero,1424 <Interrupt-0xb7ffed5c>
    1424:	20000001 	addi	zero,zero,1
    1428:	02000001 	movf	zero,s0,$fcc0
    142c:	20008d00 	addi	zero,zero,-29440
    1430:	28000001 	slti	zero,zero,1
    1434:	02000001 	movf	zero,s0,$fcc0
    1438:	28088d00 	slti	t0,zero,-29440
    143c:	7c000001 	0x7c000001
    1440:	02000001 	movf	zero,s0,$fcc0
    1444:	7c088e00 	0x7c088e00
    1448:	88000001 	lwl	zero,1(zero)
    144c:	02000001 	movf	zero,s0,$fcc0
    1450:	88088d00 	lwl	t0,-29440(zero)
    1454:	90000001 	lbu	zero,1(zero)
    1458:	02000001 	movf	zero,s0,$fcc0
    145c:	00008d00 	sll	s1,zero,0x14
    1460:	00000000 	nop
    1464:	90000000 	lbu	zero,0(zero)
    1468:	94000001 	lhu	zero,1(zero)
    146c:	02000001 	movf	zero,s0,$fcc0
    1470:	94008d00 	lhu	zero,-29440(zero)
    1474:	9c000001 	0x9c000001
    1478:	02000001 	movf	zero,s0,$fcc0
    147c:	9c108d00 	0x9c108d00
    1480:	3c000001 	lui	zero,0x1
    1484:	02000002 	0x2000002
    1488:	3c108e00 	lui	s0,0x8e00
    148c:	48000002 	mfc2	zero,$0,2
    1490:	02000002 	0x2000002
    1494:	48108d00 	0x48108d00
    1498:	50000002 	beqzl	zero,14a4 <Interrupt-0xb7ffecdc>
    149c:	02000002 	0x2000002
    14a0:	00008d00 	sll	s1,zero,0x14
    14a4:	00000000 	nop
    14a8:	50000000 	beqzl	zero,14ac <Interrupt-0xb7ffecd4>
    14ac:	54000002 	bnezl	zero,14b8 <Interrupt-0xb7ffecc8>
    14b0:	02000002 	0x2000002
    14b4:	54008d00 	bnezl	zero,fffe48b8 <lport_InputArray+0x47be48b8>
    14b8:	64000002 	0x64000002
    14bc:	02000002 	0x2000002
    14c0:	64288d00 	0x64288d00
    14c4:	48000002 	mfc2	zero,$0,2
    14c8:	02000004 	sllv	zero,zero,s0
    14cc:	48288e00 	0x48288e00
    14d0:	64000004 	0x64000004
    14d4:	02000004 	sllv	zero,zero,s0
    14d8:	64288d00 	0x64288d00
    14dc:	6c000004 	0x6c000004
    14e0:	02000004 	sllv	zero,zero,s0
    14e4:	00008d00 	sll	s1,zero,0x14
    14e8:	00000000 	nop
    14ec:	6c000000 	0x6c000000
    14f0:	70000004 	msub	zero,zero
    14f4:	02000004 	sllv	zero,zero,s0
    14f8:	70008d00 	0x70008d00
    14fc:	7c000004 	0x7c000004
    1500:	02000004 	sllv	zero,zero,s0
    1504:	7c208d00 	0x7c208d00
    1508:	18000004 	blez	zero,151c <Interrupt-0xb7ffec64>
    150c:	02000005 	0x2000005
    1510:	18208e00 	blez	at,fffe4d14 <lport_InputArray+0x47be4d14>
    1514:	2c000005 	sltiu	zero,zero,5
    1518:	02000005 	0x2000005
    151c:	2c208d00 	sltiu	zero,at,-29440
    1520:	34000005 	li	zero,0x5
    1524:	02000005 	0x2000005
    1528:	00008d00 	sll	s1,zero,0x14
    152c:	00000000 	nop
    1530:	34000000 	li	zero,0x0
    1534:	38000005 	xori	zero,zero,0x5
    1538:	02000005 	0x2000005
    153c:	38008d00 	xori	zero,zero,0x8d00
    1540:	48000005 	mfc2	zero,$0,5
    1544:	02000005 	0x2000005
    1548:	48208d00 	0x48208d00
    154c:	1c000005 	bgtz	zero,1564 <Interrupt-0xb7ffec1c>
    1550:	02000006 	srlv	zero,zero,s0
    1554:	1c208e00 	bgtz	at,fffe4d58 <lport_InputArray+0x47be4d58>
    1558:	38000006 	xori	zero,zero,0x6
    155c:	02000006 	srlv	zero,zero,s0
    1560:	38208d00 	xori	zero,at,0x8d00
    1564:	40000006 	mfc0	zero,$0,6
    1568:	02000006 	srlv	zero,zero,s0
    156c:	00008d00 	sll	s1,zero,0x14
    1570:	00000000 	nop
    1574:	40000000 	mfc0	zero,c0_index
    1578:	44000006 	0x44000006
    157c:	02000006 	srlv	zero,zero,s0
    1580:	44008d00 	0x44008d00
    1584:	54000006 	bnezl	zero,15a0 <Interrupt-0xb7ffebe0>
    1588:	02000006 	srlv	zero,zero,s0
    158c:	54288d00 	bnel	at,t0,fffe4990 <lport_InputArray+0x47be4990>
    1590:	48000006 	mfc2	zero,$0,6
    1594:	02000007 	srav	zero,zero,s0
    1598:	48288e00 	0x48288e00
    159c:	64000007 	0x64000007
    15a0:	02000007 	srav	zero,zero,s0
    15a4:	64288d00 	0x64288d00
    15a8:	6c000007 	0x6c000007
    15ac:	02000007 	srav	zero,zero,s0
    15b0:	00008d00 	sll	s1,zero,0x14
	...
    15bc:	04000000 	bltz	zero,15c0 <Interrupt-0xb7ffebc0>
    15c0:	02000000 	0x2000000
    15c4:	04008d00 	bltz	zero,fffe49c8 <lport_InputArray+0x47be49c8>
    15c8:	0c000000 	jal	0 <Interrupt-0xb8000180>
    15cc:	02000000 	0x2000000
    15d0:	0c088d00 	jal	223400 <Interrupt-0xb7ddcd80>
    15d4:	7c000000 	0x7c000000
    15d8:	02000000 	0x2000000
    15dc:	7c088e00 	0x7c088e00
    15e0:	88000000 	lwl	zero,0(zero)
    15e4:	02000000 	0x2000000
    15e8:	88088d00 	lwl	t0,-29440(zero)
    15ec:	90000000 	lbu	zero,0(zero)
    15f0:	02000000 	0x2000000
    15f4:	00008d00 	sll	s1,zero,0x14
    15f8:	00000000 	nop
    15fc:	90000000 	lbu	zero,0(zero)
    1600:	94000000 	lhu	zero,0(zero)
    1604:	02000000 	0x2000000
    1608:	94008d00 	lhu	zero,-29440(zero)
    160c:	a0000000 	sb	zero,0(zero)
    1610:	02000000 	0x2000000
    1614:	a0188d00 	sb	t8,-29440(zero)
    1618:	48000000 	mfc2	zero,$0
    161c:	02000001 	movf	zero,s0,$fcc0
    1620:	48188e00 	0x48188e00
    1624:	5c000001 	bgtzl	zero,162c <Interrupt-0xb7ffeb54>
    1628:	02000001 	movf	zero,s0,$fcc0
    162c:	5c188d00 	0x5c188d00
    1630:	64000001 	0x64000001
    1634:	02000001 	movf	zero,s0,$fcc0
    1638:	00008d00 	sll	s1,zero,0x14
    163c:	00000000 	nop
    1640:	64000000 	0x64000000
    1644:	68000001 	0x68000001
    1648:	02000001 	movf	zero,s0,$fcc0
    164c:	68008d00 	0x68008d00
    1650:	70000001 	maddu	zero,zero
    1654:	02000001 	movf	zero,s0,$fcc0
    1658:	70088d00 	0x70088d00
    165c:	c8000001 	lwc2	$0,1(zero)
    1660:	02000001 	movf	zero,s0,$fcc0
    1664:	c8088e00 	lwc2	$8,-29184(zero)
    1668:	d4000001 	ldc1	$f0,1(zero)
    166c:	02000001 	movf	zero,s0,$fcc0
    1670:	d4088d00 	ldc1	$f8,-29440(zero)
    1674:	dc000001 	ldc3	$0,1(zero)
    1678:	02000001 	movf	zero,s0,$fcc0
    167c:	00008d00 	sll	s1,zero,0x14
    1680:	00000000 	nop
    1684:	dc000000 	ldc3	$0,0(zero)
    1688:	e0000001 	sc	zero,1(zero)
    168c:	02000001 	movf	zero,s0,$fcc0
    1690:	e0008d00 	sc	zero,-29440(zero)
    1694:	e8000001 	swc2	$0,1(zero)
    1698:	02000001 	movf	zero,s0,$fcc0
    169c:	e8088d00 	swc2	$8,-29440(zero)
    16a0:	44000001 	0x44000001
    16a4:	02000002 	0x2000002
    16a8:	44088e00 	0x44088e00
    16ac:	50000002 	beqzl	zero,16b8 <Interrupt-0xb7ffeac8>
    16b0:	02000002 	0x2000002
    16b4:	50088d00 	beql	zero,t0,fffe4ab8 <lport_InputArray+0x47be4ab8>
    16b8:	58000002 	blezl	zero,16c4 <Interrupt-0xb7ffeabc>
    16bc:	02000002 	0x2000002
    16c0:	00008d00 	sll	s1,zero,0x14
	...
    16cc:	04000000 	bltz	zero,16d0 <Interrupt-0xb7ffeab0>
    16d0:	02000000 	0x2000000
    16d4:	04008d00 	bltz	zero,fffe4ad8 <lport_InputArray+0x47be4ad8>
    16d8:	0c000000 	jal	0 <Interrupt-0xb8000180>
    16dc:	02000000 	0x2000000
    16e0:	0c108d00 	jal	423400 <Interrupt-0xb7bdcd80>
    16e4:	6c000000 	0x6c000000
    16e8:	02000000 	0x2000000
    16ec:	6c108e00 	0x6c108e00
    16f0:	78000000 	0x78000000
    16f4:	02000000 	0x2000000
    16f8:	78108d00 	0x78108d00
    16fc:	80000000 	lb	zero,0(zero)
    1700:	02000000 	0x2000000
    1704:	00008d00 	sll	s1,zero,0x14
    1708:	00000000 	nop
    170c:	80000000 	lb	zero,0(zero)
    1710:	84000000 	lh	zero,0(zero)
    1714:	02000000 	0x2000000
    1718:	84008d00 	lh	zero,-29440(zero)
    171c:	8c000000 	lw	zero,0(zero)
    1720:	02000000 	0x2000000
    1724:	8c108d00 	lw	s0,-29440(zero)
    1728:	14000000 	bnez	zero,172c <Interrupt-0xb7ffea54>
    172c:	02000002 	0x2000002
    1730:	14108e00 	bne	zero,s0,fffe4f34 <lport_InputArray+0x47be4f34>
    1734:	20000002 	addi	zero,zero,2
    1738:	02000002 	0x2000002
    173c:	20108d00 	addi	s0,zero,-29440
    1740:	28000002 	slti	zero,zero,2
    1744:	02000002 	0x2000002
    1748:	00008d00 	sll	s1,zero,0x14
    174c:	00000000 	nop
    1750:	28000000 	slti	zero,zero,0
    1754:	2c000002 	sltiu	zero,zero,2
    1758:	02000002 	0x2000002
    175c:	2c008d00 	sltiu	zero,zero,-29440
    1760:	34000002 	li	zero,0x2
    1764:	02000002 	0x2000002
    1768:	34108d00 	li	s0,0x8d00
    176c:	50000002 	beqzl	zero,1778 <Interrupt-0xb7ffea08>
    1770:	02000003 	0x2000003
    1774:	50108e00 	beql	zero,s0,fffe4f78 <lport_InputArray+0x47be4f78>
    1778:	5c000003 	bgtzl	zero,1788 <Interrupt-0xb7ffe9f8>
    177c:	02000003 	0x2000003
    1780:	5c108d00 	0x5c108d00
    1784:	64000003 	0x64000003
    1788:	02000003 	0x2000003
    178c:	00008d00 	sll	s1,zero,0x14
    1790:	00000000 	nop
    1794:	64000000 	0x64000000
    1798:	68000003 	0x68000003
    179c:	02000003 	0x2000003
    17a0:	68008d00 	0x68008d00
    17a4:	70000003 	0x70000003
    17a8:	02000003 	0x2000003
    17ac:	70088d00 	0x70088d00
    17b0:	70000003 	0x70000003
    17b4:	02000004 	sllv	zero,zero,s0
    17b8:	70088e00 	0x70088e00
    17bc:	7c000004 	0x7c000004
    17c0:	02000004 	sllv	zero,zero,s0
    17c4:	7c088d00 	0x7c088d00
    17c8:	84000004 	lh	zero,4(zero)
    17cc:	02000004 	sllv	zero,zero,s0
    17d0:	00008d00 	sll	s1,zero,0x14
    17d4:	00000000 	nop
    17d8:	84000000 	lh	zero,0(zero)
    17dc:	88000004 	lwl	zero,4(zero)
    17e0:	02000004 	sllv	zero,zero,s0
    17e4:	88008d00 	lwl	zero,-29440(zero)
    17e8:	94000004 	lhu	zero,4(zero)
    17ec:	02000004 	sllv	zero,zero,s0
    17f0:	94208d00 	lhu	zero,-29440(at)
    17f4:	5c000004 	bgtzl	zero,1808 <Interrupt-0xb7ffe978>
    17f8:	0200000d 	break	0x200
    17fc:	5c208e00 	bgtzl	at,fffe5000 <lport_InputArray+0x47be5000>
    1800:	7000000d 	0x7000000d
    1804:	0200000d 	break	0x200
    1808:	70208d00 	0x70208d00
    180c:	7800000d 	0x7800000d
    1810:	0200000d 	break	0x200
    1814:	00008d00 	sll	s1,zero,0x14
    1818:	00000000 	nop
    181c:	78000000 	0x78000000
    1820:	7c00000d 	0x7c00000d
    1824:	0200000d 	break	0x200
    1828:	7c008d00 	0x7c008d00
    182c:	8800000d 	lwl	zero,13(zero)
    1830:	0200000d 	break	0x200
    1834:	88208d00 	lwl	zero,-29440(at)
    1838:	0800000d 	j	34 <Interrupt-0xb800014c>
    183c:	02000015 	0x2000015
    1840:	08208e00 	j	823800 <Interrupt-0xb77dc980>
    1844:	1c000015 	bgtz	zero,189c <Interrupt-0xb7ffe8e4>
    1848:	02000015 	0x2000015
    184c:	1c208d00 	bgtz	at,fffe4c50 <lport_InputArray+0x47be4c50>
    1850:	24000015 	li	zero,21
    1854:	02000015 	0x2000015
    1858:	00008d00 	sll	s1,zero,0x14
    185c:	00000000 	nop
    1860:	24000000 	li	zero,0
    1864:	28000015 	slti	zero,zero,21
    1868:	02000015 	0x2000015
    186c:	28008d00 	slti	zero,zero,-29440
    1870:	30000015 	andi	zero,zero,0x15
    1874:	02000015 	0x2000015
    1878:	30108d00 	andi	s0,zero,0x8d00
    187c:	60000015 	0x60000015
    1880:	02000015 	0x2000015
    1884:	60108e00 	0x60108e00
    1888:	6c000015 	0x6c000015
    188c:	02000015 	0x2000015
    1890:	6c108d00 	0x6c108d00
    1894:	74000015 	jalx	54 <Interrupt-0xb800012c>
    1898:	02000015 	0x2000015
    189c:	00008d00 	sll	s1,zero,0x14
    18a0:	00000000 	nop
    18a4:	74000000 	jalx	0 <Interrupt-0xb8000180>
    18a8:	78000015 	0x78000015
    18ac:	02000015 	0x2000015
    18b0:	78008d00 	0x78008d00
    18b4:	80000015 	lb	zero,21(zero)
    18b8:	02000015 	0x2000015
    18bc:	80108d00 	lb	s0,-29440(zero)
    18c0:	ac000015 	sw	zero,21(zero)
    18c4:	02000015 	0x2000015
    18c8:	ac108e00 	sw	s0,-29184(zero)
    18cc:	b8000015 	swr	zero,21(zero)
    18d0:	02000015 	0x2000015
    18d4:	b8108d00 	swr	s0,-29440(zero)
    18d8:	c0000015 	ll	zero,21(zero)
    18dc:	02000015 	0x2000015
    18e0:	00008d00 	sll	s1,zero,0x14
    18e4:	00000000 	nop
    18e8:	c0000000 	ll	zero,0(zero)
    18ec:	c4000015 	lwc1	$f0,21(zero)
    18f0:	02000015 	0x2000015
    18f4:	c4008d00 	lwc1	$f0,-29440(zero)
    18f8:	cc000015 	pref	0x0,21(zero)
    18fc:	02000015 	0x2000015
    1900:	cc088d00 	pref	0x8,-29440(zero)
    1904:	28000015 	slti	zero,zero,21
    1908:	02000016 	0x2000016
    190c:	28088e00 	slti	t0,zero,-29184
    1910:	34000016 	li	zero,0x16
    1914:	02000016 	0x2000016
    1918:	34088d00 	li	t0,0x8d00
    191c:	3c000016 	lui	zero,0x16
    1920:	02000016 	0x2000016
    1924:	00008d00 	sll	s1,zero,0x14
    1928:	00000000 	nop
    192c:	3c000000 	lui	zero,0x0
    1930:	40000016 	0x40000016
    1934:	02000016 	0x2000016
    1938:	40008d00 	0x40008d00
    193c:	48000016 	0x48000016
    1940:	02000016 	0x2000016
    1944:	48088d00 	0x48088d00
    1948:	a4000016 	sh	zero,22(zero)
    194c:	02000025 	move	zero,s0
    1950:	a4088e00 	sh	t0,-29184(zero)
    1954:	b0000025 	0xb0000025
    1958:	02000025 	move	zero,s0
    195c:	b0088d00 	0xb0088d00
    1960:	b8000025 	swr	zero,37(zero)
    1964:	02000025 	move	zero,s0
    1968:	00008d00 	sll	s1,zero,0x14
    196c:	00000000 	nop
    1970:	b8000000 	swr	zero,0(zero)
    1974:	bc000025 	cache	0x0,37(zero)
    1978:	02000025 	move	zero,s0
    197c:	bc008d00 	cache	0x0,-29440(zero)
    1980:	c8000025 	lwc2	$0,37(zero)
    1984:	02000025 	move	zero,s0
    1988:	c8208d00 	lwc2	$0,-29440(at)
    198c:	0c000025 	jal	94 <Interrupt-0xb80000ec>
    1990:	0200002a 	slt	zero,s0,zero
    1994:	0c208e00 	jal	823800 <Interrupt-0xb77dc980>
    1998:	2000002a 	addi	zero,zero,42
    199c:	0200002a 	slt	zero,s0,zero
    19a0:	20208d00 	addi	zero,at,-29440
    19a4:	2800002a 	slti	zero,zero,42
    19a8:	0200002a 	slt	zero,s0,zero
    19ac:	00008d00 	sll	s1,zero,0x14
	...
    19b8:	04000000 	bltz	zero,19bc <Interrupt-0xb7ffe7c4>
    19bc:	02000000 	0x2000000
    19c0:	04008d00 	bltz	zero,fffe4dc4 <lport_InputArray+0x47be4dc4>
    19c4:	0c000000 	jal	0 <Interrupt-0xb8000180>
    19c8:	02000000 	0x2000000
    19cc:	0c088d00 	jal	223400 <Interrupt-0xb7ddcd80>
    19d0:	28000000 	slti	zero,zero,0
    19d4:	02000000 	0x2000000
    19d8:	28088e00 	slti	t0,zero,-29184
    19dc:	34000000 	li	zero,0x0
    19e0:	02000000 	0x2000000
    19e4:	34088d00 	li	t0,0x8d00
    19e8:	3c000000 	lui	zero,0x0
    19ec:	02000000 	0x2000000
    19f0:	00008d00 	sll	s1,zero,0x14
    19f4:	00000000 	nop
    19f8:	3c000000 	lui	zero,0x0
    19fc:	40000000 	mfc0	zero,c0_index
    1a00:	02000000 	0x2000000
    1a04:	40008d00 	0x40008d00
    1a08:	48000000 	mfc2	zero,$0
    1a0c:	02000000 	0x2000000
    1a10:	48088d00 	0x48088d00
    1a14:	64000000 	0x64000000
    1a18:	02000000 	0x2000000
    1a1c:	64088e00 	0x64088e00
    1a20:	70000000 	madd	zero,zero
    1a24:	02000000 	0x2000000
    1a28:	70088d00 	0x70088d00
    1a2c:	78000000 	0x78000000
    1a30:	02000000 	0x2000000
    1a34:	00008d00 	sll	s1,zero,0x14
    1a38:	00000000 	nop
    1a3c:	78000000 	0x78000000
    1a40:	7c000000 	0x7c000000
    1a44:	02000000 	0x2000000
    1a48:	7c008d00 	0x7c008d00
    1a4c:	84000000 	lh	zero,0(zero)
    1a50:	02000000 	0x2000000
    1a54:	84088d00 	lh	t0,-29440(zero)
    1a58:	a0000000 	sb	zero,0(zero)
    1a5c:	02000000 	0x2000000
    1a60:	a0088e00 	sb	t0,-29184(zero)
    1a64:	ac000000 	sw	zero,0(zero)
    1a68:	02000000 	0x2000000
    1a6c:	ac088d00 	sw	t0,-29440(zero)
    1a70:	b4000000 	0xb4000000
    1a74:	02000000 	0x2000000
    1a78:	00008d00 	sll	s1,zero,0x14
    1a7c:	00000000 	nop
    1a80:	b4000000 	0xb4000000
    1a84:	b8000000 	swr	zero,0(zero)
    1a88:	02000000 	0x2000000
    1a8c:	b8008d00 	swr	zero,-29440(zero)
    1a90:	c0000000 	ll	zero,0(zero)
    1a94:	02000000 	0x2000000
    1a98:	c0088d00 	ll	t0,-29440(zero)
    1a9c:	dc000000 	ldc3	$0,0(zero)
    1aa0:	02000000 	0x2000000
    1aa4:	dc088e00 	ldc3	$8,-29184(zero)
    1aa8:	e8000000 	swc2	$0,0(zero)
    1aac:	02000000 	0x2000000
    1ab0:	e8088d00 	swc2	$8,-29440(zero)
    1ab4:	f0000000 	0xf0000000
    1ab8:	02000000 	0x2000000
    1abc:	00008d00 	sll	s1,zero,0x14
    1ac0:	00000000 	nop
    1ac4:	f0000000 	0xf0000000
    1ac8:	f4000000 	sdc1	$f0,0(zero)
    1acc:	02000000 	0x2000000
    1ad0:	f4008d00 	sdc1	$f0,-29440(zero)
    1ad4:	04000000 	bltz	zero,1ad8 <Interrupt-0xb7ffe6a8>
    1ad8:	02000001 	movf	zero,s0,$fcc0
    1adc:	04288d00 	tgei	at,-29440
    1ae0:	0c000001 	jal	4 <Interrupt-0xb800017c>
    1ae4:	02000002 	0x2000002
    1ae8:	0c288e00 	jal	a23800 <Interrupt-0xb75dc980>
    1aec:	28000002 	slti	zero,zero,2
    1af0:	02000002 	0x2000002
    1af4:	28288d00 	slti	t0,at,-29440
    1af8:	30000002 	andi	zero,zero,0x2
    1afc:	02000002 	0x2000002
    1b00:	00008d00 	sll	s1,zero,0x14
    1b04:	00000000 	nop
    1b08:	30000000 	andi	zero,zero,0x0
    1b0c:	34000002 	li	zero,0x2
    1b10:	02000002 	0x2000002
    1b14:	34008d00 	li	zero,0x8d00
    1b18:	3c000002 	lui	zero,0x2
    1b1c:	02000002 	0x2000002
    1b20:	3c088d00 	lui	t0,0x8d00
    1b24:	6c000002 	0x6c000002
    1b28:	02000002 	0x2000002
    1b2c:	6c088e00 	0x6c088e00
    1b30:	78000002 	0x78000002
    1b34:	02000002 	0x2000002
    1b38:	78088d00 	0x78088d00
    1b3c:	80000002 	lb	zero,2(zero)
    1b40:	02000002 	0x2000002
    1b44:	00008d00 	sll	s1,zero,0x14
    1b48:	00000000 	nop
    1b4c:	80000000 	lb	zero,0(zero)
    1b50:	84000002 	lh	zero,2(zero)
    1b54:	02000002 	0x2000002
    1b58:	84008d00 	lh	zero,-29440(zero)
    1b5c:	90000002 	lbu	zero,2(zero)
    1b60:	02000002 	0x2000002
    1b64:	90188d00 	lbu	t8,-29440(zero)
    1b68:	b8000002 	swr	zero,2(zero)
    1b6c:	02000002 	0x2000002
    1b70:	b8188e00 	swr	t8,-29184(zero)
    1b74:	cc000002 	pref	0x0,2(zero)
    1b78:	02000002 	0x2000002
    1b7c:	cc188d00 	pref	0x18,-29440(zero)
    1b80:	d4000002 	ldc1	$f0,2(zero)
    1b84:	02000002 	0x2000002
    1b88:	00008d00 	sll	s1,zero,0x14
    1b8c:	00000000 	nop
    1b90:	d4000000 	ldc1	$f0,0(zero)
    1b94:	d8000002 	ldc2	$0,2(zero)
    1b98:	02000002 	0x2000002
    1b9c:	d8008d00 	ldc2	$0,-29440(zero)
    1ba0:	e0000002 	sc	zero,2(zero)
    1ba4:	02000002 	0x2000002
    1ba8:	e0088d00 	sc	t0,-29440(zero)
    1bac:	08000002 	j	8 <Interrupt-0xb8000178>
    1bb0:	02000003 	0x2000003
    1bb4:	08088e00 	j	223800 <Interrupt-0xb7ddc980>
    1bb8:	14000003 	bnez	zero,1bc8 <Interrupt-0xb7ffe5b8>
    1bbc:	02000003 	0x2000003
    1bc0:	14088d00 	bne	zero,t0,fffe4fc4 <lport_InputArray+0x47be4fc4>
    1bc4:	1c000003 	bgtz	zero,1bd4 <Interrupt-0xb7ffe5ac>
    1bc8:	02000003 	0x2000003
    1bcc:	00008d00 	sll	s1,zero,0x14
    1bd0:	00000000 	nop
    1bd4:	1c000000 	bgtz	zero,1bd8 <Interrupt-0xb7ffe5a8>
    1bd8:	20000003 	addi	zero,zero,3
    1bdc:	02000003 	0x2000003
    1be0:	20008d00 	addi	zero,zero,-29440
    1be4:	2c000003 	sltiu	zero,zero,3
    1be8:	02000003 	0x2000003
    1bec:	2c208d00 	sltiu	zero,at,-29440
    1bf0:	7c000003 	0x7c000003
    1bf4:	02000003 	0x2000003
    1bf8:	7c208e00 	0x7c208e00
    1bfc:	90000003 	lbu	zero,3(zero)
    1c00:	02000003 	0x2000003
    1c04:	90208d00 	lbu	zero,-29440(at)
    1c08:	98000003 	lwr	zero,3(zero)
    1c0c:	02000003 	0x2000003
    1c10:	00008d00 	sll	s1,zero,0x14
    1c14:	00000000 	nop
    1c18:	98000000 	lwr	zero,0(zero)
    1c1c:	9c000003 	0x9c000003
    1c20:	02000003 	0x2000003
    1c24:	9c008d00 	0x9c008d00
    1c28:	a4000003 	sh	zero,3(zero)
    1c2c:	02000003 	0x2000003
    1c30:	a4088d00 	sh	t0,-29440(zero)
    1c34:	cc000003 	pref	0x0,3(zero)
    1c38:	02000003 	0x2000003
    1c3c:	cc088e00 	pref	0x8,-29184(zero)
    1c40:	d8000003 	ldc2	$0,3(zero)
    1c44:	02000003 	0x2000003
    1c48:	d8088d00 	ldc2	$8,-29440(zero)
    1c4c:	e0000003 	sc	zero,3(zero)
    1c50:	02000003 	0x2000003
    1c54:	00008d00 	sll	s1,zero,0x14
	...
    1c60:	18000000 	blez	zero,1c64 <Interrupt-0xb7ffe51c>
    1c64:	06000000 	bltz	s0,1c68 <Interrupt-0xb7ffe518>
    1c68:	04935400 	bgezall	a0,16c6c <Interrupt-0xb7fe9514>
    1c6c:	18049355 	0x18049355
    1c70:	cc000000 	pref	0x0,0(zero)
    1c74:	06000004 	bltz	s0,1c88 <Interrupt-0xb7ffe4f8>
    1c78:	f503f300 	sdc1	$f3,-3328(t0)
    1c7c:	009f2504 	0x9f2504
	...
    1c88:	9c000000 	0x9c000000
    1c8c:	06000000 	bltz	s0,1c90 <Interrupt-0xb7ffe4f0>
    1c90:	04935600 	bgezall	a0,17494 <Interrupt-0xb7fe8cec>
    1c94:	9c049357 	0x9c049357
    1c98:	4c000000 	mfc3	zero,$0
    1c9c:	06000001 	bltz	s0,1ca4 <Interrupt-0xb7ffe4dc>
    1ca0:	f503f300 	sdc1	$f3,-3328(t0)
    1ca4:	4c9f2506 	0x4c9f2506
    1ca8:	80000001 	lb	zero,1(zero)
    1cac:	06000001 	bltz	s0,1cb4 <Interrupt-0xb7ffe4cc>
    1cb0:	04935600 	bgezall	a0,174b4 <Interrupt-0xb7fe8ccc>
    1cb4:	80049357 	lb	a0,-27817(zero)
    1cb8:	28000001 	slti	zero,zero,1
    1cbc:	06000003 	bltz	s0,1ccc <Interrupt-0xb7ffe4b4>
    1cc0:	f503f300 	sdc1	$f3,-3328(t0)
    1cc4:	289f2506 	slti	ra,a0,9478
    1cc8:	a4000003 	sh	zero,3(zero)
    1ccc:	06000003 	bltz	s0,1cdc <Interrupt-0xb7ffe4a4>
    1cd0:	04935600 	bgezall	a0,174d4 <Interrupt-0xb7fe8cac>
    1cd4:	a4049357 	sh	a0,-27817(zero)
    1cd8:	a4000003 	sh	zero,3(zero)
    1cdc:	06000004 	bltz	s0,1cf0 <Interrupt-0xb7ffe490>
    1ce0:	f503f300 	sdc1	$f3,-3328(t0)
    1ce4:	a49f2506 	sh	ra,9478(a0)
    1ce8:	ac000004 	sw	zero,4(zero)
    1cec:	06000004 	bltz	s0,1d00 <Interrupt-0xb7ffe480>
    1cf0:	04935600 	bgezall	a0,174f4 <Interrupt-0xb7fe8c8c>
    1cf4:	ac049357 	sw	a0,-27817(zero)
    1cf8:	cc000004 	pref	0x0,4(zero)
    1cfc:	06000004 	bltz	s0,1d10 <Interrupt-0xb7ffe470>
    1d00:	f503f300 	sdc1	$f3,-3328(t0)
    1d04:	009f2506 	0x9f2506
	...
    1d10:	14000000 	bnez	zero,1d14 <Interrupt-0xb7ffe46c>
    1d14:	02000000 	0x2000000
    1d18:	149f3000 	bne	a0,ra,dd1c <Interrupt-0xb7ff2464>
    1d1c:	28000000 	slti	zero,zero,0
    1d20:	03000000 	0x3000000
    1d24:	9fff0900 	0x9fff0900
    1d28:	00000028 	0x28
    1d2c:	000004cc 	syscall	0x13
    1d30:	005c0001 	movf	zero,v0,$fcc7
    1d34:	00000000 	nop
    1d38:	14000000 	bnez	zero,1d3c <Interrupt-0xb7ffe444>
    1d3c:	18000000 	blez	zero,1d40 <Interrupt-0xb7ffe440>
    1d40:	06000000 	bltz	s0,1d44 <Interrupt-0xb7ffe43c>
    1d44:	04935400 	bgezall	a0,16d48 <Interrupt-0xb7fe9438>
    1d48:	44049355 	0x44049355
    1d4c:	a0000000 	sb	zero,0(zero)
    1d50:	06000000 	bltz	s0,1d54 <Interrupt-0xb7ffe42c>
    1d54:	04935400 	bgezall	a0,16d58 <Interrupt-0xb7fe9428>
    1d58:	4c049355 	0x4c049355
    1d5c:	70000001 	maddu	zero,zero
    1d60:	06000001 	bltz	s0,1d68 <Interrupt-0xb7ffe418>
    1d64:	04935400 	bgezall	a0,16d68 <Interrupt-0xb7fe9418>
    1d68:	7c049355 	0x7c049355
    1d6c:	94000001 	lhu	zero,1(zero)
    1d70:	06000001 	bltz	s0,1d78 <Interrupt-0xb7ffe408>
    1d74:	04935400 	bgezall	a0,16d78 <Interrupt-0xb7fe9408>
    1d78:	28049355 	slti	a0,zero,-27819
    1d7c:	44000003 	0x44000003
    1d80:	06000003 	bltz	s0,1d90 <Interrupt-0xb7ffe3f0>
    1d84:	04935400 	bgezall	a0,16d88 <Interrupt-0xb7fe93f8>
    1d88:	70049355 	0x70049355
    1d8c:	98000003 	lwr	zero,3(zero)
    1d90:	06000003 	bltz	s0,1da0 <Interrupt-0xb7ffe3e0>
    1d94:	04935400 	bgezall	a0,16d98 <Interrupt-0xb7fe93e8>
    1d98:	a4049355 	sh	a0,-27819(zero)
    1d9c:	bc000004 	cache	0x0,4(zero)
    1da0:	06000004 	bltz	s0,1db4 <Interrupt-0xb7ffe3cc>
    1da4:	04935400 	bgezall	a0,16da8 <Interrupt-0xb7fe93d8>
    1da8:	c4049355 	lwc1	$f4,-27819(zero)
    1dac:	cc000004 	pref	0x0,4(zero)
    1db0:	06000004 	bltz	s0,1dc4 <Interrupt-0xb7ffe3bc>
    1db4:	04935400 	bgezall	a0,16db8 <Interrupt-0xb7fe93c8>
    1db8:	00049355 	0x49355
    1dbc:	00000000 	nop
    1dc0:	44000000 	mfc1	zero,$f0
    1dc4:	68000000 	0x68000000
    1dc8:	06000000 	bltz	s0,1dcc <Interrupt-0xb7ffe3b4>
    1dcc:	04935b00 	bgezall	a0,189d0 <Interrupt-0xb7fe77b0>
    1dd0:	4c049352 	0x4c049352
    1dd4:	64000001 	0x64000001
    1dd8:	06000001 	bltz	s0,1de0 <Interrupt-0xb7ffe3a0>
    1ddc:	04935b00 	bgezall	a0,189e0 <Interrupt-0xb7fe77a0>
    1de0:	28049352 	slti	a0,zero,-27822
    1de4:	54000003 	bnezl	zero,1df4 <Interrupt-0xb7ffe38c>
    1de8:	06000003 	bltz	s0,1df8 <Interrupt-0xb7ffe388>
    1dec:	04935b00 	bgezall	a0,189f0 <Interrupt-0xb7fe7790>
    1df0:	5c049352 	0x5c049352
    1df4:	7c000003 	0x7c000003
    1df8:	06000003 	bltz	s0,1e08 <Interrupt-0xb7ffe378>
    1dfc:	04935b00 	bgezall	a0,18a00 <Interrupt-0xb7fe7780>
    1e00:	a4049352 	sh	a0,-27822(zero)
    1e04:	ac000004 	sw	zero,4(zero)
    1e08:	06000004 	bltz	s0,1e1c <Interrupt-0xb7ffe364>
    1e0c:	04935b00 	bgezall	a0,18a10 <Interrupt-0xb7fe7770>
    1e10:	00049352 	0x49352
    1e14:	00000000 	nop
    1e18:	ac000000 	sw	zero,0(zero)
    1e1c:	b8000004 	swr	zero,4(zero)
    1e20:	06000004 	bltz	s0,1e34 <Interrupt-0xb7ffe34c>
    1e24:	04935200 	bgezall	a0,16628 <Interrupt-0xb7fe9b58>
    1e28:	c4049353 	lwc1	$f4,-27821(zero)
    1e2c:	cc000004 	pref	0x0,4(zero)
    1e30:	06000004 	bltz	s0,1e44 <Interrupt-0xb7ffe33c>
    1e34:	04935200 	bgezall	a0,16638 <Interrupt-0xb7fe9b48>
    1e38:	00049353 	0x49353
    1e3c:	00000000 	nop
    1e40:	44000000 	mfc1	zero,$f0
    1e44:	68000000 	0x68000000
    1e48:	06000000 	bltz	s0,1e4c <Interrupt-0xb7ffe334>
    1e4c:	04935b00 	bgezall	a0,18a50 <Interrupt-0xb7fe7730>
    1e50:	4c049352 	0x4c049352
    1e54:	58000001 	blezl	zero,1e5c <Interrupt-0xb7ffe324>
    1e58:	06000001 	bltz	s0,1e60 <Interrupt-0xb7ffe320>
    1e5c:	04935800 	bgezall	a0,17e60 <Interrupt-0xb7fe8320>
    1e60:	58049352 	0x58049352
    1e64:	64000001 	0x64000001
    1e68:	06000001 	bltz	s0,1e70 <Interrupt-0xb7ffe310>
    1e6c:	04935b00 	bgezall	a0,18a70 <Interrupt-0xb7fe7710>
    1e70:	28049352 	slti	a0,zero,-27822
    1e74:	54000003 	bnezl	zero,1e84 <Interrupt-0xb7ffe2fc>
    1e78:	06000003 	bltz	s0,1e88 <Interrupt-0xb7ffe2f8>
    1e7c:	04935800 	bgezall	a0,17e80 <Interrupt-0xb7fe8300>
    1e80:	5c049352 	0x5c049352
    1e84:	7c000003 	0x7c000003
    1e88:	06000003 	bltz	s0,1e98 <Interrupt-0xb7ffe2e8>
    1e8c:	04935800 	bgezall	a0,17e90 <Interrupt-0xb7fe82f0>
    1e90:	a4049352 	sh	a0,-27822(zero)
    1e94:	ac000004 	sw	zero,4(zero)
    1e98:	06000004 	bltz	s0,1eac <Interrupt-0xb7ffe2d4>
    1e9c:	04935800 	bgezall	a0,17ea0 <Interrupt-0xb7fe82e0>
    1ea0:	00049352 	0x49352
    1ea4:	00000000 	nop
    1ea8:	44000000 	mfc1	zero,$f0
    1eac:	a0000000 	sb	zero,0(zero)
    1eb0:	06000000 	bltz	s0,1eb4 <Interrupt-0xb7ffe2cc>
    1eb4:	04935400 	bgezall	a0,16eb8 <Interrupt-0xb7fe92c8>
    1eb8:	4c049355 	0x4c049355
    1ebc:	70000001 	maddu	zero,zero
    1ec0:	06000001 	bltz	s0,1ec8 <Interrupt-0xb7ffe2b8>
    1ec4:	04935400 	bgezall	a0,16ec8 <Interrupt-0xb7fe92b8>
    1ec8:	70049355 	0x70049355
    1ecc:	7c000001 	0x7c000001
    1ed0:	06000001 	bltz	s0,1ed8 <Interrupt-0xb7ffe2a8>
    1ed4:	04935400 	bgezall	a0,16ed8 <Interrupt-0xb7fe92a8>
    1ed8:	7c049357 	0x7c049357
    1edc:	94000001 	lhu	zero,1(zero)
    1ee0:	06000001 	bltz	s0,1ee8 <Interrupt-0xb7ffe298>
    1ee4:	04935400 	bgezall	a0,16ee8 <Interrupt-0xb7fe9298>
    1ee8:	94049355 	lhu	a0,-27819(zero)
    1eec:	ac000001 	sw	zero,1(zero)
    1ef0:	06000001 	bltz	s0,1ef8 <Interrupt-0xb7ffe288>
    1ef4:	04935400 	bgezall	a0,16ef8 <Interrupt-0xb7fe9288>
    1ef8:	28049357 	slti	a0,zero,-27817
    1efc:	44000003 	0x44000003
    1f00:	06000003 	bltz	s0,1f10 <Interrupt-0xb7ffe270>
    1f04:	04935400 	bgezall	a0,16f08 <Interrupt-0xb7fe9278>
    1f08:	44049355 	0x44049355
    1f0c:	50000003 	beqzl	zero,1f1c <Interrupt-0xb7ffe264>
    1f10:	06000003 	bltz	s0,1f20 <Interrupt-0xb7ffe260>
    1f14:	04935400 	bgezall	a0,16f18 <Interrupt-0xb7fe9268>
    1f18:	50049357 	beql	zero,a0,fffe6c78 <lport_InputArray+0x47be6c78>
    1f1c:	5c000003 	bgtzl	zero,1f2c <Interrupt-0xb7ffe254>
    1f20:	06000003 	bltz	s0,1f30 <Interrupt-0xb7ffe250>
    1f24:	04935900 	bgezall	a0,18328 <Interrupt-0xb7fe7e58>
    1f28:	5c049357 	0x5c049357
    1f2c:	60000003 	0x60000003
    1f30:	06000003 	bltz	s0,1f40 <Interrupt-0xb7ffe240>
    1f34:	04935400 	bgezall	a0,16f38 <Interrupt-0xb7fe9248>
    1f38:	60049357 	0x60049357
    1f3c:	70000003 	0x70000003
    1f40:	06000003 	bltz	s0,1f50 <Interrupt-0xb7ffe230>
    1f44:	04935900 	bgezall	a0,18348 <Interrupt-0xb7fe7e38>
    1f48:	70049357 	0x70049357
    1f4c:	98000003 	lwr	zero,3(zero)
    1f50:	06000003 	bltz	s0,1f60 <Interrupt-0xb7ffe220>
    1f54:	04935400 	bgezall	a0,16f58 <Interrupt-0xb7fe9228>
    1f58:	a4049355 	sh	a0,-27819(zero)
    1f5c:	a8000004 	swl	zero,4(zero)
    1f60:	06000004 	bltz	s0,1f74 <Interrupt-0xb7ffe20c>
    1f64:	04935400 	bgezall	a0,16f68 <Interrupt-0xb7fe9218>
    1f68:	a8049355 	swl	a0,-27819(zero)
    1f6c:	ac000004 	sw	zero,4(zero)
    1f70:	06000004 	bltz	s0,1f84 <Interrupt-0xb7ffe1fc>
    1f74:	04935900 	bgezall	a0,18378 <Interrupt-0xb7fe7e08>
    1f78:	00049357 	0x49357
    1f7c:	00000000 	nop
    1f80:	48000000 	mfc2	zero,$0
    1f84:	70000000 	madd	zero,zero
    1f88:	01000000 	0x1000000
    1f8c:	00705b00 	0x705b00
    1f90:	00800000 	0x800000
    1f94:	00060000 	sll	zero,a2,0x0
    1f98:	0072007b 	0x72007b
    1f9c:	00809f24 	0x809f24
    1fa0:	01240000 	0x1240000
    1fa4:	00010000 	sll	zero,at,0x0
    1fa8:	00014c58 	0x14c58
    1fac:	00015800 	sll	t3,at,0x0
    1fb0:	58000100 	blezl	zero,23b4 <Interrupt-0xb7ffddcc>
    1fb4:	00000158 	0x158
    1fb8:	00000160 	0x160
    1fbc:	0078000c 	syscall	0x1e000
    1fc0:	00722cf7 	0x722cf7
    1fc4:	f71b2cf7 	sdc1	$f27,11511(t8)
    1fc8:	017c9f00 	0x17c9f00
    1fcc:	01880000 	0x1880000
    1fd0:	00060000 	sll	zero,a2,0x0
    1fd4:	00720078 	0x720078
    1fd8:	01889f24 	0x1889f24
    1fdc:	02640000 	0x2640000
    1fe0:	00010000 	sll	zero,at,0x0
    1fe4:	00032858 	0x32858
    1fe8:	00038800 	sll	s1,v1,0x0
    1fec:	58000100 	blezl	zero,23f0 <Interrupt-0xb7ffdd90>
    1ff0:	00000388 	0x388
    1ff4:	000003a4 	0x3a4
    1ff8:	a45b0001 	sh	k1,1(v0)
    1ffc:	6c000003 	0x6c000003
    2000:	01000004 	sllv	zero,zero,t0
    2004:	046c5600 	teqi	v1,22016
    2008:	04980000 	0x4980000
    200c:	00060000 	sll	zero,a2,0x0
    2010:	007a007b 	0x7a007b
    2014:	04a49f24 	0x4a49f24
    2018:	04ac0000 	teqi	a1,0
    201c:	00010000 	sll	zero,at,0x0
    2020:	00000058 	0x58
    2024:	00000000 	nop
    2028:	00004800 	sll	t1,zero,0x0
    202c:	00006800 	sll	t5,zero,0x0
    2030:	52000100 	beqzl	s0,2434 <Interrupt-0xb7ffdd4c>
    2034:	0000014c 	syscall	0x5
    2038:	00000164 	0x164
    203c:	28520001 	slti	s2,v0,1
    2040:	54000003 	bnezl	zero,2050 <Interrupt-0xb7ffe130>
    2044:	01000003 	0x1000003
    2048:	035c5200 	0x35c5200
    204c:	037c0000 	0x37c0000
    2050:	00010000 	sll	zero,at,0x0
    2054:	00038452 	0x38452
    2058:	00046800 	sll	t5,a0,0x0
    205c:	57000100 	bnezl	t8,2460 <Interrupt-0xb7ffdd20>
    2060:	000004a4 	0x4a4
    2064:	000004ac 	0x4ac
    2068:	00520001 	0x520001
    206c:	00000000 	nop
    2070:	4c000000 	mfc3	zero,$0
    2074:	88000000 	lwl	zero,0(zero)
    2078:	01000000 	0x1000000
    207c:	00885400 	0x885400
    2080:	00f40000 	0xf40000
    2084:	00010000 	sll	zero,at,0x0
    2088:	00014c59 	0x14c59
    208c:	0001a400 	sll	s4,at,0x10
    2090:	54000100 	bnezl	zero,2494 <Interrupt-0xb7ffdcec>
    2094:	000001a4 	0x1a4
    2098:	000002d0 	0x2d0
    209c:	28590001 	slti	t9,v0,1
    20a0:	50000003 	beqzl	zero,20b0 <Interrupt-0xb7ffe0d0>
    20a4:	01000003 	0x1000003
    20a8:	03505400 	0x3505400
    20ac:	035c0000 	0x35c0000
    20b0:	00010000 	sll	zero,at,0x0
    20b4:	00035c59 	0x35c59
    20b8:	00036000 	sll	t4,v1,0x0
    20bc:	54000100 	bnezl	zero,24c0 <Interrupt-0xb7ffdcc0>
    20c0:	00000360 	0x360
    20c4:	00000370 	tge	zero,zero,0xd
    20c8:	70590001 	maddu	v0,t9
    20cc:	a4000003 	sh	zero,3(zero)
    20d0:	01000003 	0x1000003
    20d4:	03a45400 	0x3a45400
    20d8:	04880000 	tgei	a0,0
    20dc:	00060000 	sll	zero,a2,0x0
    20e0:	007a0074 	teq	v1,k0,0x1
    20e4:	04a49f24 	0x4a49f24
    20e8:	04a80000 	tgei	a1,0
    20ec:	00010000 	sll	zero,at,0x0
    20f0:	0004a854 	0x4a854
    20f4:	0004ac00 	sll	s5,a0,0x10
    20f8:	59000100 	blezl	t0,24fc <Interrupt-0xb7ffdc84>
    20fc:	00000000 	nop
    2100:	00000000 	nop
    2104:	00000050 	0x50
    2108:	00000084 	0x84
    210c:	84550001 	lh	s5,1(v0)
    2110:	b8000000 	swr	zero,0(zero)
    2114:	01000000 	0x1000000
    2118:	014c5700 	0x14c5700
    211c:	01940000 	0x1940000
    2120:	00010000 	sll	zero,at,0x0
    2124:	00019455 	0x19455
    2128:	0001a400 	sll	s4,at,0x10
    212c:	57000100 	bnezl	t8,2530 <Interrupt-0xb7ffdc50>
    2130:	000001a4 	0x1a4
    2134:	00000208 	0x208
    2138:	645a0001 	0x645a0001
    213c:	80000002 	lb	zero,2(zero)
    2140:	01000002 	0x1000002
    2144:	03285500 	0x3285500
    2148:	03440000 	0x3440000
    214c:	00010000 	sll	zero,at,0x0
    2150:	00034455 	0x34455
    2154:	00037000 	sll	t6,v1,0x0
    2158:	57000100 	bnezl	t8,255c <Interrupt-0xb7ffdc24>
    215c:	00000370 	tge	zero,zero,0xd
    2160:	00000398 	0x398
    2164:	a4550001 	sh	s5,1(v0)
    2168:	04000003 	bltz	zero,2178 <Interrupt-0xb7ffe008>
    216c:	01000004 	sllv	zero,zero,t0
    2170:	04645500 	0x4645500
    2174:	04980000 	0x4980000
    2178:	00010000 	sll	zero,at,0x0
    217c:	0004a458 	0x4a458
    2180:	0004a800 	sll	s5,a0,0x0
    2184:	55000100 	bnezl	t0,2588 <Interrupt-0xb7ffdbf8>
    2188:	000004a8 	0x4a8
    218c:	000004ac 	0x4ac
    2190:	00570001 	0x570001
    2194:	00000000 	nop
    2198:	8c000000 	lw	zero,0(zero)
    219c:	bc000001 	cache	0x0,1(zero)
    21a0:	01000001 	movf	zero,t0,$fcc0
    21a4:	03a45300 	0x3a45300
    21a8:	03b80000 	0x3b80000
    21ac:	00010000 	sll	zero,at,0x0
    21b0:	00000052 	mflhxu	zero
    21b4:	00000000 	nop
    21b8:	00014400 	sll	t0,at,0x10
    21bc:	00014c00 	sll	t1,at,0x10
    21c0:	52000100 	beqzl	s0,25c4 <Interrupt-0xb7ffdbbc>
    21c4:	00000320 	0x320
    21c8:	00000328 	0x328
    21cc:	64520001 	0x64520001
    21d0:	a4000004 	sh	zero,4(zero)
    21d4:	01000004 	sllv	zero,zero,t0
    21d8:	04ac5200 	teqi	a1,20992
    21dc:	04b80000 	0x4b80000
    21e0:	00010000 	sll	zero,at,0x0
    21e4:	0004b852 	0x4b852
    21e8:	0004c400 	sll	t8,a0,0x10
    21ec:	72000400 	0x72000400
    21f0:	009f1f00 	0x9f1f00
    21f4:	00000000 	nop
    21f8:	44000000 	mfc1	zero,$f0
    21fc:	4c000001 	mfc3	zero,$0,1
    2200:	02000001 	movf	zero,s0,$fcc0
    2204:	709f3000 	0x709f3000
    2208:	7c000001 	0x7c000001
    220c:	02000001 	movf	zero,s0,$fcc0
    2210:	649f3100 	0x649f3100
    2214:	28000002 	slti	zero,zero,2
    2218:	01000003 	0x1000003
    221c:	04ac5300 	teqi	a1,21248
    2220:	04c00000 	bltz	a2,2224 <Interrupt-0xb7ffdf5c>
    2224:	00010000 	sll	zero,at,0x0
    2228:	0004c053 	0x4c053
    222c:	0004c400 	sll	t8,a0,0x10
    2230:	73000400 	0x73000400
    2234:	009f1f00 	0x9f1f00
    2238:	00000000 	nop
    223c:	7c000000 	0x7c000000
    2240:	84000001 	lh	zero,1(zero)
    2244:	06000001 	bltz	s0,224c <Interrupt-0xb7ffdf34>
    2248:	72200800 	0x72200800
    224c:	849f1c00 	lh	ra,7168(a0)
    2250:	c8000001 	lwc2	$0,1(zero)
    2254:	01000001 	movf	zero,t0,$fcc0
    2258:	03705600 	0x3705600
    225c:	03780000 	0x3780000
    2260:	00060000 	sll	zero,a2,0x0
    2264:	007a2008 	0x7a2008
    2268:	03789f1c 	0x3789f1c
    226c:	03940000 	0x3940000
    2270:	00010000 	sll	zero,at,0x0
    2274:	00039459 	0x39459
    2278:	00049800 	sll	s3,a0,0x0
    227c:	08000600 	j	1800 <Interrupt-0xb7ffe980>
    2280:	1c007a20 	bgtz	zero,20b04 <Interrupt-0xb7fdf67c>
    2284:	0000009f 	0x9f
    2288:	00000000 	nop
    228c:	00006800 	sll	t5,zero,0x0
    2290:	00009800 	sll	s3,zero,0x0
    2294:	52000100 	beqzl	s0,2698 <Interrupt-0xb7ffdae8>
    2298:	00000098 	0x98
    229c:	0000014c 	syscall	0x5
    22a0:	007b0022 	sub	zero,v1,k1
    22a4:	00062812 	0x62812
    22a8:	2f200813 	sltiu	zero,t9,2067
    22ac:	16300014 	bne	s1,s0,2300 <Interrupt-0xb7ffde80>
    22b0:	244b4012 	addiu	t3,v0,16402
    22b4:	0009281a 	0x9281a
    22b8:	23162431 	addi	s6,t8,9265
    22bc:	ef2f1601 	swc3	$15,5633(t9)
    22c0:	9f9613ff 	0x9f9613ff
    22c4:	00000164 	0x164
    22c8:	00000198 	0x198
    22cc:	38520001 	xori	s2,v0,0x1
    22d0:	98000003 	lwr	zero,3(zero)
    22d4:	01000004 	sllv	zero,zero,t0
    22d8:	00005a00 	sll	t3,zero,0x8
    22dc:	00000000 	nop
    22e0:	008c0000 	0x8c0000
    22e4:	01040000 	0x1040000
    22e8:	00010000 	sll	zero,at,0x0
    22ec:	00010453 	0x10453
    22f0:	00012400 	sll	a0,at,0x10
    22f4:	78000500 	0x78000500
    22f8:	9f254000 	0x9f254000
	...
    2304:	00000094 	0x94
    2308:	0000014c 	syscall	0x5
    230c:	005a0001 	0x5a0001
    2310:	00000000 	nop
    2314:	a4000000 	sh	zero,0(zero)
    2318:	cc000000 	pref	0x0,0(zero)
    231c:	01000000 	0x1000000
    2320:	00cc5600 	0xcc5600
    2324:	01400000 	0x1400000
    2328:	00010000 	sll	zero,at,0x0
    232c:	00000052 	mflhxu	zero
    2330:	00000000 	nop
    2334:	00010000 	sll	zero,at,0x0
    2338:	00012800 	sll	a1,at,0x0
    233c:	55000100 	bnezl	t0,2740 <Interrupt-0xb7ffda40>
    2340:	00000128 	0x128
    2344:	0000014c 	syscall	0x5
    2348:	00530001 	0x530001
    234c:	00000000 	nop
    2350:	a0000000 	sb	zero,0(zero)
    2354:	a8000000 	swl	zero,0(zero)
    2358:	01000000 	0x1000000
    235c:	00b45400 	0xb45400
    2360:	00c40000 	0xc40000
    2364:	00010000 	sll	zero,at,0x0
    2368:	0000cc54 	0xcc54
    236c:	00011000 	sll	v0,at,0x0
    2370:	54000100 	bnezl	zero,2774 <Interrupt-0xb7ffda0c>
    2374:	00000000 	nop
    2378:	00000000 	nop
    237c:	000000fc 	0xfc
    2380:	00000110 	0x110
    2384:	10560001 	beq	v0,s6,238c <Interrupt-0xb7ffddf4>
    2388:	20000001 	addi	zero,zero,1
    238c:	01000001 	movf	zero,t0,$fcc0
    2390:	00005900 	sll	t3,zero,0x4
    2394:	00000000 	nop
    2398:	00b40000 	0xb40000
    239c:	00f80000 	0xf80000
    23a0:	00010000 	sll	zero,at,0x0
    23a4:	0000f855 	0xf855
    23a8:	0000fc00 	sll	ra,zero,0x10
    23ac:	76000600 	jalx	8001800 <Interrupt-0xafffe980>
    23b0:	1e007a00 	bgtz	s0,20bb4 <Interrupt-0xb7fdf5cc>
    23b4:	0001109f 	0x1109f
    23b8:	00013400 	sll	a2,at,0x10
    23bc:	54000100 	bnezl	zero,27c0 <Interrupt-0xb7ffd9c0>
    23c0:	00000134 	teq	zero,zero,0x4
    23c4:	00000138 	0x138
    23c8:	00750006 	srlv	zero,s5,v1
    23cc:	9f1e007a 	0x9f1e007a
    23d0:	00000138 	0x138
    23d4:	0000013c 	0x13c
    23d8:	02750006 	srlv	zero,s5,s3
    23dc:	9f1e007a 	0x9f1e007a
	...
    23e8:	000001a4 	0x1a4
    23ec:	00000218 	0x218
    23f0:	18520001 	0x18520001
    23f4:	64000002 	0x64000002
    23f8:	05000002 	bltz	t0,2404 <Interrupt-0xb7ffdd7c>
    23fc:	40007800 	mfc0	zero,c0_prid
    2400:	00009f25 	0x9f25
    2404:	00000000 	nop
    2408:	01a80000 	0x1a80000
    240c:	02200000 	0x2200000
    2410:	00010000 	sll	zero,at,0x0
    2414:	00022055 	0x22055
    2418:	00026400 	sll	t4,v0,0x10
    241c:	78000700 	0x78000700
    2420:	ffff0a00 	sdc3	$31,2560(ra)
    2424:	00009f1a 	0x9f1a
    2428:	00000000 	nop
    242c:	01b40000 	0x1b40000
    2430:	01e00000 	0x1e00000
    2434:	00010000 	sll	zero,at,0x0
    2438:	0001e057 	0x1e057
    243c:	00025c00 	sll	t3,v0,0x10
    2440:	53000100 	beqzl	t8,2844 <Interrupt-0xb7ffd93c>
    2444:	00000000 	nop
    2448:	00000000 	nop
    244c:	00000214 	0x214
    2450:	0000023c 	0x23c
    2454:	3c560001 	0x3c560001
    2458:	64000002 	0x64000002
    245c:	01000002 	0x1000002
    2460:	00005200 	sll	t2,zero,0x8
    2464:	00000000 	nop
    2468:	01b00000 	0x1b00000
    246c:	01b80000 	0x1b80000
    2470:	00010000 	sll	zero,at,0x0
    2474:	0001c854 	0x1c854
    2478:	0001d800 	sll	k1,at,0x0
    247c:	54000100 	bnezl	zero,2880 <Interrupt-0xb7ffd900>
    2480:	000001e0 	0x1e0
    2484:	0000021c 	0x21c
    2488:	00540001 	movf	zero,v0,$fcc5
    248c:	00000000 	nop
    2490:	10000000 	b	2494 <Interrupt-0xb7ffdcec>
    2494:	24000002 	li	zero,2
    2498:	01000002 	0x1000002
    249c:	02245700 	0x2245700
    24a0:	02340000 	0x2340000
    24a4:	00010000 	sll	zero,at,0x0
    24a8:	00023c55 	0x23c55
    24ac:	00026400 	sll	t4,v0,0x10
    24b0:	55000100 	bnezl	t0,28b4 <Interrupt-0xb7ffd8cc>
    24b4:	00000000 	nop
    24b8:	00000000 	nop
    24bc:	000001c8 	0x1c8
    24c0:	0000020c 	syscall	0x8
    24c4:	0c560001 	jal	1580004 <Interrupt-0xb6a8017c>
    24c8:	10000002 	b	24d4 <Interrupt-0xb7ffdcac>
    24cc:	06000002 	bltz	s0,24d8 <Interrupt-0xb7ffdca8>
    24d0:	75007700 	jalx	401dc00 <Interrupt-0xb3fe2580>
    24d4:	1c9f1e00 	0x1c9f1e00
    24d8:	64000002 	0x64000002
    24dc:	01000002 	0x1000002
    24e0:	00005400 	sll	t2,zero,0x10
    24e4:	00000000 	nop
    24e8:	02680000 	0x2680000
    24ec:	02e00000 	0x2e00000
    24f0:	00010000 	sll	zero,at,0x0
    24f4:	0002e054 	0x2e054
    24f8:	00030000 	sll	zero,v1,0x0
    24fc:	78000500 	0x78000500
    2500:	9f254000 	0x9f254000
	...
    250c:	00000270 	tge	zero,zero,0x9
    2510:	00000328 	0x328
    2514:	005a0001 	0x5a0001
    2518:	00000000 	nop
    251c:	7c000000 	0x7c000000
    2520:	a8000002 	swl	zero,2(zero)
    2524:	01000002 	0x1000002
    2528:	02a85700 	0x2a85700
    252c:	031c0000 	0x31c0000
    2530:	00010000 	sll	zero,at,0x0
    2534:	00000052 	mflhxu	zero
    2538:	00000000 	nop
    253c:	0002dc00 	sll	k1,v0,0x10
    2540:	00030400 	sll	zero,v1,0x10
    2544:	56000100 	bnezl	s0,2948 <Interrupt-0xb7ffd838>
    2548:	00000304 	0x304
    254c:	00000328 	0x328
    2550:	00540001 	movf	zero,v0,$fcc5
    2554:	00000000 	nop
    2558:	78000000 	0x78000000
    255c:	84000002 	lh	zero,2(zero)
    2560:	01000002 	0x1000002
    2564:	02905200 	0x2905200
    2568:	02a00000 	0x2a00000
    256c:	00010000 	sll	zero,at,0x0
    2570:	0002a855 	0x2a855
    2574:	0002ec00 	sll	sp,v0,0x10
    2578:	55000100 	bnezl	t0,297c <Interrupt-0xb7ffd804>
    257c:	00000000 	nop
    2580:	00000000 	nop
    2584:	000002d8 	0x2d8
    2588:	000002ec 	0x2ec
    258c:	ec570001 	swc3	$23,1(v0)
    2590:	fc000002 	sdc3	$0,2(zero)
    2594:	01000002 	0x1000002
    2598:	00005900 	sll	t3,zero,0x4
    259c:	00000000 	nop
    25a0:	02900000 	0x2900000
    25a4:	02d40000 	0x2d40000
    25a8:	00010000 	sll	zero,at,0x0
    25ac:	0002d456 	0x2d456
    25b0:	0002d800 	sll	k1,v0,0x0
    25b4:	77000600 	jalx	c001800 <Interrupt-0xabffe980>
    25b8:	1e007a00 	bgtz	s0,20dbc <Interrupt-0xb7fdf3c4>
    25bc:	0002ec9f 	0x2ec9f
    25c0:	00031000 	sll	v0,v1,0x0
    25c4:	55000100 	bnezl	t0,29c8 <Interrupt-0xb7ffd7b8>
    25c8:	00000310 	0x310
    25cc:	00000314 	0x314
    25d0:	00760006 	srlv	zero,s6,v1
    25d4:	9f1e007a 	0x9f1e007a
    25d8:	00000314 	0x314
    25dc:	00000318 	0x318
    25e0:	02760006 	srlv	zero,s6,s3
    25e4:	9f1e007a 	0x9f1e007a
	...
    25f0:	0000046c 	0x46c
    25f4:	0000048c 	syscall	0x12
    25f8:	00570001 	0x570001
    25fc:	00000000 	nop
    2600:	6c000000 	0x6c000000
    2604:	8c000004 	lw	zero,4(zero)
    2608:	01000004 	sllv	zero,zero,t0
    260c:	00005600 	sll	t2,zero,0x18
    2610:	00000000 	nop
    2614:	03a40000 	0x3a40000
    2618:	04200000 	bltz	at,261c <Interrupt-0xb7ffdb64>
    261c:	00010000 	sll	zero,at,0x0
    2620:	00042058 	0x42058
    2624:	00046800 	sll	t5,a0,0x0
    2628:	77000500 	jalx	c001400 <Interrupt-0xabffed80>
    262c:	9f254000 	0x9f254000
	...
    2638:	000003a4 	0x3a4
    263c:	00000498 	0x498
    2640:	005f0001 	0x5f0001
    2644:	00000000 	nop
    2648:	b0000000 	0xb0000000
    264c:	dc000003 	ldc3	$0,3(zero)
    2650:	01000003 	0x1000003
    2654:	03dc5e00 	0x3dc5e00
    2658:	04580000 	0x4580000
    265c:	00010000 	sll	zero,at,0x0
    2660:	00000052 	mflhxu	zero
    2664:	00000000 	nop
    2668:	00041000 	sll	v0,a0,0x0
    266c:	00043800 	sll	a3,a0,0x0
    2670:	5d000100 	bgtzl	t0,2a74 <Interrupt-0xb7ffd70c>
    2674:	00000438 	0x438
    2678:	00000498 	0x498
    267c:	00550001 	movt	zero,v0,$fcc5
    2680:	00000000 	nop
    2684:	ac000000 	sw	zero,0(zero)
    2688:	b4000003 	0xb4000003
    268c:	01000003 	0x1000003
    2690:	03c45900 	0x3c45900
    2694:	03d40000 	0x3d40000
    2698:	00010000 	sll	zero,at,0x0
    269c:	0003dc59 	0x3dc59
    26a0:	00042400 	sll	a0,a0,0x10
    26a4:	59000100 	blezl	t0,2aa8 <Interrupt-0xb7ffd6d8>
    26a8:	00000000 	nop
    26ac:	00000000 	nop
    26b0:	0000040c 	syscall	0x10
    26b4:	00000414 	0x414
    26b8:	20530001 	addi	s3,v0,1
    26bc:	30000004 	andi	zero,zero,0x4
    26c0:	01000004 	sllv	zero,zero,t0
    26c4:	04385300 	0x4385300
    26c8:	04640000 	0x4640000
    26cc:	00010000 	sll	zero,at,0x0
    26d0:	00046453 	0x46453
    26d4:	00049800 	sll	s3,a0,0x0
    26d8:	58000100 	blezl	zero,2adc <Interrupt-0xb7ffd6a4>
    26dc:	00000000 	nop
    26e0:	00000000 	nop
    26e4:	000003c4 	0x3c4
    26e8:	00000408 	jr.hb	zero
    26ec:	085d0001 	j	1740004 <Interrupt-0xb68c017c>
    26f0:	20000004 	addi	zero,zero,4
    26f4:	06000004 	bltz	s0,2708 <Interrupt-0xb7ffda78>
    26f8:	7f007e00 	0x7f007e00
    26fc:	209f1e00 	addi	ra,a0,7680
    2700:	64000004 	0x64000004
    2704:	01000004 	sllv	zero,zero,t0
    2708:	04645800 	0x4645800
    270c:	04980000 	0x4980000
    2710:	00060000 	sll	zero,a2,0x0
    2714:	007f007d 	0x7f007d
    2718:	00009f1e 	0x9f1e
    271c:	00000000 	nop
    2720:	046c0000 	teqi	v1,0
    2724:	048c0000 	teqi	a0,0
    2728:	00060000 	sll	zero,a2,0x0
    272c:	57049356 	bnel	t8,a0,fffe7488 <lport_InputArray+0x47be7488>
    2730:	00000493 	0x493
    2734:	00000000 	nop
	...

Disassembly of section .debug_aranges:

00000000 <.debug_aranges>:
   0:	0000001c 	0x1c
   4:	00000002 	srl	zero,zero,0x0
   8:	00040000 	sll	zero,a0,0x0
   c:	00000000 	nop
  10:	b8001500 	swr	zero,5376(zero)
  14:	000072e4 	0x72e4
	...
  20:	0000001c 	0x1c
  24:	24790002 	addiu	t9,v1,2
  28:	00040000 	sll	zero,a0,0x0
  2c:	00000000 	nop
  30:	b80087e4 	swr	zero,-30748(zero)
  34:	0000076c 	0x76c
	...
  40:	0000001c 	0x1c
  44:	29740002 	slti	s4,t3,2
  48:	00040000 	sll	zero,a0,0x0
  4c:	00000000 	nop
  50:	b8008f50 	swr	zero,-28848(zero)
  54:	00000258 	0x258
	...
  60:	0000001c 	0x1c
  64:	2a2d0002 	slti	t5,s1,2
  68:	00040000 	sll	zero,a0,0x0
  6c:	00000000 	nop
  70:	b8000180 	swr	zero,384(zero)
  74:	0000018c 	syscall	0x6
	...
  80:	0000001c 	0x1c
  84:	2a9e0002 	slti	s8,s4,2
  88:	00040000 	sll	zero,a0,0x0
  8c:	00000000 	nop
  90:	b80091a8 	swr	zero,-28248(zero)
  94:	00002a28 	0x2a28
	...
  a0:	0000001c 	0x1c
  a4:	300f0002 	andi	t7,zero,0x2
  a8:	00040000 	sll	zero,a0,0x0
  ac:	00000000 	nop
  b0:	b800bbd0 	swr	zero,-17456(zero)
  b4:	000003e0 	0x3e0
	...
  c0:	0000001c 	0x1c
  c4:	332f0002 	andi	t7,t9,0x2
  c8:	00040000 	sll	zero,a0,0x0
  cc:	00000000 	nop
  d0:	b800bfb0 	swr	zero,-16464(zero)
  d4:	000004cc 	syscall	0x13
	...

Disassembly of section .debug_line:

00000000 <.debug_line>:
       0:	00000c57 	0xc57
       4:	006f0002 	0x6f0002
       8:	01010000 	0x1010000
       c:	000d0efb 	0xd0efb
      10:	01010101 	0x1010101
      14:	01000000 	0x1000000
      18:	72010000 	madd	s0,at
      1c:	5f637369 	0x5f637369
      20:	746e7572 	jalx	1b9d5c8 <Interrupt-0xb6462bb8>
      24:	00656d69 	0x656d69
      28:	69616d00 	0x69616d00
      2c:	00632e6e 	0x632e6e
      30:	72000000 	madd	s0,zero
      34:	5f637369 	0x5f637369
      38:	65746e69 	0x65746e69
      3c:	70757272 	0x70757272
      40:	00682e74 	teq	v1,t0,0xb9
      44:	67000001 	0x67000001
      48:	73616769 	0x73616769
      4c:	5f727770 	0x5f727770
      50:	6373696d 	0x6373696d
      54:	7070682e 	0x7070682e
      58:	00000100 	sll	zero,zero,0x4
      5c:	766e6f43 	jalx	9b9bd0c <Interrupt-0xae464474>
      60:	2e747265 	sltiu	s4,s3,29285
      64:	00000068 	0x68
      68:	414d4400 	0x414d4400
      6c:	616c435f 	0x616c435f
      70:	682e7373 	0x682e7373
      74:	00000000 	nop
      78:	02050000 	0x2050000
      7c:	b8001500 	swr	zero,5376(zero)
      80:	0102be03 	0x102be03
      84:	f3f34df3 	0xf3f34df3
      88:	f3f4f3f3 	0xf3f4f3f3
      8c:	f3f20903 	0xf3f20903
      90:	f3f20903 	0xf3f20903
      94:	f4f20903 	sdc1	$f18,2307(a3)
      98:	03f3f8f3 	tltu	ra,s3,0x3e3
      9c:	03f3f20b 	0x3f3f20b
      a0:	03f3f20b 	0x3f3f20b
      a4:	03f3f20b 	0x3f3f20b
      a8:	f7f3f20b 	sdc1	$f19,-3573(ra)
      ac:	f7f3f7f3 	sdc1	$f19,-2061(ra)
      b0:	f8f3f7f3 	sdc2	$19,-2061(a3)
      b4:	f8f3f8f3 	sdc2	$19,-1805(a3)
      b8:	f8f3f8f3 	sdc2	$19,-1805(a3)
      bc:	f8f3f8f3 	sdc2	$19,-1805(a3)
      c0:	f5f3f8f3 	sdc1	$f19,-1805(t7)
      c4:	f5f3f5f3 	sdc1	$f19,-2573(t7)
      c8:	f8f3f6f3 	sdc2	$19,-2317(a3)
      cc:	f8f3f8f3 	sdc2	$19,-1805(a3)
      d0:	f5f3f8f3 	sdc1	$f19,-1805(t7)
      d4:	f5f3f5f3 	sdc1	$f19,-2573(t7)
      d8:	f3f3f7f3 	0xf3f3f7f3
      dc:	f4f3f4f3 	sdc1	$f19,-2829(a3)
      e0:	f4f3f4f3 	sdc1	$f19,-2829(a3)
      e4:	f4f3f6f3 	sdc1	$f19,-2317(a3)
      e8:	f4f3f4f3 	sdc1	$f19,-2829(a3)
      ec:	f3f3f8f3 	0xf3f3f8f3
      f0:	f3f3f3f3 	0xf3f3f3f3
      f4:	f3f3f3f3 	0xf3f3f3f3
      f8:	f3f3f3f3 	0xf3f3f3f3
      fc:	f3f3f3f3 	0xf3f3f3f3
     100:	f3f3f3f3 	0xf3f3f3f3
     104:	f3f3f3f3 	0xf3f3f3f3
     108:	f3f3f3f3 	0xf3f3f3f3
     10c:	f3f3f3f3 	0xf3f3f3f3
     110:	f3f3f3f3 	0xf3f3f3f3
     114:	f3f3f3f3 	0xf3f3f3f3
     118:	f3f3f3f3 	0xf3f3f3f3
     11c:	f3f3f3f3 	0xf3f3f3f3
     120:	f3f3f3f3 	0xf3f3f3f3
     124:	f3f3f3f3 	0xf3f3f3f3
     128:	f3f3f3f3 	0xf3f3f3f3
     12c:	0200f5f3 	tltu	s0,zero,0x3d7
     130:	ba060204 	swr	a2,516(s0)
     134:	01040200 	0x1040200
     138:	06126002 	bltzall	s0,18144 <Interrupt-0xb7fe803c>
     13c:	02007508 	0x2007508
     140:	ba060204 	swr	a2,516(s0)
     144:	01040200 	0x1040200
     148:	06126002 	bltzall	s0,18154 <Interrupt-0xb7fe802c>
     14c:	02007508 	0x2007508
     150:	ba060204 	swr	a2,516(s0)
     154:	01040200 	0x1040200
     158:	06126002 	bltzall	s0,18164 <Interrupt-0xb7fe801c>
     15c:	f3f37b08 	0xf3f37b08
     160:	f3f3f3f3 	0xf3f3f3f3
     164:	f3f3f3f3 	0xf3f3f3f3
     168:	f3f3f3f3 	0xf3f3f3f3
     16c:	f3f3f3f3 	0xf3f3f3f3
     170:	f3f3f3f3 	0xf3f3f3f3
     174:	f3f3f3f3 	0xf3f3f3f3
     178:	f3f3f3f3 	0xf3f3f3f3
     17c:	f3f3f3f3 	0xf3f3f3f3
     180:	f3f3f3f3 	0xf3f3f3f3
     184:	f3f3f3f3 	0xf3f3f3f3
     188:	f3f3f3f3 	0xf3f3f3f3
     18c:	f3f3f3f3 	0xf3f3f3f3
     190:	f3f3f3f3 	0xf3f3f3f3
     194:	f3f3f3f3 	0xf3f3f3f3
     198:	f3f3f3f3 	0xf3f3f3f3
     19c:	0200f6f3 	tltu	s0,zero,0x3db
     1a0:	ba060204 	swr	a2,516(s0)
     1a4:	01040200 	0x1040200
     1a8:	06126002 	bltzall	s0,181b4 <Interrupt-0xb7fe7fcc>
     1ac:	02007508 	0x2007508
     1b0:	ba060204 	swr	a2,516(s0)
     1b4:	01040200 	0x1040200
     1b8:	06126002 	bltzall	s0,181c4 <Interrupt-0xb7fe7fbc>
     1bc:	02007508 	0x2007508
     1c0:	ba060204 	swr	a2,516(s0)
     1c4:	01040200 	0x1040200
     1c8:	06126002 	bltzall	s0,181d4 <Interrupt-0xb7fe7fac>
     1cc:	79087608 	0x79087608
     1d0:	f37a08f4 	0xf37a08f4
     1d4:	02003d08 	0x2003d08
     1d8:	4a060104 	c2	0x60104
     1dc:	08750806 	j	1d42018 <Interrupt-0xb62be168>
     1e0:	f33d0877 	0xf33d0877
     1e4:	f3eb08f3 	0xf3eb08f3
     1e8:	08133c02 	j	4cf008 <Interrupt-0xb7b31178>
     1ec:	3802f376 	xori	v0,zero,0xf376
     1f0:	08760813 	j	1d8204c <Interrupt-0xb627e134>
     1f4:	0402003e 	bltzl	zero,2f0 <Interrupt-0xb7fffe90>
     1f8:	0200bb02 	0x200bb02
     1fc:	54020204 	bnel	zero,v0,a10 <Interrupt-0xb7fff770>
     200:	04020011 	bltzl	zero,248 <Interrupt-0xb7ffff38>
     204:	3c080601 	lui	t0,0x601
     208:	08760806 	j	1d82018 <Interrupt-0xb627e168>
     20c:	00f4f376 	tne	a3,s4,0x3cd
     210:	bb020402 	swr	v0,1026(t8)
     214:	02040200 	0x2040200
     218:	00113c02 	srl	a3,s1,0x10
     21c:	06010402 	bgez	s0,1228 <Interrupt-0xb7ffef58>
     220:	08063c08 	j	18f020 <Interrupt-0xb7e71160>
     224:	08e60876 	j	39821d8 <Interrupt-0xb467dfa8>
     228:	152c02ae 	bne	t1,t4,ce4 <Interrupt-0xb7fff49c>
     22c:	40023d08 	0x40023d08
     230:	02750813 	0x2750813
     234:	3d081328 	0x3d081328
     238:	3d08ae08 	0x3d08ae08
     23c:	02133402 	0x2133402
     240:	30021328 	andi	v0,zero,0x1328
     244:	13340213 	beq	t9,s4,a94 <Interrupt-0xb7fff6ec>
     248:	023d0887 	0x23d0887
     24c:	02140180 	0x2140180
     250:	77081338 	jalx	c204ce0 <Interrupt-0xabdfb4a0>
     254:	02143802 	0x2143802
     258:	75081338 	jalx	4204ce0 <Interrupt-0xb3dfb4a0>
     25c:	7608e608 	jalx	8239820 <Interrupt-0xafdc6960>
     260:	2c023e08 	sltiu	v0,zero,15880
     264:	132c0213 	beq	t9,t4,ab4 <Interrupt-0xb7fff6cc>
     268:	02132c02 	0x2132c02
     26c:	3802132c 	xori	v0,zero,0x132c
     270:	77084c13 	jalx	c21304c <Interrupt-0xabded134>
     274:	b1083d08 	0xb1083d08
     278:	78023d08 	0x78023d08
     27c:	77084c13 	jalx	c21304c <Interrupt-0xabded134>
     280:	2c027508 	sltiu	v0,zero,29960
     284:	08e50813 	j	394204c <Interrupt-0xb46be134>
     288:	023d0877 	0x23d0877
     28c:	7708134c 	jalx	c204d30 <Interrupt-0xabdfb450>
     290:	34023d08 	li	v0,0x3d08
     294:	134c0213 	beq	k0,t4,ae4 <Interrupt-0xb7fff69c>
     298:	08f57708 	j	3d5dc20 <Interrupt-0xb42a2560>
     29c:	34028475 	li	v0,0x8475
     2a0:	083e0813 	j	f8204c <Interrupt-0xb707e134>
     2a4:	083d083d 	j	f420f4 <Interrupt-0xb70be08c>
     2a8:	0875083d 	j	1d420f4 <Interrupt-0xb62be08c>
     2ac:	02760875 	0x2760875
     2b0:	77081334 	jalx	c204cd0 <Interrupt-0xabdfb4b0>
     2b4:	7508af08 	jalx	422bc20 <Interrupt-0xb3dd4560>
     2b8:	143c02bc 	bne	at,gp,dac <Interrupt-0xb7fff3d4>
     2bc:	48023d08 	0x48023d08
     2c0:	f384f314 	0xf384f314
     2c4:	f384f384 	0xf384f384
     2c8:	f384f384 	0xf384f384
     2cc:	0883f584 	j	20fd610 <Interrupt-0xb5f02b70>
     2d0:	4cad08e8 	0x4cad08e8
     2d4:	04020083 	bltzl	zero,4e4 <Interrupt-0xb7fffc9c>
     2d8:	34020601 	li	v0,0x601
     2dc:	3d080612 	0x3d080612
     2e0:	040200f3 	bltzl	zero,6b0 <Interrupt-0xb7fffad0>
     2e4:	2c02b701 	sltiu	v0,zero,-18687
     2e8:	e7084b18 	swc1	$f8,19224(t8)
     2ec:	132c02f3 	beq	t9,t4,ebc <Interrupt-0xb7fff2c4>
     2f0:	76087708 	jalx	821dc20 <Interrupt-0xafde2560>
     2f4:	40087508 	0x40087508
     2f8:	e6084bbc 	swc1	$f8,19388(s0)
     2fc:	75083f08 	jalx	420fc20 <Interrupt-0xb3df0560>
     300:	13340284 	beq	t9,s4,d14 <Interrupt-0xb7fff46c>
     304:	3d083d08 	0x3d083d08
     308:	34023d08 	li	v0,0x3d08
     30c:	08e50814 	j	3942050 <Interrupt-0xb46be130>
     310:	083d083d 	j	f420f4 <Interrupt-0xb70be08c>
     314:	bb7508ae 	swr	s5,2222(k1)
     318:	081e03bb 	j	780eec <Interrupt-0xb787f294>
     31c:	4bbbf3e4 	c2	0x1bbf3e4
     320:	084b4cbb 	j	12d32ec <Interrupt-0xb6d2ce94>
     324:	4bbbf377 	c2	0x1bbf377
     328:	7a084b4b 	0x7a084b4b
     32c:	02004008 	0x2004008
     330:	24020204 	li	v0,516
     334:	04020013 	bltzl	zero,384 <Interrupt-0xb7fffdfc>
     338:	13280202 	beq	t9,t0,b44 <Interrupt-0xb7fff63c>
     33c:	02040200 	0x2040200
     340:	00134002 	srl	t0,s3,0x0
     344:	02020402 	0x2020402
     348:	02000f28 	0x2000f28
     34c:	02060104 	0x2060104
     350:	08061228 	j	1848a0 <Interrupt-0xb7e7b8e0>
     354:	08e808e9 	j	3a023a4 <Interrupt-0xb45fdddc>
     358:	13240277 	beq	t9,a0,d38 <Interrupt-0xb7fff448>
     35c:	02003d08 	0x2003d08
     360:	004c0104 	0x4c0104
     364:	02010402 	0x2010402
     368:	3c021374 	lui	v0,0x1374
     36c:	023d0813 	0x23d0813
     370:	ad08132c 	sw	t0,4908(t0)
     374:	08e708f3 	j	39c23cc <Interrupt-0xb463ddb4>
     378:	f33d083e 	0xf33d083e
     37c:	02040200 	0x2040200
     380:	040200f4 	bltzl	zero,754 <Interrupt-0xb7fffa2c>
     384:	13480202 	beq	k0,t0,b90 <Interrupt-0xb7fff5f0>
     388:	02040200 	0x2040200
     38c:	02003908 	0x2003908
     390:	08060104 	j	180410 <Interrupt-0xb7e7fd70>
     394:	4108063c 	0x4108063c
     398:	74080d03 	jalx	20340c <Interrupt-0xb7dfcd74>
     39c:	30023f08 	andi	v0,zero,0x3f08
     3a0:	08bbf314 	j	2efcc50 <Interrupt-0xb5103530>
     3a4:	f4ad08ad 	sdc1	$f13,2221(a1)
     3a8:	3f087608 	0x3f087608
     3ac:	f3143002 	0xf3143002
     3b0:	08ad08bb 	j	2b422ec <Interrupt-0xb54bde94>
     3b4:	7708f4ad 	jalx	c23d2b4 <Interrupt-0xabdc2ecc>
     3b8:	76083e08 	jalx	820f820 <Interrupt-0xafdf0960>
     3bc:	01040200 	0x1040200
     3c0:	02064a06 	0x2064a06
     3c4:	76081324 	jalx	8204c90 <Interrupt-0xafdfb4f0>
     3c8:	040200bd 	bltzl	zero,6c0 <Interrupt-0xb7fffac0>
     3cc:	064a0601 	tlti	s2,1537
     3d0:	7508e508 	jalx	4239420 <Interrupt-0xb3dc6d60>
     3d4:	08780883 	j	1e0220c <Interrupt-0xb61fdf74>
     3d8:	0200833d 	0x200833d
     3dc:	2c020104 	sltiu	v0,zero,260
     3e0:	83e60811 	lb	a2,2065(ra)
     3e4:	ad08e708 	sw	t0,-6392(t0)
     3e8:	0402004c 	bltzl	zero,51c <Interrupt-0xb7fffc64>
     3ec:	00ba0602 	0xba0602
     3f0:	02010402 	0x2010402
     3f4:	08061240 	j	184900 <Interrupt-0xb7e7b880>
     3f8:	08e708e5 	j	39c2394 <Interrupt-0xb463ddec>
     3fc:	e608f375 	swc1	$f8,-3211(s0)
     400:	e708f3f3 	swc1	$f8,-3085(t8)
     404:	08f37508 	j	3cdd420 <Interrupt-0xb4322d60>
     408:	08f3f376 	j	3cfcdd8 <Interrupt-0xb43033a8>
     40c:	f37508e7 	0xf37508e7
     410:	08f37608 	j	3cdd820 <Interrupt-0xb4322960>
     414:	f37508e7 	0xf37508e7
     418:	03f3e608 	0x3f3e608
     41c:	bce4080e 	cache	0x4,2062(a3)
     420:	08132402 	j	4c9008 <Interrupt-0xb7b37178>
     424:	0200bc77 	0x200bc77
     428:	4a060104 	c2	0x60104
     42c:	02750806 	srlv	at,s5,s3
     430:	02001340 	0x2001340
     434:	08060104 	j	180410 <Interrupt-0xb7e7fd70>
     438:	08830674 	j	20c19d0 <Interrupt-0xb5f3e7b0>
     43c:	780883ad 	0x780883ad
     440:	4c4b3d08 	0x4c4b3d08
     444:	02007608 	0x2007608
     448:	08060104 	j	180410 <Interrupt-0xb7e7fd70>
     44c:	040200ac 	bltzl	zero,700 <Interrupt-0xb7fffa80>
     450:	06ac0802 	teqi	s5,2050
     454:	2402bc84 	li	v0,-17276
     458:	00ad0813 	0xad0813
     45c:	06010402 	bgez	s0,1468 <Interrupt-0xb7ffed18>
     460:	06122802 	bltzall	s0,a46c <Interrupt-0xb7ff5d14>
     464:	0402007e 	bltzl	zero,660 <Interrupt-0xb7fffb20>
     468:	3c080601 	lui	t0,0x601
     46c:	02ea0806 	srlv	at,t2,s7
     470:	02f41424 	0x2f41424
     474:	4cf31628 	0x4cf31628
     478:	01040200 	0x1040200
     47c:	02008206 	0x2008206
     480:	40020204 	0x40020204
     484:	76080612 	jalx	8201848 <Interrupt-0xafdfe938>
     488:	08770883 	j	1dc220c <Interrupt-0xb623df74>
     48c:	0402003d 	bltzl	zero,584 <Interrupt-0xb7fffbfc>
     490:	74080601 	jalx	201804 <Interrupt-0xb7dfe97c>
     494:	02040200 	0x2040200
     498:	06122c02 	bltzall	s0,b4a4 <Interrupt-0xb7ff4cdc>
     49c:	00132402 	srl	a0,s3,0x10
     4a0:	06010402 	bgez	s0,14ac <Interrupt-0xb7ffecd4>
     4a4:	02007408 	0x2007408
     4a8:	2c020204 	sltiu	v0,zero,516
     4ac:	24020612 	li	v0,1554
     4b0:	04020014 	bltzl	zero,504 <Interrupt-0xb7fffc7c>
     4b4:	74080601 	jalx	201804 <Interrupt-0xb7dfe97c>
     4b8:	02040200 	0x2040200
     4bc:	06122c02 	bltzall	s0,b4c8 <Interrupt-0xb7ff4cb8>
     4c0:	00132402 	srl	a0,s3,0x10
     4c4:	06010402 	bgez	s0,14d0 <Interrupt-0xb7ffecb0>
     4c8:	02007408 	0x2007408
     4cc:	2c020204 	sltiu	v0,zero,516
     4d0:	24020612 	li	v0,1554
     4d4:	04020014 	bltzl	zero,528 <Interrupt-0xb7fffc58>
     4d8:	74080601 	jalx	201804 <Interrupt-0xb7dfe97c>
     4dc:	02040200 	0x2040200
     4e0:	06122c02 	bltzall	s0,b4ec <Interrupt-0xb7ff4c94>
     4e4:	00132402 	srl	a0,s3,0x10
     4e8:	06010402 	bgez	s0,14f4 <Interrupt-0xb7ffec8c>
     4ec:	02007408 	0x2007408
     4f0:	2c020204 	sltiu	v0,zero,516
     4f4:	24020612 	li	v0,1554
     4f8:	08770813 	j	1dc204c <Interrupt-0xb623e134>
     4fc:	0402003d 	bltzl	zero,5f4 <Interrupt-0xb7fffb8c>
     500:	74080601 	jalx	201804 <Interrupt-0xb7dfe97c>
     504:	02040200 	0x2040200
     508:	06122c02 	bltzall	s0,b514 <Interrupt-0xb7ff4c6c>
     50c:	00132402 	srl	a0,s3,0x10
     510:	06010402 	bgez	s0,151c <Interrupt-0xb7ffec64>
     514:	02007408 	0x2007408
     518:	2c020204 	sltiu	v0,zero,516
     51c:	24020612 	li	v0,1554
     520:	04020014 	bltzl	zero,574 <Interrupt-0xb7fffc0c>
     524:	74080601 	jalx	201804 <Interrupt-0xb7dfe97c>
     528:	02040200 	0x2040200
     52c:	06122c02 	bltzall	s0,b538 <Interrupt-0xb7ff4c48>
     530:	00132402 	srl	a0,s3,0x10
     534:	06010402 	bgez	s0,1540 <Interrupt-0xb7ffec40>
     538:	02007408 	0x2007408
     53c:	2c020204 	sltiu	v0,zero,516
     540:	24020612 	li	v0,1554
     544:	04020014 	bltzl	zero,598 <Interrupt-0xb7fffbe8>
     548:	74080601 	jalx	201804 <Interrupt-0xb7dfe97c>
     54c:	02040200 	0x2040200
     550:	06122c02 	bltzall	s0,b55c <Interrupt-0xb7ff4c24>
     554:	00132402 	srl	a0,s3,0x10
     558:	06010402 	bgez	s0,1564 <Interrupt-0xb7ffec1c>
     55c:	02007408 	0x2007408
     560:	2c020204 	sltiu	v0,zero,516
     564:	24020612 	li	v0,1554
     568:	be770813 	cache	0x17,2067(s3)
     56c:	080a03bb 	j	280eec <Interrupt-0xb7d7f294>
     570:	bbbcf3e4 	swr	gp,-3100(sp)
     574:	e4081003 	swc1	$f8,4099(zero)
     578:	080b03bb 	j	2c0eec <Interrupt-0xb7d3f294>
     57c:	e608bbe4 	swc1	$f8,-17436(s0)
     580:	080d03bb 	j	340eec <Interrupt-0xb7cbf294>
     584:	08bbf374 	j	2efcdd0 <Interrupt-0xb51033b0>
     588:	7808bc79 	0x7808bc79
     58c:	132402bd 	beq	t9,a0,1084 <Interrupt-0xb7fff0fc>
     590:	02bd7708 	0x2bd7708
     594:	78081324 	0x78081324
     598:	132c02c0 	beq	t9,t4,109c <Interrupt-0xb7fff0e4>
     59c:	77087708 	jalx	c21dc20 <Interrupt-0xabde2560>
     5a0:	7808ae08 	0x7808ae08
     5a4:	02e608bc 	0x2e608bc
     5a8:	02001348 	0x2001348
     5ac:	08060104 	j	180410 <Interrupt-0xb7e7fd70>
     5b0:	02840674 	teq	s4,a0,0x19
     5b4:	bc831428 	cache	0x3,5160(a0)
     5b8:	f3bb7a08 	0xf3bb7a08
     5bc:	7708bbf4 	jalx	c22efd0 <Interrupt-0xabdd11b0>
     5c0:	bbf4f3bb 	swr	s4,-3141(ra)
     5c4:	4fbd7708 	c3	0x1bd7708
     5c8:	4408e608 	0x4408e608
     5cc:	77033b08 	jalx	c0cec20 <Interrupt-0xabf31560>
     5d0:	ba10034a 	swr	s0,842(s0)
     5d4:	03bbbcf3 	tltu	sp,k1,0x2f3
     5d8:	bbe40810 	swr	a0,2064(ra)
     5dc:	e4080b03 	swc1	$f8,2819(zero)
     5e0:	bbe608bb 	swr	a2,2235(ra)
     5e4:	bbbe7708 	swr	s8,30472(sp)
     5e8:	24020d03 	li	v0,3331
     5ec:	c503f401 	lwc1	$f3,-3071(t0)
     5f0:	7708ba00 	jalx	c22e800 <Interrupt-0xabdd1980>
     5f4:	16034fbe 	bne	s0,v1,144f0 <Interrupt-0xb7febc90>
     5f8:	0d03bbba 	jal	40eeee8 <Interrupt-0xb3f11298>
     5fc:	03012402 	0x3012402
     600:	7708f229 	jalx	c23c8a4 <Interrupt-0xabdc38dc>
     604:	0200ad08 	0x200ad08
     608:	08060104 	j	180410 <Interrupt-0xb7e7fd70>
     60c:	0402003c 	bltzl	zero,700 <Interrupt-0xb7fffa80>
     610:	123c0202 	beq	s1,gp,e1c <Interrupt-0xb7fff364>
     614:	13300206 	beq	t9,s0,e30 <Interrupt-0xb7fff350>
     618:	ad087708 	sw	t0,30472(t0)
     61c:	01040200 	0x1040200
     620:	003c0806 	srlv	at,gp,at
     624:	02020402 	0x2020402
     628:	0206123c 	0x206123c
     62c:	79081330 	0x79081330
     630:	77083f08 	jalx	c20fc20 <Interrupt-0xabdf0560>
     634:	f4f37508 	sdc1	$f19,29960(a3)
     638:	bbf43e08 	swr	s4,15880(ra)
     63c:	f3f3bbf3 	0xf3f3bbf3
     640:	f67808bb 	sdc1	$f24,2235(s3)
     644:	7508e708 	jalx	4239c20 <Interrupt-0xb3dc6560>
     648:	3e08f4f3 	0x3e08f4f3
     64c:	bbf3bbf4 	swr	s3,-17420(ra)
     650:	08bbf3f3 	j	2efcfcc <Interrupt-0xb51031b4>
     654:	e708f376 	swc1	$f8,-3210(t8)
     658:	4b133802 	c2	0x1133802
     65c:	087608f6 	j	1d823d8 <Interrupt-0xb627dda8>
     660:	144002ae 	bnez	v0,111c <Interrupt-0xb7fff064>
     664:	48027508 	0x48027508
     668:	02750814 	0x2750814
     66c:	75081448 	jalx	4205120 <Interrupt-0xb3dfb060>
     670:	08144802 	j	512008 <Interrupt-0xb7aee178>
     674:	14480275 	bne	v0,t0,104c <Interrupt-0xb7fff134>
     678:	e508e508 	swc1	$f8,-6904(t0)
     67c:	e508e508 	swc1	$f8,-6904(t0)
     680:	e508e508 	swc1	$f8,-6904(t0)
     684:	e708e508 	swc1	$f8,-6904(t8)
     688:	156002f5 	bnez	t3,1260 <Interrupt-0xb7ffef20>
     68c:	08ba2b03 	j	2e8ac0c <Interrupt-0xb5175574>
     690:	4c3e087b 	0x4c3e087b
     694:	02003d08 	0x2003d08
     698:	08060104 	j	180410 <Interrupt-0xb7e7fd70>
     69c:	3d080674 	0x3d080674
     6a0:	00868483 	0x868483
     6a4:	06010402 	bgez	s0,16b0 <Interrupt-0xb7ffead0>
     6a8:	06123002 	bltzall	s0,c6b4 <Interrupt-0xb7ff3acc>
     6ac:	83bc7708 	lb	gp,30472(sp)
     6b0:	83838383 	lb	v1,-31869(gp)
     6b4:	8383bbbb 	lb	v1,-17477(gp)
     6b8:	bb838383 	swr	v1,-31869(gp)
     6bc:	868383bb 	lh	v1,-31813(s4)
     6c0:	08134002 	j	4d0008 <Interrupt-0xb7b30178>
     6c4:	040200e6 	bltzl	zero,a60 <Interrupt-0xb7fff720>
     6c8:	2c020601 	sltiu	v0,zero,1537
     6cc:	50020612 	beql	zero,v0,1f18 <Interrupt-0xb7ffe268>
     6d0:	04020014 	bltzl	zero,724 <Interrupt-0xb7fffa5c>
     6d4:	2c020602 	sltiu	v0,zero,1538
     6d8:	04020012 	bltzl	zero,724 <Interrupt-0xb7fffa5c>
     6dc:	122c0201 	beq	s1,t4,ee4 <Interrupt-0xb7fff29c>
     6e0:	14300206 	bne	at,s0,efc <Interrupt-0xb7fff284>
     6e4:	01040200 	0x1040200
     6e8:	122c0206 	beq	s1,t4,f04 <Interrupt-0xb7fff27c>
     6ec:	14480206 	bne	v0,t0,f08 <Interrupt-0xb7fff278>
     6f0:	01040200 	0x1040200
     6f4:	122c0206 	beq	s1,t4,f10 <Interrupt-0xb7fff270>
     6f8:	14300206 	bne	at,s0,f14 <Interrupt-0xb7fff26c>
     6fc:	01040200 	0x1040200
     700:	06ac0806 	teqi	s5,2054
     704:	00145002 	srl	t2,s4,0x0
     708:	06010402 	bgez	s0,1714 <Interrupt-0xb7ffea6c>
     70c:	02067408 	0x2067408
     710:	0200143c 	0x200143c
     714:	08060104 	j	180410 <Interrupt-0xb7e7fd70>
     718:	54020674 	bnel	zero,v0,20ec <Interrupt-0xb7ffe094>
     71c:	04020013 	bltzl	zero,76c <Interrupt-0xb7fffa14>
     720:	74080601 	jalx	201804 <Interrupt-0xb7dfe97c>
     724:	14540206 	bne	v0,s4,f40 <Interrupt-0xb7fff240>
     728:	02007508 	0x2007508
     72c:	08060104 	j	180410 <Interrupt-0xb7e7fd70>
     730:	240206ac 	li	v0,1708
     734:	04020015 	bltzl	zero,78c <Interrupt-0xb7fff9f4>
     738:	74080601 	jalx	201804 <Interrupt-0xb7dfe97c>
     73c:	146c0206 	bne	v1,t4,f58 <Interrupt-0xb7fff228>
     740:	01040200 	0x1040200
     744:	06740806 	0x6740806
     748:	00165002 	srl	t2,s6,0x0
     74c:	06010402 	bgez	s0,1758 <Interrupt-0xb7ffea28>
     750:	02067408 	0x2067408
     754:	02001458 	0x2001458
     758:	02060104 	0x2060104
     75c:	02001228 	0x2001228
     760:	2c020204 	sltiu	v0,zero,516
     764:	00840612 	0x840612
     768:	06010402 	bgez	s0,1774 <Interrupt-0xb7ffea0c>
     76c:	0806ac08 	j	1ab020 <Interrupt-0xb7e55160>
     770:	040200ad 	bltzl	zero,a28 <Interrupt-0xb7fff758>
     774:	ac080601 	sw	t0,1537(zero)
     778:	08ad0806 	j	2b42018 <Interrupt-0xb54be168>
     77c:	0402003d 	bltzl	zero,874 <Interrupt-0xb7fff90c>
     780:	82400301 	lb	zero,769(s2)
     784:	0800c503 	j	3140c <Interrupt-0xb7fced74>
     788:	0076083c 	0x76083c
     78c:	06010402 	bgez	s0,1798 <Interrupt-0xb7ffe9e8>
     790:	08067408 	j	19d020 <Interrupt-0xb7e63160>
     794:	040200e5 	bltzl	zero,b2c <Interrupt-0xb7fff654>
     798:	28020601 	slti	v0,zero,1537
     79c:	e6080612 	swc1	$f8,1554(s0)
     7a0:	e6087708 	swc1	$f8,30472(s0)
     7a4:	e508ad08 	swc1	$f8,-21240(t0)
     7a8:	08e608f5 	j	39823d4 <Interrupt-0xb467ddac>
     7ac:	bbe508ad 	swr	a1,2221(ra)
     7b0:	f4838383 	sdc1	$f3,-31869(a0)
     7b4:	ad08e608 	sw	t0,-6648(t0)
     7b8:	2802e508 	slti	v0,zero,-6904
     7bc:	08e60814 	j	3982050 <Interrupt-0xb467e130>
     7c0:	080b03ad 	j	2c0eb4 <Interrupt-0xb7d3f2cc>
     7c4:	f4f3f3e4 	sdc1	$f19,-3100(a3)
     7c8:	08e608f5 	j	39823d4 <Interrupt-0xb467ddac>
     7cc:	00e508ad 	0xe508ad
     7d0:	06010402 	bgez	s0,17dc <Interrupt-0xb7ffe9a4>
     7d4:	02007408 	0x2007408
     7d8:	74080204 	jalx	200810 <Interrupt-0xb7dff970>
     7dc:	08760806 	j	1d82018 <Interrupt-0xb627e168>
     7e0:	08f3f3e6 	j	3cfcf98 <Interrupt-0xb43031e8>
     7e4:	08e6083e 	j	39820f8 <Interrupt-0xb467e088>
     7e8:	02e508ad 	0x2e508ad
     7ec:	e6081424 	swc1	$f8,5156(s0)
     7f0:	08ad08f3 	j	2b423cc <Interrupt-0xb54bddb4>
     7f4:	02e508e5 	0x2e508e5
     7f8:	e6081428 	swc1	$f8,5160(s0)
     7fc:	e508ad08 	swc1	$f8,-21240(t0)
     800:	08152802 	j	54a008 <Interrupt-0xb7ab6178>
     804:	08ad08e6 	j	2b42398 <Interrupt-0xb54bdde8>
     808:	152802e5 	bne	t1,t0,13a0 <Interrupt-0xb7ffede0>
     80c:	ad08e608 	sw	t0,-6648(t0)
     810:	e508ad08 	swc1	$f8,-21240(t0)
     814:	4402e508 	0x4402e508
     818:	08e60815 	j	3982054 <Interrupt-0xb467e12c>
     81c:	08ad08ad 	j	2b422b4 <Interrupt-0xb54bdecc>
     820:	153402e5 	bne	t1,s4,13b8 <Interrupt-0xb7ffedc8>
     824:	02040200 	0x2040200
     828:	0200ba06 	0x200ba06
     82c:	30020104 	andi	v0,zero,0x104
     830:	75080612 	jalx	4201848 <Interrupt-0xb3dfe938>
     834:	02040200 	0x2040200
     838:	0200ba06 	0x200ba06
     83c:	30020104 	andi	v0,zero,0x104
     840:	75080612 	jalx	4201848 <Interrupt-0xb3dfe938>
     844:	02040200 	0x2040200
     848:	0200ba06 	0x200ba06
     84c:	30020104 	andi	v0,zero,0x104
     850:	75080612 	jalx	4201848 <Interrupt-0xb3dfe938>
     854:	02040200 	0x2040200
     858:	040200bc 	bltzl	zero,b4c <Interrupt-0xb7fff634>
     85c:	00aa0802 	0xaa0802
     860:	06010402 	bgez	s0,186c <Interrupt-0xb7ffe914>
     864:	08063c08 	j	18f020 <Interrupt-0xb7e71160>
     868:	83838379 	lb	v1,-31879(gp)
     86c:	83834b83 	lb	v1,19331(gp)
     870:	83838383 	lb	v1,-31869(gp)
     874:	83838383 	lb	v1,-31869(gp)
     878:	bbbb8483 	swr	k1,-31613(sp)
     87c:	084bfa85 	j	12fea14 <Interrupt-0xb6d0176c>
     880:	f3bbbbea 	0xf3bbbbea
     884:	132402f5 	beq	t9,a0,145c <Interrupt-0xb7ffed24>
     888:	02bb7908 	0x2bb7908
     88c:	02001324 	0x2001324
     890:	08060104 	j	180410 <Interrupt-0xb7e7fd70>
     894:	ad080674 	sw	t0,1652(t0)
     898:	01040200 	0x1040200
     89c:	06740806 	0x6740806
     8a0:	0200ad08 	0x200ad08
     8a4:	08060104 	j	180410 <Interrupt-0xb7e7fd70>
     8a8:	ae080674 	sw	t0,1652(s0)
     8ac:	4bf37c08 	c2	0x1f37c08
     8b0:	02007508 	0x2007508
     8b4:	4a060104 	c2	0x60104
     8b8:	08e50806 	j	3942018 <Interrupt-0xb46be168>
     8bc:	033d0875 	0x33d0875
     8c0:	0874080b 	j	1d0202c <Interrupt-0xb62fe154>
     8c4:	3d084be5 	0x3d084be5
     8c8:	f33d08f3 	0xf33d08f3
     8cc:	08e7084b 	j	39c212c <Interrupt-0xb463e054>
     8d0:	084b4b75 	j	12d2dd4 <Interrupt-0xb6d2d3ac>
     8d4:	0883f33d 	j	20fccf4 <Interrupt-0xb5f0348c>
     8d8:	e808f33d 	swc2	$8,-3267(zero)
     8dc:	bbba0d03 	swr	k0,3331(sp)
     8e0:	24020903 	li	v0,2307
     8e4:	0a03bb01 	j	80eec04 <Interrupt-0xaff1157c>
     8e8:	bb012402 	swr	at,9218(t8)
     8ec:	28021203 	slti	v0,zero,4611
     8f0:	0d03bb01 	jal	40eec04 <Interrupt-0xb3f1157c>
     8f4:	bb012802 	swr	at,10242(t8)
     8f8:	08bbe608 	j	2ef9820 <Interrupt-0xb5106960>
     8fc:	4b4bf378 	c2	0x14bf378
     900:	00f34c4b 	0xf34c4b
     904:	06010402 	bgez	s0,1910 <Interrupt-0xb7ffe870>
     908:	f9063c08 	sdc2	$6,15368(t0)
     90c:	01040200 	0x1040200
     910:	124c0206 	beq	s2,t4,112c <Interrupt-0xb7fff054>
     914:	083e0806 	j	f82018 <Interrupt-0xb707e168>
     918:	08e608e5 	j	3982394 <Interrupt-0xb467ddec>
     91c:	08e508e5 	j	3942394 <Interrupt-0xb46bddec>
     920:	08e708e5 	j	39c2394 <Interrupt-0xb463ddec>
     924:	08e508e5 	j	3942394 <Interrupt-0xb46bddec>
     928:	08e508e5 	j	3942394 <Interrupt-0xb46bddec>
     92c:	08e508e5 	j	3942394 <Interrupt-0xb46bddec>
     930:	08e508e5 	j	3942394 <Interrupt-0xb46bddec>
     934:	08e508e5 	j	3942394 <Interrupt-0xb46bddec>
     938:	00e608e5 	0xe608e5
     93c:	bc020402 	cache	0x2,1026(zero)
     940:	02040200 	0x2040200
     944:	02003d08 	0x2003d08
     948:	3c020204 	lui	v0,0x204
     94c:	0402000f 	bltzl	zero,98c <Interrupt-0xb7fff7f4>
     950:	3c080601 	lui	t0,0x601
     954:	007a0806 	srlv	at,k0,v1
     958:	bc020402 	cache	0x2,1026(zero)
     95c:	02040200 	0x2040200
     960:	02003d08 	0x2003d08
     964:	3c020204 	lui	v0,0x204
     968:	0402000f 	bltzl	zero,9a8 <Interrupt-0xb7fff7d8>
     96c:	3c080601 	lui	t0,0x601
     970:	087b0806 	j	1ec2018 <Interrupt-0xb613e168>
     974:	08e508e5 	j	3942394 <Interrupt-0xb46bddec>
     978:	08e508e5 	j	3942394 <Interrupt-0xb46bddec>
     97c:	08e508e5 	j	3942394 <Interrupt-0xb46bddec>
     980:	08e508e5 	j	3942394 <Interrupt-0xb46bddec>
     984:	08e508e5 	j	3942394 <Interrupt-0xb46bddec>
     988:	00e608e5 	0xe608e5
     98c:	bc020402 	cache	0x2,1026(zero)
     990:	02040200 	0x2040200
     994:	02003d08 	0x2003d08
     998:	3c020204 	lui	v0,0x204
     99c:	0402000f 	bltzl	zero,9dc <Interrupt-0xb7fff7a4>
     9a0:	3c080601 	lui	t0,0x601
     9a4:	007a0806 	srlv	at,k0,v1
     9a8:	bc020402 	cache	0x2,1026(zero)
     9ac:	02040200 	0x2040200
     9b0:	02003d08 	0x2003d08
     9b4:	3c020204 	lui	v0,0x204
     9b8:	0402000f 	bltzl	zero,9f8 <Interrupt-0xb7fff788>
     9bc:	3c080601 	lui	t0,0x601
     9c0:	087a0806 	j	1e82018 <Interrupt-0xb617e168>
     9c4:	08e508e5 	j	3942394 <Interrupt-0xb46bddec>
     9c8:	08e508e5 	j	3942394 <Interrupt-0xb46bddec>
     9cc:	08e508e5 	j	3942394 <Interrupt-0xb46bddec>
     9d0:	08e508e5 	j	3942394 <Interrupt-0xb46bddec>
     9d4:	08e508e5 	j	3942394 <Interrupt-0xb46bddec>
     9d8:	00e608e5 	0xe608e5
     9dc:	bc020402 	cache	0x2,1026(zero)
     9e0:	02040200 	0x2040200
     9e4:	02003d08 	0x2003d08
     9e8:	3c020204 	lui	v0,0x204
     9ec:	0402000f 	bltzl	zero,a2c <Interrupt-0xb7fff754>
     9f0:	3c080601 	lui	t0,0x601
     9f4:	007a0806 	srlv	at,k0,v1
     9f8:	bc020402 	cache	0x2,1026(zero)
     9fc:	02040200 	0x2040200
     a00:	02003d08 	0x2003d08
     a04:	3c020204 	lui	v0,0x204
     a08:	0402000f 	bltzl	zero,a48 <Interrupt-0xb7fff738>
     a0c:	3c080601 	lui	t0,0x601
     a10:	087a0806 	j	1e82018 <Interrupt-0xb617e168>
     a14:	08e508e5 	j	3942394 <Interrupt-0xb46bddec>
     a18:	08e508e5 	j	3942394 <Interrupt-0xb46bddec>
     a1c:	08e508e5 	j	3942394 <Interrupt-0xb46bddec>
     a20:	08e508e5 	j	3942394 <Interrupt-0xb46bddec>
     a24:	08e508e5 	j	3942394 <Interrupt-0xb46bddec>
     a28:	00e608e5 	0xe608e5
     a2c:	bc020402 	cache	0x2,1026(zero)
     a30:	02040200 	0x2040200
     a34:	02003d08 	0x2003d08
     a38:	3c020204 	lui	v0,0x204
     a3c:	0402000f 	bltzl	zero,a7c <Interrupt-0xb7fff704>
     a40:	3c080601 	lui	t0,0x601
     a44:	007a0806 	srlv	at,k0,v1
     a48:	bc020402 	cache	0x2,1026(zero)
     a4c:	02040200 	0x2040200
     a50:	02003d08 	0x2003d08
     a54:	3c020204 	lui	v0,0x204
     a58:	0402000f 	bltzl	zero,a98 <Interrupt-0xb7fff6e8>
     a5c:	3c080601 	lui	t0,0x601
     a60:	087c0806 	j	1f02018 <Interrupt-0xb60fe168>
     a64:	019003ae 	0x19003ae
     a68:	f5f4e408 	sdc1	$f20,-7160(t7)
     a6c:	f6f3f3f3 	sdc1	$f19,-3085(s7)
     a70:	0884bbbb 	j	212eeec <Interrupt-0xb5ed1294>
     a74:	f33e083d 	0xf33e083d
     a78:	08f33d08 	j	3ccf420 <Interrupt-0xb4330d60>
     a7c:	1330023e 	beq	t9,s0,1378 <Interrupt-0xb7ffee08>
     a80:	bb143002 	swr	s4,12290(t8)
     a84:	bbbbbbbc 	swr	k1,-17476(sp)
     a88:	bbbdf3bd 	swr	sp,-3139(sp)
     a8c:	08143402 	j	50d008 <Interrupt-0xb7af3178>
     a90:	040200e1 	bltzl	zero,e18 <Interrupt-0xb7fff368>
     a94:	3c080601 	lui	t0,0x601
     a98:	007a0806 	srlv	at,k0,v1
     a9c:	06010402 	bgez	s0,1aa8 <Interrupt-0xb7ffe6d8>
     aa0:	f306e408 	0xf306e408
     aa4:	01040200 	0x1040200
     aa8:	06e40806 	0x6e40806
     aac:	f63e08f4 	sdc1	$f30,2292(s1)
     ab0:	133402bb 	beq	t9,s4,15a0 <Interrupt-0xb7ffebe0>
     ab4:	00102802 	srl	a1,s0,0x0
     ab8:	06010402 	bgez	s0,1ac4 <Interrupt-0xb7ffe6bc>
     abc:	08063c08 	j	18f020 <Interrupt-0xb7e71160>
     ac0:	bbf4bc78 	swr	s4,-17288(ra)
     ac4:	bb143402 	swr	s4,13314(t8)
     ac8:	04020084 	bltzl	zero,cdc <Interrupt-0xb7fff4a4>
     acc:	74080601 	jalx	201804 <Interrupt-0xb7dfe97c>
     ad0:	01040200 	0x1040200
     ad4:	02720806 	srlv	at,s2,s3
     ad8:	7703173c 	jalx	c0c5cf0 <Interrupt-0xabf3a490>
     adc:	00013c02 	srl	a3,at,0x10
     ae0:	06010402 	bgez	s0,1aec <Interrupt-0xb7ffe694>
     ae4:	03063c08 	0x3063c08
     ae8:	0074080c 	syscall	0x1d020
     aec:	08010402 	j	41008 <Interrupt-0xb7fbf178>
     af0:	040200e5 	bltzl	zero,e88 <Interrupt-0xb7fff2f8>
     af4:	bd3b0801 	cache	0x1b,2049(t1)
     af8:	843d08f3 	lh	sp,2291(at)
     afc:	bb7608bc 	swr	s6,2236(k1)
     b00:	e708f5f3 	swc1	$f8,-2573(t8)
     b04:	83833e08 	lb	v1,15880(gp)
     b08:	bc4d4b83 	cache	0xd,19331(v0)
     b0c:	04020087 	bltzl	zero,d2c <Interrupt-0xb7fff454>
     b10:	3c080601 	lui	t0,0x601
     b14:	00eb0806 	srlv	at,t3,a3
     b18:	08010402 	j	41008 <Interrupt-0xb7fbf178>
     b1c:	040200e5 	bltzl	zero,eb4 <Interrupt-0xb7fff2cc>
     b20:	bd3b0801 	cache	0x1b,2049(t1)
     b24:	4cbcbb83 	0x4cbcbb83
     b28:	4cbbe808 	0x4cbbe808
     b2c:	4008ad08 	0x4008ad08
     b30:	4df47708 	0x4df47708
     b34:	8383834b 	lb	v1,-31925(gp)
     b38:	83838383 	lb	v1,-31869(gp)
     b3c:	83838383 	lb	v1,-31869(gp)
     b40:	83838383 	lb	v1,-31869(gp)
     b44:	8383834b 	lb	v1,-31925(gp)
     b48:	83838383 	lb	v1,-31869(gp)
     b4c:	83838383 	lb	v1,-31869(gp)
     b50:	84838383 	lh	v1,-31869(a0)
     b54:	ad083e08 	sw	t0,15880(t0)
     b58:	4df47708 	0x4df47708
     b5c:	83838383 	lb	v1,-31869(gp)
     b60:	83838383 	lb	v1,-31869(gp)
     b64:	8383834b 	lb	v1,-31925(gp)
     b68:	83838383 	lb	v1,-31869(gp)
     b6c:	83838383 	lb	v1,-31869(gp)
     b70:	83838383 	lb	v1,-31869(gp)
     b74:	83838383 	lb	v1,-31869(gp)
     b78:	84838383 	lh	v1,-31869(a0)
     b7c:	ad083e08 	sw	t0,15880(t0)
     b80:	f3f37708 	0xf3f37708
     b84:	f3f3f4f3 	0xf3f3f4f3
     b88:	bbf3bbf4 	swr	s3,-17420(ra)
     b8c:	bcf3bbf3 	cache	0x13,-17421(a3)
     b90:	f4bebbf4 	sdc1	$f30,-17420(a1)
     b94:	0f03f383 	jal	c0fce0c <Interrupt-0xabf03374>
     b98:	f3eb08f2 	0xf3eb08f2
     b9c:	4c4c4b4c 	0x4c4c4b4c
     ba0:	4c4b4b4b 	0x4c4b4b4b
     ba4:	4b4b4c4b 	c2	0x14b4c4b
     ba8:	4b4e4e4b 	c2	0x14e4e4b
     bac:	08bbf34f 	j	2efcd3c <Interrupt-0xb5103444>
     bb0:	bb760842 	swr	s6,2114(k1)
     bb4:	83838384 	lb	v1,-31868(gp)
     bb8:	76088483 	jalx	822120c <Interrupt-0xafddef74>
     bbc:	f3f3bdbb 	0xf3f3bdbb
     bc0:	8383bcf4 	lb	v1,-17164(gp)
     bc4:	bcbb8583 	cache	0x1b,-31357(a1)
     bc8:	bc142402 	cache	0x14,9218(zero)
     bcc:	bc833d08 	cache	0x3,15624(a0)
     bd0:	bc3d0883 	cache	0x1d,2179(at)
     bd4:	0a033d08 	j	80cf420 <Interrupt-0xaff30d60>
     bd8:	083d08ba 	j	f422e8 <Interrupt-0xb70bde98>
     bdc:	0875083e 	j	1d420f8 <Interrupt-0xb62be088>
     be0:	8383bb76 	lb	v1,-17546(gp)
     be4:	f4bbf3bb 	sdc1	$f27,-3141(a1)
     be8:	86f4f3f3 	lh	s4,-3085(s7)
     bec:	83760884 	lb	s6,2180(k1)
     bf0:	af08834b 	sw	t0,-31925(t8)
     bf4:	01040200 	0x1040200
     bf8:	06740806 	0x6740806
     bfc:	83837608 	lb	v1,30216(gp)
     c00:	00ad08bb 	0xad08bb
     c04:	06010402 	bgez	s0,1c10 <Interrupt-0xb7ffe570>
     c08:	85067408 	lh	a2,29704(t0)
     c0c:	01040200 	0x1040200
     c10:	06740806 	0x6740806
     c14:	02003e08 	0x2003e08
     c18:	08060104 	j	180410 <Interrupt-0xb7e7fd70>
     c1c:	170306e4 	bne	t8,v1,27b0 <Interrupt-0xb7ffd9d0>
     c20:	0086e408 	0x86e408
     c24:	06010402 	bgez	s0,1c30 <Interrupt-0xb7ffe550>
     c28:	02067408 	0x2067408
     c2c:	ae081448 	sw	t0,5192(s0)
     c30:	020086bb 	0x20086bb
     c34:	08060104 	j	180410 <Interrupt-0xb7e7fd70>
     c38:	3e080674 	0x3e080674
     c3c:	004d83f3 	tltu	v0,t5,0x20f
     c40:	06010402 	bgez	s0,1c4c <Interrupt-0xb7ffe534>
     c44:	08067408 	j	19d020 <Interrupt-0xb7e63160>
     c48:	4b83f33e 	c2	0x183f33e
     c4c:	087608f5 	j	1d823d4 <Interrupt-0xb627ddac>
     c50:	0375083d 	0x375083d
     c54:	1002ba12 	beq	zero,v0,fffef4a0 <lport_InputArray+0x47bef4a0>
     c58:	13010100 	beq	t8,at,105c <Interrupt-0xb7fff124>
     c5c:	02000001 	movf	zero,s0,$fcc0
     c60:	00004d00 	sll	t1,zero,0x14
     c64:	fb010100 	sdc2	$1,256(t8)
     c68:	01000d0e 	0x1000d0e
     c6c:	00010101 	0x10101
     c70:	00010000 	sll	zero,at,0x0
     c74:	69720100 	0x69720100
     c78:	725f6373 	0x725f6373
     c7c:	69746e75 	0x69746e75
     c80:	0000656d 	0x656d
     c84:	63697773 	0x63697773
     c88:	0100632e 	0x100632e
     c8c:	72650000 	madd	s3,a1
     c90:	6d6f636c 	0x6d6f636c
     c94:	2e6e6f6d 	sltiu	t6,s3,28525
     c98:	00010068 	0x10068
     c9c:	73697200 	0x73697200
     ca0:	6e695f63 	0x6e695f63
     ca4:	72726574 	0x72726574
     ca8:	2e747075 	sltiu	s4,s3,28789
     cac:	00010068 	0x10068
     cb0:	05000000 	bltz	t0,cb4 <Interrupt-0xb7fff4cc>
     cb4:	0087e402 	0x87e402
     cb8:	011403b8 	0x11403b8
     cbc:	132802f3 	beq	t9,t0,188c <Interrupt-0xb7ffe8f4>
     cc0:	02132802 	0x2132802
     cc4:	bbbb1324 	swr	k1,4900(sp)
     cc8:	7708bbbb 	jalx	c22eeec <Interrupt-0xabdd1294>
     ccc:	132802f5 	beq	t9,t0,18a4 <Interrupt-0xb7ffe8dc>
     cd0:	00f37708 	0xf37708
     cd4:	06010402 	bgez	s0,1ce0 <Interrupt-0xb7ffe4a0>
     cd8:	06123c02 	bltzall	s0,fce4 <Interrupt-0xb7ff049c>
     cdc:	77084bbb 	jalx	c212eec <Interrupt-0xabded294>
     ce0:	02003d08 	0x2003d08
     ce4:	08060204 	j	180810 <Interrupt-0xb7e7f970>
     ce8:	04020074 	bltzl	zero,ebc <Interrupt-0xb7fff2c4>
     cec:	06740801 	0x6740801
     cf0:	13280283 	beq	t9,t0,1700 <Interrupt-0xb7ffea80>
     cf4:	08133402 	j	4cd008 <Interrupt-0xb7b33178>
     cf8:	13240277 	beq	t9,a0,16d8 <Interrupt-0xb7ffeaa8>
     cfc:	08833e08 	j	20cf820 <Interrupt-0xb5f30960>
     d00:	153c023e 	bne	t1,gp,15fc <Interrupt-0xb7ffeb84>
     d04:	08833e08 	j	20cf820 <Interrupt-0xb5f30960>
     d08:	1534023e 	bne	t1,s4,1604 <Interrupt-0xb7ffeb7c>
     d0c:	3f083e08 	0x3f083e08
     d10:	08142802 	j	50a008 <Interrupt-0xb7af6178>
     d14:	02e7083f 	0x2e7083f
     d18:	e7081324 	swc1	$f8,4900(t8)
     d1c:	132402f3 	beq	t9,a0,18ec <Interrupt-0xb7ffe894>
     d20:	1528024b 	bne	t1,t0,1650 <Interrupt-0xb7ffeb30>
     d24:	08bb3e08 	j	2ecf820 <Interrupt-0xb5130960>
     d28:	bb4bbb75 	swr	t3,-17547(k0)
     d2c:	007508be 	0x7508be
     d30:	06010402 	bgez	s0,1d3c <Interrupt-0xb7ffe444>
     d34:	838306f2 	lb	v1,1778(gp)
     d38:	e7084bbb 	swc1	$f8,19387(t8)
     d3c:	f3132402 	0xf3132402
     d40:	24023d08 	li	v0,15624
     d44:	02ae0813 	0x2ae0813
     d48:	02f31324 	0x2f31324
     d4c:	024b1324 	0x24b1324
     d50:	ad081528 	sw	t0,5416(t0)
     d54:	02ad0883 	0x2ad0883
     d58:	08f31324 	j	3cc4c90 <Interrupt-0xb433b4f0>
     d5c:	0402003d 	bltzl	zero,e54 <Interrupt-0xb7fff32c>
     d60:	064a0601 	tlti	s2,1537
     d64:	2c02e508 	sltiu	v0,zero,-6904
     d68:	beae0813 	cache	0xe,2067(s5)
     d6c:	0028024c 	syscall	0xa009
     d70:	008a0101 	0x8a0101
     d74:	00020000 	sll	zero,v0,0x0
     d78:	0000002c 	0x2c
     d7c:	0efb0101 	jal	bec0404 <Interrupt-0xac13fd7c>
     d80:	0101000d 	break	0x101
     d84:	00000101 	0x101
     d88:	00000100 	sll	zero,zero,0x4
     d8c:	73697201 	0x73697201
     d90:	75725f63 	jalx	5c97d8c <Interrupt-0xb23683f4>
     d94:	6d69746e 	0x6d69746e
     d98:	73000065 	0x73000065
     d9c:	65747379 	0x65747379
     da0:	00632e6d 	0x632e6d
     da4:	00000001 	movf	zero,zero,$fcc0
     da8:	50020500 	beql	zero,v0,21ac <Interrupt-0xb7ffdfd4>
     dac:	15b8008f 	bne	t5,t8,fec <Interrupt-0xb7fff194>
     db0:	040200f3 	bltzl	zero,1180 <Interrupt-0xb7fff000>
     db4:	74080601 	jalx	201804 <Interrupt-0xb7dfe97c>
     db8:	00750806 	srlv	at,s5,v1
     dbc:	06010402 	bgez	s0,1dc8 <Interrupt-0xb7ffe3b8>
     dc0:	08067408 	j	19d020 <Interrupt-0xb7e63160>
     dc4:	76088375 	jalx	8220dd4 <Interrupt-0xafddf3ac>
     dc8:	02003d08 	0x2003d08
     dcc:	08060104 	j	180410 <Interrupt-0xb7e7fd70>
     dd0:	00f30674 	teq	a3,s3,0x19
     dd4:	06010402 	bgez	s0,1de0 <Interrupt-0xb7ffe3a0>
     dd8:	08067408 	j	19d020 <Interrupt-0xb7e63160>
     ddc:	04020075 	bltzl	zero,fb4 <Interrupt-0xb7fff1cc>
     de0:	3c080601 	lui	t0,0x601
     de4:	08750806 	j	1d42018 <Interrupt-0xb62be168>
     de8:	bbe708ad 	swr	a3,2221(ra)
     dec:	2c02e508 	sltiu	v0,zero,-6904
     df0:	77088314 	jalx	c220c50 <Interrupt-0xabddf530>
     df4:	02e508bb 	0x2e508bb
     df8:	02841430 	tge	s4,a0,0x50
     dfc:	01010018 	mult	t0,at
     e00:	00000084 	0x84
     e04:	002f0002 	ror	zero,t7,0x0
     e08:	01010000 	0x1010000
     e0c:	000d0efb 	0xd0efb
     e10:	01010101 	0x1010101
     e14:	01000000 	0x1000000
     e18:	00010000 	sll	zero,at,0x0
     e1c:	63736972 	0x63736972
     e20:	746e695f 	jalx	1b9a57c <Interrupt-0xb6465c04>
     e24:	75727265 	jalx	5c9c994 <Interrupt-0xb23637ec>
     e28:	685f7470 	0x685f7470
     e2c:	6c646e61 	0x6c646e61
     e30:	732e7265 	0x732e7265
     e34:	00000000 	nop
     e38:	02050000 	0x2050000
     e3c:	b8000180 	swr	zero,384(zero)
     e40:	4b4b4c19 	c2	0x14b4c19
     e44:	4b4b4b4b 	c2	0x14b4b4b
     e48:	4b4b4b4b 	c2	0x14b4b4b
     e4c:	4b4b4b4b 	c2	0x14b4b4b
     e50:	4b4b4b4b 	c2	0x14b4b4b
     e54:	4b4b4b4b 	c2	0x14b4b4b
     e58:	4b4b4b4b 	c2	0x14b4b4b
     e5c:	4e4b4b4b 	c3	0x4b4b4b
     e60:	834d8383 	lb	t5,-31869(k0)
     e64:	83838383 	lb	v1,-31869(gp)
     e68:	83838383 	lb	v1,-31869(gp)
     e6c:	83838383 	lb	v1,-31869(gp)
     e70:	83838383 	lb	v1,-31869(gp)
     e74:	83838383 	lb	v1,-31869(gp)
     e78:	83838383 	lb	v1,-31869(gp)
     e7c:	83838383 	lb	v1,-31869(gp)
     e80:	024b4d84 	0x24b4d84
     e84:	01010004 	sllv	zero,at,t0
     e88:	00000635 	0x635
     e8c:	00570002 	0x570002
     e90:	01010000 	0x1010000
     e94:	000d0efb 	0xd0efb
     e98:	01010101 	0x1010101
     e9c:	01000000 	0x1000000
     ea0:	72010000 	madd	s0,at
     ea4:	5f637369 	0x5f637369
     ea8:	746e7572 	jalx	1b9d5c8 <Interrupt-0xb6462bb8>
     eac:	00656d69 	0x656d69
     eb0:	73697200 	0x73697200
     eb4:	6e695f63 	0x6e695f63
     eb8:	72726574 	0x72726574
     ebc:	2e747075 	sltiu	s4,s3,28789
     ec0:	00010063 	0x10063
     ec4:	73697200 	0x73697200
     ec8:	6e695f63 	0x6e695f63
     ecc:	72726574 	0x72726574
     ed0:	2e747075 	sltiu	s4,s3,28789
     ed4:	00010068 	0x10068
     ed8:	6c726500 	0x6c726500
     edc:	6d6d6f63 	0x6d6d6f63
     ee0:	682e6e6f 	0x682e6e6f
     ee4:	00000100 	sll	zero,zero,0x4
     ee8:	02050000 	0x2050000
     eec:	b80091a8 	swr	zero,-28248(zero)
     ef0:	bc012903 	cache	0x1,10499(zero)
     ef4:	02040200 	0x2040200
     ef8:	040200bb 	bltzl	zero,11e8 <Interrupt-0xb7ffef98>
     efc:	11240202 	beq	t1,a0,1708 <Interrupt-0xb7ffea78>
     f00:	01040200 	0x1040200
     f04:	063c0806 	0x63c0806
     f08:	77087608 	jalx	c21d820 <Interrupt-0xabde2960>
     f0c:	08834bf3 	j	20d2fcc <Interrupt-0xb5f2d1b4>
     f10:	4002bb3d 	0x4002bb3d
     f14:	83bb4b15 	lb	k1,19221(sp)
     f18:	84bb7508 	lh	k1,29960(a1)
     f1c:	0883bb4b 	j	20eed2c <Interrupt-0xb5f11454>
     f20:	8384bb3d 	lb	a0,-17603(gp)
     f24:	08834bbb 	j	20d2eec <Interrupt-0xb5f2d294>
     f28:	8384bb75 	lb	a0,-17547(gp)
     f2c:	08834bbb 	j	20d2eec <Interrupt-0xb5f2d294>
     f30:	084cbb3d 	j	132ecf4 <Interrupt-0xb6cd148c>
     f34:	83750877 	lb	s5,2167(k1)
     f38:	750883bb 	jalx	4220eec <Interrupt-0xb3ddf294>
     f3c:	040200bb 	bltzl	zero,122c <Interrupt-0xb7ffef54>
     f40:	06f20601 	bltzall	s7,2748 <Interrupt-0xb7ffda38>
     f44:	00133402 	srl	a2,s3,0x10
     f48:	06010402 	bgez	s0,1f54 <Interrupt-0xb7ffe22c>
     f4c:	02063c08 	0x2063c08
     f50:	02001334 	teq	s0,zero,0x4c
     f54:	08060104 	j	180410 <Interrupt-0xb7e7fd70>
     f58:	2c02063c 	sltiu	v0,zero,1596
     f5c:	08770813 	j	1dc204c <Interrupt-0xb623e134>
     f60:	0402003d 	bltzl	zero,1058 <Interrupt-0xb7fff128>
     f64:	3c080601 	lui	t0,0x601
     f68:	13400206 	beqz	k0,1784 <Interrupt-0xb7ffe9fc>
     f6c:	01040200 	0x1040200
     f70:	063c0806 	0x63c0806
     f74:	00134002 	srl	t0,s3,0x0
     f78:	06010402 	bgez	s0,1f84 <Interrupt-0xb7ffe1fc>
     f7c:	02063c08 	0x2063c08
     f80:	77081338 	jalx	c204ce0 <Interrupt-0xabdfb4a0>
     f84:	834b3d08 	lb	t3,15624(k0)
     f88:	08163c02 	j	58f008 <Interrupt-0xb7a71178>
     f8c:	3d08843d 	0x3d08843d
     f90:	843d0884 	lh	sp,2180(at)
     f94:	08843d08 	j	210f420 <Interrupt-0xb5ef0d60>
     f98:	3d08843d 	0x3d08843d
     f9c:	843d0884 	lh	sp,2180(at)
     fa0:	08843d08 	j	210f420 <Interrupt-0xb5ef0d60>
     fa4:	3d08843d 	0x3d08843d
     fa8:	843d0884 	lh	sp,2180(at)
     fac:	08843d08 	j	210f420 <Interrupt-0xb5ef0d60>
     fb0:	3d08843d 	0x3d08843d
     fb4:	843d0884 	lh	sp,2180(at)
     fb8:	08843d08 	j	210f420 <Interrupt-0xb5ef0d60>
     fbc:	3d08843d 	0x3d08843d
     fc0:	843d0884 	lh	sp,2180(at)
     fc4:	08843d08 	j	210f420 <Interrupt-0xb5ef0d60>
     fc8:	3d08843d 	0x3d08843d
     fcc:	843d0884 	lh	sp,2180(at)
     fd0:	08843d08 	j	210f420 <Interrupt-0xb5ef0d60>
     fd4:	3d08843d 	0x3d08843d
     fd8:	843d0884 	lh	sp,2180(at)
     fdc:	08843d08 	j	210f420 <Interrupt-0xb5ef0d60>
     fe0:	3d08843d 	0x3d08843d
     fe4:	863d0884 	lh	sp,2180(s1)
     fe8:	08843d08 	j	210f420 <Interrupt-0xb5ef0d60>
     fec:	3d08843d 	0x3d08843d
     ff0:	843d0884 	lh	sp,2180(at)
     ff4:	08843d08 	j	210f420 <Interrupt-0xb5ef0d60>
     ff8:	3d08843d 	0x3d08843d
     ffc:	843d0884 	lh	sp,2180(at)
    1000:	08843d08 	j	210f420 <Interrupt-0xb5ef0d60>
    1004:	3d08853d 	0x3d08853d
    1008:	843d0884 	lh	sp,2180(at)
    100c:	08843d08 	j	210f420 <Interrupt-0xb5ef0d60>
    1010:	3d08843d 	0x3d08843d
    1014:	843d0884 	lh	sp,2180(at)
    1018:	08843d08 	j	210f420 <Interrupt-0xb5ef0d60>
    101c:	3d08843d 	0x3d08843d
    1020:	843d0884 	lh	sp,2180(at)
    1024:	08843d08 	j	210f420 <Interrupt-0xb5ef0d60>
    1028:	3d08843d 	0x3d08843d
    102c:	843d0884 	lh	sp,2180(at)
    1030:	08843d08 	j	210f420 <Interrupt-0xb5ef0d60>
    1034:	3d08863d 	0x3d08863d
    1038:	843d0884 	lh	sp,2180(at)
    103c:	08843d08 	j	210f420 <Interrupt-0xb5ef0d60>
    1040:	3d08853d 	0x3d08853d
    1044:	843d0884 	lh	sp,2180(at)
    1048:	08843d08 	j	210f420 <Interrupt-0xb5ef0d60>
    104c:	3d08853d 	0x3d08853d
    1050:	843d0884 	lh	sp,2180(at)
    1054:	08843d08 	j	210f420 <Interrupt-0xb5ef0d60>
    1058:	3d08853d 	0x3d08853d
    105c:	843d0884 	lh	sp,2180(at)
    1060:	08843d08 	j	210f420 <Interrupt-0xb5ef0d60>
    1064:	834b863d 	lb	t3,-31171(k0)
    1068:	e508bbf3 	swc1	$f8,-17421(t0)
    106c:	f3834b84 	0xf3834b84
    1070:	e7084cbb 	swc1	$f8,19643(t8)
    1074:	024b3d08 	0x24b3d08
    1078:	84f3163c 	lh	s3,5692(a3)
    107c:	84f384f3 	lh	s3,-31501(a3)
    1080:	84f384f3 	lh	s3,-31501(a3)
    1084:	84f384f3 	lh	s3,-31501(a3)
    1088:	84f384f3 	lh	s3,-31501(a3)
    108c:	84f384f3 	lh	s3,-31501(a3)
    1090:	84f384f3 	lh	s3,-31501(a3)
    1094:	84f384f3 	lh	s3,-31501(a3)
    1098:	84f384f3 	lh	s3,-31501(a3)
    109c:	84f384f3 	lh	s3,-31501(a3)
    10a0:	84f384f3 	lh	s3,-31501(a3)
    10a4:	84f384f3 	lh	s3,-31501(a3)
    10a8:	84f384f3 	lh	s3,-31501(a3)
    10ac:	84f384f3 	lh	s3,-31501(a3)
    10b0:	84f384f3 	lh	s3,-31501(a3)
    10b4:	86f384f3 	lh	s3,-31501(s7)
    10b8:	84f384f3 	lh	s3,-31501(a3)
    10bc:	84f384f3 	lh	s3,-31501(a3)
    10c0:	84f384f3 	lh	s3,-31501(a3)
    10c4:	84f384f3 	lh	s3,-31501(a3)
    10c8:	85f384f3 	lh	s3,-31501(t7)
    10cc:	84f384f3 	lh	s3,-31501(a3)
    10d0:	84f384f3 	lh	s3,-31501(a3)
    10d4:	84f384f3 	lh	s3,-31501(a3)
    10d8:	84f384f3 	lh	s3,-31501(a3)
    10dc:	84f384f3 	lh	s3,-31501(a3)
    10e0:	84f384f3 	lh	s3,-31501(a3)
    10e4:	84f384f3 	lh	s3,-31501(a3)
    10e8:	86f384f3 	lh	s3,-31501(s7)
    10ec:	84f384f3 	lh	s3,-31501(a3)
    10f0:	85f384f3 	lh	s3,-31501(t7)
    10f4:	84f384f3 	lh	s3,-31501(a3)
    10f8:	85f384f3 	lh	s3,-31501(t7)
    10fc:	84f384f3 	lh	s3,-31501(a3)
    1100:	85f384f3 	lh	s3,-31501(t7)
    1104:	84f384f3 	lh	s3,-31501(a3)
    1108:	86f384f3 	lh	s3,-31501(s7)
    110c:	84132402 	lh	s3,9218(zero)
    1110:	7508834b 	jalx	4220d2c <Interrupt-0xb3ddf454>
    1114:	e7084cbb 	swc1	$f8,19643(t8)
    1118:	08834bbb 	j	20d2eec <Interrupt-0xb5f2d294>
    111c:	7708bb3d 	jalx	c22ecf4 <Interrupt-0xabdd148c>
    1120:	f3834bbb 	0xf3834bbb
    1124:	087708bb 	j	1dc22ec <Interrupt-0xb623de94>
    1128:	023d083d 	0x23d083d
    112c:	4cb9142c 	0x4cb9142c
    1130:	08f37908 	j	3cde420 <Interrupt-0xb4321d60>
    1134:	04020076 	bltzl	zero,1310 <Interrupt-0xb7ffee70>
    1138:	ac080601 	sw	t0,1537(zero)
    113c:	0200bb06 	0x200bb06
    1140:	08060104 	j	180410 <Interrupt-0xb7e7fd70>
    1144:	00bb06e4 	0xbb06e4
    1148:	06010402 	bgez	s0,2154 <Interrupt-0xb7ffe02c>
    114c:	bb06e408 	swr	a2,-7160(t8)
    1150:	01040200 	0x1040200
    1154:	06e40806 	0x6e40806
    1158:	040200bb 	bltzl	zero,1448 <Interrupt-0xb7ffed38>
    115c:	e4080601 	swc1	$f8,1537(zero)
    1160:	0200bb06 	0x200bb06
    1164:	08060104 	j	180410 <Interrupt-0xb7e7fd70>
    1168:	00bb06e4 	0xbb06e4
    116c:	06010402 	bgez	s0,2178 <Interrupt-0xb7ffe008>
    1170:	bb06e408 	swr	a2,-7160(t8)
    1174:	01040200 	0x1040200
    1178:	06e40806 	0x6e40806
    117c:	040200bb 	bltzl	zero,146c <Interrupt-0xb7ffed14>
    1180:	e4080601 	swc1	$f8,1537(zero)
    1184:	0200bb06 	0x200bb06
    1188:	08060104 	j	180410 <Interrupt-0xb7e7fd70>
    118c:	00bb06e4 	0xbb06e4
    1190:	06010402 	bgez	s0,219c <Interrupt-0xb7ffdfe4>
    1194:	bb06e408 	swr	a2,-7160(t8)
    1198:	01040200 	0x1040200
    119c:	06e40806 	0x6e40806
    11a0:	040200bb 	bltzl	zero,1490 <Interrupt-0xb7ffecf0>
    11a4:	e4080601 	swc1	$f8,1537(zero)
    11a8:	0200bb06 	0x200bb06
    11ac:	08060104 	j	180410 <Interrupt-0xb7e7fd70>
    11b0:	00bb06e4 	0xbb06e4
    11b4:	06010402 	bgez	s0,21c0 <Interrupt-0xb7ffdfc0>
    11b8:	bb06e408 	swr	a2,-7160(t8)
    11bc:	01040200 	0x1040200
    11c0:	06e40806 	0x6e40806
    11c4:	040200bb 	bltzl	zero,14b4 <Interrupt-0xb7ffeccc>
    11c8:	e4080601 	swc1	$f8,1537(zero)
    11cc:	0200bb06 	0x200bb06
    11d0:	08060104 	j	180410 <Interrupt-0xb7e7fd70>
    11d4:	00bb06e4 	0xbb06e4
    11d8:	06010402 	bgez	s0,21e4 <Interrupt-0xb7ffdf9c>
    11dc:	bb06e408 	swr	a2,-7160(t8)
    11e0:	01040200 	0x1040200
    11e4:	06e40806 	0x6e40806
    11e8:	040200bb 	bltzl	zero,14d8 <Interrupt-0xb7ffeca8>
    11ec:	e4080601 	swc1	$f8,1537(zero)
    11f0:	0200bb06 	0x200bb06
    11f4:	08060104 	j	180410 <Interrupt-0xb7e7fd70>
    11f8:	00bb06e4 	0xbb06e4
    11fc:	06010402 	bgez	s0,2208 <Interrupt-0xb7ffdf78>
    1200:	bb06e408 	swr	a2,-7160(t8)
    1204:	01040200 	0x1040200
    1208:	06e40806 	0x6e40806
    120c:	040200bb 	bltzl	zero,14fc <Interrupt-0xb7ffec84>
    1210:	e4080601 	swc1	$f8,1537(zero)
    1214:	0200bb06 	0x200bb06
    1218:	08060104 	j	180410 <Interrupt-0xb7e7fd70>
    121c:	00bb06e4 	0xbb06e4
    1220:	06010402 	bgez	s0,222c <Interrupt-0xb7ffdf54>
    1224:	bb06e408 	swr	a2,-7160(t8)
    1228:	01040200 	0x1040200
    122c:	06e40806 	0x6e40806
    1230:	040200bb 	bltzl	zero,1520 <Interrupt-0xb7ffec60>
    1234:	e4080601 	swc1	$f8,1537(zero)
    1238:	0200bb06 	0x200bb06
    123c:	08060104 	j	180410 <Interrupt-0xb7e7fd70>
    1240:	00bb06e4 	0xbb06e4
    1244:	06010402 	bgez	s0,2250 <Interrupt-0xb7ffdf30>
    1248:	bc06e408 	cache	0x6,-7160(zero)
    124c:	02007608 	0x2007608
    1250:	08060104 	j	180410 <Interrupt-0xb7e7fd70>
    1254:	00bb06e4 	0xbb06e4
    1258:	06010402 	bgez	s0,2264 <Interrupt-0xb7ffdf1c>
    125c:	bb06e408 	swr	a2,-7160(t8)
    1260:	01040200 	0x1040200
    1264:	06e40806 	0x6e40806
    1268:	040200bb 	bltzl	zero,1558 <Interrupt-0xb7ffec28>
    126c:	e4080601 	swc1	$f8,1537(zero)
    1270:	0200bb06 	0x200bb06
    1274:	08060104 	j	180410 <Interrupt-0xb7e7fd70>
    1278:	00bb06e4 	0xbb06e4
    127c:	06010402 	bgez	s0,2288 <Interrupt-0xb7ffdef8>
    1280:	bb06e408 	swr	a2,-7160(t8)
    1284:	01040200 	0x1040200
    1288:	06e40806 	0x6e40806
    128c:	040200bb 	bltzl	zero,157c <Interrupt-0xb7ffec04>
    1290:	e4080601 	swc1	$f8,1537(zero)
    1294:	0200bb06 	0x200bb06
    1298:	08060104 	j	180410 <Interrupt-0xb7e7fd70>
    129c:	00bb06e4 	0xbb06e4
    12a0:	06010402 	bgez	s0,22ac <Interrupt-0xb7ffded4>
    12a4:	bb06e408 	swr	a2,-7160(t8)
    12a8:	01040200 	0x1040200
    12ac:	06e40806 	0x6e40806
    12b0:	040200bb 	bltzl	zero,15a0 <Interrupt-0xb7ffebe0>
    12b4:	e4080601 	swc1	$f8,1537(zero)
    12b8:	0200bb06 	0x200bb06
    12bc:	08060104 	j	180410 <Interrupt-0xb7e7fd70>
    12c0:	00bb06e4 	0xbb06e4
    12c4:	06010402 	bgez	s0,22d0 <Interrupt-0xb7ffdeb0>
    12c8:	bb06e408 	swr	a2,-7160(t8)
    12cc:	01040200 	0x1040200
    12d0:	06e40806 	0x6e40806
    12d4:	040200bb 	bltzl	zero,15c4 <Interrupt-0xb7ffebbc>
    12d8:	e4080601 	swc1	$f8,1537(zero)
    12dc:	7608bc06 	jalx	822f018 <Interrupt-0xafdd1168>
    12e0:	01040200 	0x1040200
    12e4:	06e40806 	0x6e40806
    12e8:	040200bb 	bltzl	zero,15d8 <Interrupt-0xb7ffeba8>
    12ec:	e4080601 	swc1	$f8,1537(zero)
    12f0:	0200bb06 	0x200bb06
    12f4:	08060104 	j	180410 <Interrupt-0xb7e7fd70>
    12f8:	00bb06e4 	0xbb06e4
    12fc:	06010402 	bgez	s0,2308 <Interrupt-0xb7ffde78>
    1300:	bb06e408 	swr	a2,-7160(t8)
    1304:	01040200 	0x1040200
    1308:	06e40806 	0x6e40806
    130c:	040200bc 	bltzl	zero,1600 <Interrupt-0xb7ffeb80>
    1310:	e4080601 	swc1	$f8,1537(zero)
    1314:	0200bb06 	0x200bb06
    1318:	08060104 	j	180410 <Interrupt-0xb7e7fd70>
    131c:	00bb06e4 	0xbb06e4
    1320:	06010402 	bgez	s0,232c <Interrupt-0xb7ffde54>
    1324:	bb06e408 	swr	a2,-7160(t8)
    1328:	01040200 	0x1040200
    132c:	06e40806 	0x6e40806
    1330:	040200bb 	bltzl	zero,1620 <Interrupt-0xb7ffeb60>
    1334:	e4080601 	swc1	$f8,1537(zero)
    1338:	0200bc06 	0x200bc06
    133c:	08060104 	j	180410 <Interrupt-0xb7e7fd70>
    1340:	00bb06e4 	0xbb06e4
    1344:	06010402 	bgez	s0,2350 <Interrupt-0xb7ffde30>
    1348:	bb06e408 	swr	a2,-7160(t8)
    134c:	01040200 	0x1040200
    1350:	06e40806 	0x6e40806
    1354:	040200bb 	bltzl	zero,1644 <Interrupt-0xb7ffeb3c>
    1358:	e4080601 	swc1	$f8,1537(zero)
    135c:	0200bc06 	0x200bc06
    1360:	08060104 	j	180410 <Interrupt-0xb7e7fd70>
    1364:	00bb06e4 	0xbb06e4
    1368:	06010402 	bgez	s0,2374 <Interrupt-0xb7ffde0c>
    136c:	bb06e408 	swr	a2,-7160(t8)
    1370:	01040200 	0x1040200
    1374:	06e40806 	0x6e40806
    1378:	040200bb 	bltzl	zero,1668 <Interrupt-0xb7ffeb18>
    137c:	e4080601 	swc1	$f8,1537(zero)
    1380:	0200bc06 	0x200bc06
    1384:	08060104 	j	180410 <Interrupt-0xb7e7fd70>
    1388:	00bb06e4 	0xbb06e4
    138c:	06010402 	bgez	s0,2398 <Interrupt-0xb7ffdde8>
    1390:	bb06e408 	swr	a2,-7160(t8)
    1394:	01040200 	0x1040200
    1398:	06e40806 	0x6e40806
    139c:	040200bb 	bltzl	zero,168c <Interrupt-0xb7ffeaf4>
    13a0:	e4080601 	swc1	$f8,1537(zero)
    13a4:	0200bc06 	0x200bc06
    13a8:	08060104 	j	180410 <Interrupt-0xb7e7fd70>
    13ac:	00bb06e4 	0xbb06e4
    13b0:	06010402 	bgez	s0,23bc <Interrupt-0xb7ffddc4>
    13b4:	bb06e408 	swr	a2,-7160(t8)
    13b8:	01040200 	0x1040200
    13bc:	06e40806 	0x6e40806
    13c0:	040200bb 	bltzl	zero,16b0 <Interrupt-0xb7ffead0>
    13c4:	e4080601 	swc1	$f8,1537(zero)
    13c8:	0200bd06 	0x200bd06
    13cc:	08060104 	j	180410 <Interrupt-0xb7e7fd70>
    13d0:	00bb0674 	teq	a1,k1,0x19
    13d4:	06010402 	bgez	s0,23e0 <Interrupt-0xb7ffdda0>
    13d8:	bd067408 	cache	0x6,29704(t0)
    13dc:	01040200 	0x1040200
    13e0:	06e40806 	0x6e40806
    13e4:	040200bb 	bltzl	zero,16d4 <Interrupt-0xb7ffeaac>
    13e8:	e4080601 	swc1	$f8,1537(zero)
    13ec:	0200bb06 	0x200bb06
    13f0:	08060104 	j	180410 <Interrupt-0xb7e7fd70>
    13f4:	00bb06e4 	0xbb06e4
    13f8:	06010402 	bgez	s0,2404 <Interrupt-0xb7ffdd7c>
    13fc:	bb06e408 	swr	a2,-7160(t8)
    1400:	01040200 	0x1040200
    1404:	06e40806 	0x6e40806
    1408:	040200bb 	bltzl	zero,16f8 <Interrupt-0xb7ffea88>
    140c:	e4080601 	swc1	$f8,1537(zero)
    1410:	0200bb06 	0x200bb06
    1414:	08060104 	j	180410 <Interrupt-0xb7e7fd70>
    1418:	00bb06e4 	0xbb06e4
    141c:	06010402 	bgez	s0,2428 <Interrupt-0xb7ffdd58>
    1420:	bb06e408 	swr	a2,-7160(t8)
    1424:	01040200 	0x1040200
    1428:	06e40806 	0x6e40806
    142c:	040200bb 	bltzl	zero,171c <Interrupt-0xb7ffea64>
    1430:	e4080601 	swc1	$f8,1537(zero)
    1434:	0200bb06 	0x200bb06
    1438:	08060104 	j	180410 <Interrupt-0xb7e7fd70>
    143c:	00bb06e4 	0xbb06e4
    1440:	06010402 	bgez	s0,244c <Interrupt-0xb7ffdd34>
    1444:	bb06e408 	swr	a2,-7160(t8)
    1448:	01040200 	0x1040200
    144c:	06e40806 	0x6e40806
    1450:	f37808bb 	0xf37808bb
    1454:	08834b4b 	j	20d2d2c <Interrupt-0xb5f2d454>
    1458:	0402003e 	bltzl	zero,1554 <Interrupt-0xb7ffec2c>
    145c:	3c080601 	lui	t0,0x601
    1460:	14300206 	bne	at,s0,1c7c <Interrupt-0xb7ffe504>
    1464:	08153802 	j	54e008 <Interrupt-0xb7ab2178>
    1468:	ad0884ad 	sw	t0,-31571(t0)
    146c:	84ad0884 	lh	t5,2180(a1)
    1470:	0884ad08 	j	212b420 <Interrupt-0xb5ed4d60>
    1474:	ad0884ad 	sw	t0,-31571(t0)
    1478:	84ad0884 	lh	t5,2180(a1)
    147c:	0884ad08 	j	212b420 <Interrupt-0xb5ed4d60>
    1480:	ad0884ad 	sw	t0,-31571(t0)
    1484:	84ad0884 	lh	t5,2180(a1)
    1488:	0884ad08 	j	212b420 <Interrupt-0xb5ed4d60>
    148c:	ad0884ad 	sw	t0,-31571(t0)
    1490:	84ad0884 	lh	t5,2180(a1)
    1494:	844bad08 	lh	t3,-21240(v0)
    1498:	01040200 	0x1040200
    149c:	063c0806 	0x63c0806
    14a0:	ae08ae08 	sw	t0,-20984(s0)
    14a4:	08144402 	j	511008 <Interrupt-0xb7aef178>
    14a8:	027a03ae 	0x27a03ae
    14ac:	0903013c 	j	40c04f0 <Interrupt-0xb3f3fc90>
    14b0:	142c02f2 	bne	at,t4,207c <Interrupt-0xb7ffe104>
    14b4:	34027103 	li	v0,0x7103
    14b8:	4a110301 	c2	0x110301
    14bc:	01002002 	0x1002002
    14c0:	00009901 	0x9901
    14c4:	31000200 	andi	zero,t0,0x200
    14c8:	01000000 	0x1000000
    14cc:	0d0efb01 	jal	43bec04 <Interrupt-0xb3c4157c>
    14d0:	01010100 	0x1010100
    14d4:	00000001 	movf	zero,zero,$fcc0
    14d8:	01000001 	movf	zero,t0,$fcc0
    14dc:	414d4400 	0x414d4400
    14e0:	616c435f 	0x616c435f
    14e4:	632e7373 	0x632e7373
    14e8:	00000000 	nop
    14ec:	5f414d44 	0x5f414d44
    14f0:	73616c43 	0x73616c43
    14f4:	00682e73 	tltu	v1,t0,0xb9
    14f8:	00000000 	nop
    14fc:	d0020500 	0xd0020500
    1500:	03b800bb 	0x3b800bb
    1504:	08f3010a 	j	3cc0428 <Interrupt-0xb433fd58>
    1508:	f377083d 	0xf377083d
    150c:	77083d08 	jalx	c20f420 <Interrupt-0xabdf0d60>
    1510:	083d08f3 	j	f423cc <Interrupt-0xb70bddb4>
    1514:	3d08f377 	0x3d08f377
    1518:	24027608 	li	v0,30216
    151c:	04020014 	bltzl	zero,1570 <Interrupt-0xb7ffec10>
    1520:	74080601 	jalx	201804 <Interrupt-0xb7dfe97c>
    1524:	f3ad0806 	0xf3ad0806
    1528:	02146002 	0x2146002
    152c:	ad081330 	sw	t0,4912(t0)
    1530:	1428024b 	bne	at,t0,1e60 <Interrupt-0xb7ffe320>
    1534:	132802f4 	beq	t9,t0,2108 <Interrupt-0xb7ffe078>
    1538:	3e087608 	0x3e087608
    153c:	01040200 	0x1040200
    1540:	08064a06 	j	192818 <Interrupt-0xb7e6d968>
    1544:	e6084b75 	swc1	$f8,19317(s0)
    1548:	4bad08f3 	c2	0x1ad08f3
    154c:	e5087608 	swc1	$f8,30216(t0)
    1550:	f3132c02 	0xf3132c02
    1554:	08f3e608 	j	3cf9820 <Interrupt-0xb4306960>
    1558:	001802e5 	0x1802e5
    155c:	00cc0101 	0xcc0101
    1560:	00020000 	sll	zero,v0,0x0
    1564:	0000004a 	0x4a
    1568:	0efb0101 	jal	bec0404 <Interrupt-0xac13fd7c>
    156c:	0101000d 	break	0x101
    1570:	00000101 	0x101
    1574:	00000100 	sll	zero,zero,0x4
    1578:	2f2e2e01 	sltiu	t6,t9,11777
    157c:	2e2f2e2e 	sltiu	t7,s1,11822
    1580:	2e2e2f2e 	sltiu	t6,s1,12078
    1584:	6363672f 	0x6363672f
    1588:	382e342d 	xori	t6,at,0x342d
    158c:	6c2f312e 	0x6c2f312e
    1590:	63676269 	0x63676269
    1594:	6c000063 	0x6c000063
    1598:	63676269 	0x63676269
    159c:	632e3263 	0x632e3263
    15a0:	00000100 	sll	zero,zero,0x4
    15a4:	6762696c 	0x6762696c
    15a8:	2e326363 	sltiu	s2,s1,25443
    15ac:	00010068 	0x10068
    15b0:	05000000 	bltz	t0,15b4 <Interrupt-0xb7ffebcc>
    15b4:	00bfb002 	0xbfb002
    15b8:	08dd03b8 	j	3740ee0 <Interrupt-0xb48bf2a0>
    15bc:	4f801501 	c3	0x1801501
    15c0:	844cf184 	lh	t4,-3708(v0)
    15c4:	a6034bb9 	sh	v1,19385(s0)
    15c8:	4b4c4a7e 	c2	0x14c4a7e
    15cc:	844a2503 	lh	t2,9475(v0)
    15d0:	b9884cbe 	swr	t0,19646(t4)
    15d4:	034d4b4b 	0x34d4b4b
    15d8:	01c40209 	0x1c40209
    15dc:	4cbc8301 	0x4cbc8301
    15e0:	4b820903 	c2	0x1820903
    15e4:	4c4b84c0 	0x4c4b84c0
    15e8:	857f4d49 	lh	ra,19785(t3)
    15ec:	1701c002 	bne	t8,at,ffff15f8 <lport_InputArray+0x47bf15f8>
    15f0:	c4021003 	lwc1	$f2,4099(zero)
    15f4:	13030101 	beq	t8,v1,19fc <Interrupt-0xb7ffe784>
    15f8:	0a034bba 	j	80d2ee8 <Interrupt-0xaff2d298>
    15fc:	78035282 	0x78035282
    1600:	03b8844a 	0x3b8844a
    1604:	843c0816 	lh	gp,2070(at)
    1608:	474e46c0 	c1	0x14e46c0
    160c:	4f484785 	c3	0x1484785
    1610:	1301b802 	beq	t8,at,fffef61c <lport_InputArray+0x47bef61c>
    1614:	c0844b49 	ll	a0,19273(a0)
    1618:	7d4a7a03 	0x7d4a7a03
    161c:	034ebc4f 	0x34ebc4f
    1620:	0349ba40 	0x349ba40
    1624:	834a00e5 	lb	t2,229(k0)
    1628:	000802f5 	0x802f5
    162c:	Address 0x000000000000162c is out of bounds.


Disassembly of section .debug_str:

00000000 <.debug_str>:
       0:	5f335852 	0x5f335852
       4:	43494344 	c0	0x1494344
       8:	6373004e 	0x6373004e
       c:	70735f68 	0x70735f68
      10:	77656361 	jalx	d958d84 <Interrupt-0xaa6a73fc>
      14:	00657261 	0x657261
      18:	77707367 	jalx	dc1cd9c <Interrupt-0xaa3e33e4>
      1c:	6f665f72 	0x6f665f72
      20:	615f6d72 	0x615f6d72
      24:	64006764 	0x64006764
      28:	685f6c65 	0x685f6c65
      2c:	65646165 	0x65646165
      30:	58540072 	0x58540072
      34:	414d505f 	0x414d505f
      38:	5254435f 	beql	s2,s4,10db8 <Interrupt-0xb7fef3c8>
      3c:	7a697300 	0x7a697300
      40:	70797465 	0x70797465
      44:	4f4d0065 	c3	0x14d0065
      48:	525f4544 	beql	s2,ra,1155c <Interrupt-0xb7feec24>
      4c:	72644100 	0x72644100
      50:	00737365 	0x737365
      54:	756f5f75 	jalx	5bd7dd4 <Interrupt-0xb24283ac>
      58:	53490074 	beql	k0,t1,22c <Interrupt-0xb7ffff54>
      5c:	4f545f52 	c3	0x1545f52
      60:	5f535455 	0x5f535455
      64:	5f534c46 	0x5f534c46
      68:	69670048 	0x69670048
      6c:	70736167 	0x70736167
      70:	695f7277 	0x695f7277
      74:	745f7172 	jalx	17dc5c8 <Interrupt-0xb6823bb8>
      78:	646e6573 	0x646e6573
      7c:	52534900 	beql	s2,s3,12480 <Interrupt-0xb7fedd00>
      80:	554f545f 	bnel	t2,t7,15200 <Interrupt-0xb7feaf80>
      84:	465f5354 	c1	0x5f5354
      88:	4c5f534c 	0x4c5f534c
      8c:	45505300 	0x45505300
      90:	52415f43 	beql	s2,at,17da0 <Interrupt-0xb7fe83e0>
      94:	65730042 	0x65730042
      98:	72745f74 	0x72745f74
      9c:	6d736e61 	0x6d736e61
      a0:	735f7469 	0x735f7469
      a4:	64656570 	0x64656570
      a8:	43495200 	c0	0x1495200
      ac:	58455f53 	0x58455f53
      b0:	4c545f43 	0x4c545f43
      b4:	4d004c42 	bc3f	131c0 <Interrupt-0xb7fecfc0>
      b8:	65747361 	0x65747361
      bc:	6c665f72 	0x6c665f72
      c0:	52006761 	beqzl	s0,19e48 <Interrupt-0xb7fe6338>
      c4:	5f534349 	0x5f534349
      c8:	5f435845 	0x5f435845
      cc:	53424c54 	beql	k0,v0,13220 <Interrupt-0xb7fecf60>
      d0:	33585200 	andi	t8,k0,0x5200
      d4:	4f434e5f 	c3	0x1434e5f
      d8:	5152465f 	beql	t2,s2,11a58 <Interrupt-0xb7fee728>
      dc:	6e69004c 	0x6e69004c
      e0:	5f786564 	0x5f786564
      e4:	61746164 	0x61746164
      e8:	726f775f 	0x726f775f
      ec:	52003264 	beqzl	s0,ca80 <Interrupt-0xb7ff3700>
      f0:	445f3458 	0x445f3458
      f4:	32434943 	andi	v1,s2,0x4943
      f8:	756f7200 	jalx	5bdc800 <Interrupt-0xb2423980>
      fc:	6d5f6574 	0x6d5f6574
     100:	5f6b7361 	0x5f6b7361
     104:	666e6f63 	0x666e6f63
     108:	75614200 	jalx	5850800 <Interrupt-0xb27af980>
     10c:	74615264 	jalx	1854990 <Interrupt-0xb67ab7f0>
     110:	49520065 	0x49520065
     114:	495f4353 	0x495f4353
     118:	535f544e 	beql	k0,ra,15254 <Interrupt-0xb7feaf2c>
     11c:	494d4650 	0x494d4650
     120:	58525f43 	0x58525f43
     124:	5441445f 	bnel	v0,at,112a4 <Interrupt-0xb7feeedc>
     128:	3048435f 	andi	t0,v0,0x435f
     12c:	53495200 	beql	k0,t1,14930 <Interrupt-0xb7feb850>
     130:	4e495f43 	c3	0x495f43
     134:	50535f54 	beql	v0,s3,17e88 <Interrupt-0xb7fe82f8>
     138:	43494d46 	c0	0x1494d46
     13c:	5f58525f 	0x5f58525f
     140:	5f544144 	0x5f544144
     144:	00314843 	0x314843
     148:	54415453 	bnel	v0,at,15298 <Interrupt-0xb7feaee8>
     14c:	4f435f45 	c3	0x1435f45
     150:	43454e4e 	c0	0x1454e4e
     154:	4e4f4954 	c3	0x4f4954
     158:	53495200 	beql	k0,t1,1495c <Interrupt-0xb7feb824>
     15c:	4e495f43 	c3	0x495f43
     160:	41555f54 	0x41555f54
     164:	00305452 	0x305452
     168:	43534952 	c0	0x1534952
     16c:	544e495f 	bnel	v0,t6,126ec <Interrupt-0xb7feda94>
     170:	5241555f 	beql	s2,at,156f0 <Interrupt-0xb7feaa90>
     174:	52003154 	beqzl	s0,c6c8 <Interrupt-0xb7ff3ab8>
     178:	5f534349 	0x5f534349
     17c:	5f435845 	0x5f435845
     180:	00535953 	0x535953
     184:	5f727563 	0x5f727563
     188:	6b6e696c 	0x6b6e696c
     18c:	6174735f 	0x6174735f
     190:	00737574 	teq	v1,s3,0x1d5
     194:	43534952 	c0	0x1534952
     198:	544e495f 	bnel	v0,t6,12718 <Interrupt-0xb7feda68>
     19c:	4253555f 	c0	0x53555f
     1a0:	3150455f 	andi	s0,t2,0x455f
     1a4:	53495200 	beql	k0,t1,149a8 <Interrupt-0xb7feb7d8>
     1a8:	4e495f43 	c3	0x495f43
     1ac:	53555f54 	beql	k0,s5,17f00 <Interrupt-0xb7fe8280>
     1b0:	50455f42 	beql	v0,a1,17ebc <Interrupt-0xb7fe82c4>
     1b4:	49520032 	0x49520032
     1b8:	495f4353 	0x495f4353
     1bc:	555f544e 	bnel	t2,ra,152f8 <Interrupt-0xb7feae88>
     1c0:	455f4253 	0x455f4253
     1c4:	52003350 	beqzl	s0,cf08 <Interrupt-0xb7ff3278>
     1c8:	5f435349 	0x5f435349
     1cc:	5f544e49 	0x5f544e49
     1d0:	5f425355 	0x5f425355
     1d4:	00345045 	0x345045
     1d8:	43534952 	c0	0x1534952
     1dc:	544e495f 	bnel	v0,t6,1275c <Interrupt-0xb7feda24>
     1e0:	4d454d5f 	0x4d454d5f
     1e4:	00304843 	0x304843
     1e8:	43534952 	c0	0x1534952
     1ec:	544e495f 	bnel	v0,t6,1276c <Interrupt-0xb7feda14>
     1f0:	4d454d5f 	0x4d454d5f
     1f4:	00314843 	0x314843
     1f8:	43534952 	c0	0x1534952
     1fc:	544e495f 	bnel	v0,t6,1277c <Interrupt-0xb7feda04>
     200:	4d454d5f 	0x4d454d5f
     204:	00324843 	0x324843
     208:	43534952 	c0	0x1534952
     20c:	544e495f 	bnel	v0,t6,1278c <Interrupt-0xb7fed9f4>
     210:	4d454d5f 	0x4d454d5f
     214:	00334843 	0x334843
     218:	43534952 	c0	0x1534952
     21c:	544e495f 	bnel	v0,t6,1279c <Interrupt-0xb7fed9e4>
     220:	4d454d5f 	0x4d454d5f
     224:	00344843 	0x344843
     228:	43534952 	c0	0x1534952
     22c:	544e495f 	bnel	v0,t6,127ac <Interrupt-0xb7fed9d4>
     230:	4d454d5f 	0x4d454d5f
     234:	00354843 	0x354843
     238:	43534952 	c0	0x1534952
     23c:	544e495f 	bnel	v0,t6,127bc <Interrupt-0xb7fed9c4>
     240:	4d454d5f 	0x4d454d5f
     244:	00364843 	0x364843
     248:	43534952 	c0	0x1534952
     24c:	544e495f 	bnel	v0,t6,127cc <Interrupt-0xb7fed9b4>
     250:	4d454d5f 	0x4d454d5f
     254:	00374843 	0x374843
     258:	41474947 	0x41474947
     25c:	5750535f 	bnel	k0,s0,14fdc <Interrupt-0xb7feb1a4>
     260:	414d505f 	0x414d505f
     264:	444f4d5f 	0x444f4d5f
     268:	6e780045 	0x6e780045
     26c:	74756f5f 	jalx	1d5bd7c <Interrupt-0xb62a4404>
     270:	67696700 	0x67696700
     274:	77707361 	jalx	dc1cd84 <Interrupt-0xaa3e33fc>
     278:	72695f72 	0x72695f72
     27c:	72745f71 	0x72745f71
     280:	73007365 	0x73007365
     284:	006e6769 	0x6e6769
     288:	5f315852 	0x5f315852
     28c:	445f4643 	0x445f4643
     290:	31524946 	andi	s2,t2,0x4946
     294:	31585200 	andi	t8,t2,0x5200
     298:	5f46435f 	0x5f46435f
     29c:	52494644 	beql	s2,t1,11bb0 <Interrupt-0xb7fee5d0>
     2a0:	54530032 	bnel	v0,s3,36c <Interrupt-0xb7fffe14>
     2a4:	5f455441 	0x5f455441
     2a8:	65670052 	0x65670052
     2ac:	78725f74 	0x78725f74
     2b0:	6570735f 	0x6570735f
     2b4:	53006465 	beqzl	t8,1944c <Interrupt-0xb7fe6d34>
     2b8:	535f4843 	beql	k0,ra,123c8 <Interrupt-0xb7feddb8>
     2bc:	58520057 	0x58520057
     2c0:	4649465f 	c1	0x49465f
     2c4:	48545f4f 	0x48545f4f
     2c8:	48534552 	0x48534552
     2cc:	726f7000 	0x726f7000
     2d0:	616d5f74 	0x616d5f74
     2d4:	756e5f78 	jalx	5b97de0 <Interrupt-0xb24683a0>
     2d8:	7000626d 	0x7000626d
     2dc:	5f74726f 	0x5f74726f
     2e0:	61676967 	0x61676967
     2e4:	30777073 	andi	s7,v1,0x7073
     2e8:	726f7000 	0x726f7000
     2ec:	69675f74 	0x69675f74
     2f0:	70736167 	0x70736167
     2f4:	70003177 	0x70003177
     2f8:	5f74726f 	0x5f74726f
     2fc:	61676967 	0x61676967
     300:	32777073 	andi	s7,s3,0x7073
     304:	726f7000 	0x726f7000
     308:	69675f74 	0x69675f74
     30c:	70736167 	0x70736167
     310:	74003377 	jalx	cddc <Interrupt-0xb7ff33a4>
     314:	5f747365 	0x5f747365
     318:	00736f63 	0x736f63
     31c:	5f345852 	0x5f345852
     320:	0046564f 	0x46564f
     324:	61746164 	0x61746164
     328:	6e656c5f 	0x6e656c5f
     32c:	6d6e7500 	0x6d6e7500
     330:	5f6b7361 	0x5f6b7361
     334:	00717269 	0x717269
     338:	5f535953 	0x5f535953
     33c:	656d6974 	0x656d6974
     340:	53003072 	beqzl	t8,c50c <Interrupt-0xb7ff3c74>
     344:	745f5359 	jalx	17d4d64 <Interrupt-0xb682b41c>
     348:	72656d69 	0x72656d69
     34c:	5f4e0031 	0x5f4e0031
     350:	006c6f63 	0x6c6f63
     354:	53434952 	beql	k0,v1,128a0 <Interrupt-0xb7fed8e0>
     358:	4358455f 	c0	0x158455f
     35c:	4550465f 	0x4550465f
     360:	61725400 	0x61725400
     364:	0066736e 	0x66736e
     368:	5f697073 	0x5f697073
     36c:	38383231 	xori	t8,at,0x3231
     370:	0072775f 	0x72775f
     374:	32636461 	andi	v1,s3,0x6461
     378:	696e695f 	0x696e695f
     37c:	44490074 	0x44490074
     380:	5245565f 	beql	s2,a1,15d00 <Interrupt-0xb7fea480>
     384:	63726300 	0x63726300
     388:	706e695f 	0x706e695f
     38c:	52007475 	beqzl	s0,1d564 <Interrupt-0xb7fe2c1c>
     390:	445f3458 	0x445f3458
     394:	31524946 	andi	s2,t2,0x4946
     398:	4746435f 	c1	0x146435f
     39c:	58520031 	0x58520031
     3a0:	46445f34 	c1	0x445f34
     3a4:	5f315249 	0x5f315249
     3a8:	32474643 	andi	a3,s2,0x4643
     3ac:	33585200 	andi	t8,k0,0x5200
     3b0:	46434c5f 	c1	0x434c5f
     3b4:	69670047 	0x69670047
     3b8:	70736167 	0x70736167
     3bc:	695f7277 	0x695f7277
     3c0:	745f7172 	jalx	17dc5c8 <Interrupt-0xb6823bb8>
     3c4:	00627261 	0x627261
     3c8:	5f484353 	0x5f484353
     3cc:	474e454c 	c1	0x14e454c
     3d0:	505f5448 	beql	v0,ra,154f4 <Interrupt-0xb7feac8c>
     3d4:	454b4341 	0x454b4341
     3d8:	4c460054 	0x4c460054
     3dc:	545f4741 	bnel	v0,ra,120e4 <Interrupt-0xb7fee09c>
     3e0:	00545345 	0x545345
     3e4:	74726f70 	jalx	1c9bdc0 <Interrupt-0xb63643c0>
     3e8:	7770735f 	jalx	dc1cd7c <Interrupt-0xaa3e3404>
     3ec:	6f700030 	0x6f700030
     3f0:	735f7472 	0x735f7472
     3f4:	00317770 	tge	at,s1,0x1dd
     3f8:	5f777073 	0x5f777073
     3fc:	65646f6d 	0x65646f6d
     400:	6f746900 	0x6f746900
     404:	61770078 	0x61770078
     408:	6c5f7469 	0x6c5f7469
     40c:	5f6b6e69 	0x5f6b6e69
     410:	74617473 	jalx	185d1cc <Interrupt-0xb67a2fb4>
     414:	73007375 	0x73007375
     418:	725f7465 	0x725f7465
     41c:	76696365 	jalx	9a58d94 <Interrupt-0xae5a73ec>
     420:	70735f65 	0x70735f65
     424:	00646565 	0x646565
     428:	53434952 	beql	k0,v1,12974 <Interrupt-0xb7fed80c>
     42c:	4358455f 	c0	0x158455f
     430:	48434d5f 	0x48434d5f
     434:	004b4345 	0x4b4345
     438:	79625f6c 	0x79625f6c
     43c:	47006574 	c1	0x1006574
     440:	4320554e 	c0	0x120554e
     444:	382e3420 	xori	t6,at,0x3420
     448:	2d20312e 	sltiu	zero,t1,12590
     44c:	20302047 	addi	s0,at,8263
     450:	6c656d2d 	0x6c656d2d
     454:	696d2d20 	0x696d2d20
     458:	32337370 	andi	s3,s1,0x7370
     45c:	686d2d20 	0x686d2d20
     460:	2d647261 	sltiu	a0,t3,29281
     464:	616f6c66 	0x616f6c66
     468:	672d2074 	0x672d2074
     46c:	6e662d20 	0x6e662d20
     470:	65642d6f 	0x65642d6f
     474:	6579616c 	0x6579616c
     478:	72622d64 	0x72622d64
     47c:	68636e61 	0x68636e61
     480:	42464d00 	c0	0x464d00
     484:	5f335053 	0x5f335053
     488:	74696e69 	jalx	1a5b9a4 <Interrupt-0xb65a47dc>
     48c:	43495200 	c0	0x1495200
     490:	58455f53 	0x58455f53
     494:	52545f43 	beql	s2,s4,181a4 <Interrupt-0xb7fe7fdc>
     498:	61005041 	0x61005041
     49c:	6d756363 	0x6d756363
     4a0:	5200495f 	beqzl	s0,12a20 <Interrupt-0xb7fed760>
     4a4:	4e5f3258 	c3	0x5f3258
     4a8:	465f4f43 	c1	0x5f4f43
     4ac:	00485152 	0x485152
     4b0:	67616c66 	0x67616c66
     4b4:	6361705f 	0x6361705f
     4b8:	5f616b68 	0x5f616b68
     4bc:	00545854 	0x545854
     4c0:	5f325852 	0x5f325852
     4c4:	5f4f434e 	0x5f4f434e
     4c8:	4c515246 	0x4c515246
     4cc:	42464d00 	c0	0x464d00
     4d0:	5f305053 	0x5f305053
     4d4:	74696e69 	jalx	1a5b9a4 <Interrupt-0xb65a47dc>
     4d8:	34585200 	ori	t8,v0,0x5200
     4dc:	5f46435f 	0x5f46435f
     4e0:	52494644 	beql	s2,t1,11df4 <Interrupt-0xb7fee38c>
     4e4:	58520031 	0x58520031
     4e8:	46435f34 	c1	0x435f34
     4ec:	4946445f 	0x4946445f
     4f0:	66003252 	0x66003252
     4f4:	5f716572 	0x5f716572
     4f8:	636e7566 	0x636e7566
     4fc:	5f787200 	0x5f787200
     500:	695f7277 	0x695f7277
     504:	7865646e 	0x7865646e
     508:	65740030 	0x65740030
     50c:	7a5f706d 	0x7a5f706d
     510:	58520030 	0x58520030
     514:	434c5f32 	c0	0x14c5f32
     518:	64004746 	0x64004746
     51c:	5f637365 	0x5f637365
     520:	00637273 	tltu	v1,v1,0x1c9
     524:	61746164 	0x61746164
     528:	616c665f 	0x616c665f
     52c:	45520067 	0x45520067
     530:	56524553 	bnel	s2,s2,11a80 <Interrupt-0xb7fee700>
     534:	00304445 	0x304445
     538:	69736e75 	0x69736e75
     53c:	64656e67 	0x64656e67
     540:	61686320 	0x61686320
     544:	3a630072 	xori	v1,s3,0x72
     548:	726f775c 	0x726f775c
     54c:	72705c6b 	0x72705c6b
     550:	63656a6f 	0x63656a6f
     554:	356d5f74 	ori	t5,t3,0x5f74
     558:	356d5c34 	ori	t5,t3,0x5c34
     55c:	6c655f34 	0x6c655f34
     560:	5c736976 	0x5c736976
     564:	75646f6d 	jalx	591bdb4 <Interrupt-0xb26e43cc>
     568:	34355f6c 	ori	s5,at,0x5f6c
     56c:	5f6a705c 	0x5f6a705c
     570:	315f3435 	andi	ra,t2,0x3435
     574:	4c460035 	0x4c460035
     578:	445f4741 	0x445f4741
     57c:	5f415441 	0x5f415441
     580:	50455250 	beql	v0,a1,14ec4 <Interrupt-0xb7feb2bc>
     584:	67696700 	0x67696700
     588:	5f777361 	0x5f777361
     58c:	65657073 	0x65657073
     590:	31335f64 	andi	s3,t1,0x5f64
     594:	686d5f32 	0x686d5f32
     598:	7364007a 	0x7364007a
     59c:	6174735f 	0x6174735f
     5a0:	67006574 	0x67006574
     5a4:	73616769 	0x73616769
     5a8:	70735f77 	0x70735f77
     5ac:	5f646565 	0x5f646565
     5b0:	30353231 	andi	s5,at,0x3231
     5b4:	7a686d5f 	0x7a686d5f
     5b8:	616c6600 	0x616c6600
     5bc:	4d445f67 	0x4d445f67
     5c0:	504c5f41 	beql	v0,t4,182c8 <Interrupt-0xb7fe7eb8>
     5c4:	0054524f 	0x54524f
     5c8:	6f6f425f 	0x6f6f425f
     5cc:	4441006c 	0x4441006c
     5d0:	564f5f43 	bnel	s2,t7,182e0 <Interrupt-0xb7fe7ea0>
     5d4:	616d0046 	0x616d0046
     5d8:	735f6e69 	0x735f6e69
     5dc:	656c6163 	0x656c6163
     5e0:	5f636400 	0x5f636400
     5e4:	726c6e68 	0x726c6e68
     5e8:	544e4900 	bnel	v0,t6,129ec <Interrupt-0xb7fed794>
     5ec:	485f5245 	0x485f5245
     5f0:	4c444e41 	0x4c444e41
     5f4:	545f5245 	bnel	v0,ra,14f0c <Interrupt-0xb7feb274>
     5f8:	5f4d5245 	0x5f4d5245
     5fc:	434e5546 	c0	0x14e5546
     600:	414d0054 	0x414d0054
     604:	32524b53 	andi	s2,s2,0x4b53
     608:	7465735f 	jalx	195cd7c <Interrupt-0xb66a3404>
     60c:	74634100 	jalx	18d0400 <Interrupt-0xb672fd80>
     610:	49657669 	0x49657669
     614:	73005152 	0x73005152
     618:	655f6863 	0x655f6863
     61c:	746e6576 	jalx	1b995d8 <Interrupt-0xb6466ba8>
     620:	6c6c7000 	0x6c6c7000
     624:	006e655f 	0x6e655f
     628:	5f325852 	0x5f325852
     62c:	52494644 	beql	s2,t1,11f40 <Interrupt-0xb7fee240>
     630:	46435f31 	c1	0x435f31
     634:	52003147 	beqzl	s0,cb54 <Interrupt-0xb7ff362c>
     638:	445f3258 	0x445f3258
     63c:	31524946 	andi	s2,t2,0x4946
     640:	4746435f 	c1	0x146435f
     644:	4c460032 	0x4c460032
     648:	435f4741 	c0	0x15f4741
     64c:	50530057 	beql	v0,s3,7ac <Interrupt-0xb7fff9d4>
     650:	50535f57 	beql	v0,s3,183b0 <Interrupt-0xb7fe7dd0>
     654:	435f4345 	c0	0x15f4345
     658:	454c4241 	0x454c4241
     65c:	524f505f 	beql	s2,t7,147dc <Interrupt-0xb7feb9a4>
     660:	43005354 	c0	0x1005354
     664:	545f5255 	bnel	v0,ra,14fbc <Interrupt-0xb7feb1c4>
     668:	00454d49 	0x454d49
     66c:	54524155 	bnel	v0,s2,10bc4 <Interrupt-0xb7fef5bc>
     670:	6f635f31 	0x6f635f31
     674:	6500666e 	0x6500666e
     678:	726f7272 	0x726f7272
     67c:	49520073 	0x49520073
     680:	495f4353 	0x495f4353
     684:	455f544e 	0x455f544e
     688:	5f43414d 	0x5f43414d
     68c:	465f5852 	c1	0x5f5852
     690:	454d4152 	0x454d4152
     694:	31585200 	andi	t8,t2,0x5200
     698:	4946445f 	0x4946445f
     69c:	435f3252 	c0	0x15f3252
     6a0:	00324746 	0x324746
     6a4:	47414c46 	c1	0x1414c46
     6a8:	5441445f 	bnel	v0,at,11828 <Interrupt-0xb7fee958>
     6ac:	74730041 	jalx	1cc0104 <Interrupt-0xb634007c>
     6b0:	00676e72 	tlt	v1,a3,0x1b9
     6b4:	5f575053 	0x5f575053
     6b8:	45455053 	0x45455053
     6bc:	54535f44 	bnel	v0,s3,183d0 <Interrupt-0xb7fe7db0>
     6c0:	53005045 	beqzl	t8,147d8 <Interrupt-0xb7feb9a8>
     6c4:	705f5770 	0x705f5770
     6c8:	5f74726f 	0x5f74726f
     6cc:	5852006e 	0x5852006e
     6d0:	41475f32 	0x41475f32
     6d4:	495f4e49 	0x495f4e49
     6d8:	4c434c00 	0x4c434c00
     6dc:	41525f4b 	0x41525f4b
     6e0:	44004554 	0x44004554
     6e4:	505f414d 	beql	v0,ra,10c1c <Interrupt-0xb7fef564>
     6e8:	5f54524f 	0x5f54524f
     6ec:	525f4843 	beql	s2,ra,127fc <Interrupt-0xb7fed984>
     6f0:	5f534745 	0x5f534745
     6f4:	45534142 	0x45534142
     6f8:	32585200 	andi	t8,s2,0x5200
     6fc:	4941475f 	0x4941475f
     700:	00515f4e 	0x515f4e
     704:	43534952 	c0	0x1534952
     708:	544e495f 	bnel	v0,t6,12c88 <Interrupt-0xb7fed4f8>
     70c:	414d455f 	0x414d455f
     710:	4d445f43 	0x4d445f43
     714:	58525f41 	0x58525f41
     718:	54455300 	bnel	v0,a1,1531c <Interrupt-0xb7feae64>
     71c:	55005055 	bnezl	t0,14874 <Interrupt-0xb7feb90c>
     720:	5f545241 	0x5f545241
     724:	646e6573 	0x646e6573
     728:	65747942 	0x65747942
     72c:	72757400 	0x72757400
     730:	666f5f6e 	0x666f5f6e
     734:	5f680066 	0x5f680066
     738:	65747962 	0x65747962
     73c:	67696700 	0x67696700
     740:	77707361 	jalx	dc1cd84 <Interrupt-0xaa3e33fc>
     744:	72695f72 	0x72695f72
     748:	6f635f71 	0x6f635f71
     74c:	63656e6e 	0x63656e6e
     750:	74690074 	jalx	1a401d0 <Interrupt-0xb65bffb0>
     754:	5200616f 	beqzl	s0,18d14 <Interrupt-0xb7fe746c>
     758:	445f3358 	0x445f3358
     75c:	32524946 	andi	s2,s2,0x4946
     760:	4746435f 	c1	0x146435f
     764:	58520031 	0x58520031
     768:	46445f33 	c1	0x445f33
     76c:	5f325249 	0x5f325249
     770:	32474643 	andi	a3,s2,0x4643
     774:	54414400 	bnel	v0,at,11778 <Interrupt-0xb7feea08>
     778:	6f575f41 	0x6f575f41
     77c:	41006472 	bc0f	19948 <Interrupt-0xb7fe6838>
     780:	435f4344 	c0	0x15f4344
     784:	74004746 	jalx	11d18 <Interrupt-0xb7fee468>
     788:	5f747865 	0x5f747865
     78c:	66667562 	0x66667562
     790:	44007265 	0x44007265
     794:	5f415441 	0x5f415441
     798:	4e554f43 	c3	0x554f43
     79c:	00524554 	0x524554
     7a0:	445f5753 	0x445f5753
     7a4:	545f5441 	bnel	v0,ra,158ac <Interrupt-0xb7fea8d4>
     7a8:	5354554f 	beql	k0,s4,15ce8 <Interrupt-0xb7fea498>
     7ac:	57530032 	bnel	k0,s3,878 <Interrupt-0xb7fff908>
     7b0:	5441445f 	bnel	v0,at,11930 <Interrupt-0xb7fee850>
     7b4:	554f545f 	bnel	t2,t7,15934 <Interrupt-0xb7fea84c>
     7b8:	00335354 	0x335354
     7bc:	67616c46 	0x67616c46
     7c0:	7369445f 	0x7369445f
     7c4:	6e6e6f63 	0x6e6e6f63
     7c8:	00746365 	0x746365
     7cc:	5f524156 	0x5f524156
     7d0:	49534552 	0x49534552
     7d4:	00524556 	0x524556
     7d8:	67616c66 	0x67616c66
     7dc:	7272655f 	0x7272655f
     7e0:	5300726f 	beqzl	t8,1d1a0 <Interrupt-0xb7fe2fe0>
     7e4:	5f525750 	0x5f525750
     7e8:	445f5854 	0x445f5854
     7ec:	685f5441 	0x685f5441
     7f0:	6c646e61 	0x6c646e61
     7f4:	49007265 	bc2f	1d18c <Interrupt-0xb7fe2ff4>
     7f8:	4c5f3144 	0x4c5f3144
     7fc:	54524f50 	bnel	v0,s2,14540 <Interrupt-0xb7febc40>
     800:	6e61685f 	0x6e61685f
     804:	72656c64 	0x72656c64
     808:	49525000 	0x49525000
     80c:	455f544e 	0x455f544e
     810:	6f72004e 	0x6f72004e
     814:	5f657475 	0x5f657475
     818:	6b73616d 	0x6b73616d
     81c:	6769675f 	0x6769675f
     820:	77707361 	jalx	dc1cd84 <Interrupt-0xaa3e33fc>
     824:	6f720030 	0x6f720030
     828:	5f657475 	0x5f657475
     82c:	6b73616d 	0x6b73616d
     830:	6769675f 	0x6769675f
     834:	77707361 	jalx	dc1cd84 <Interrupt-0xaa3e33fc>
     838:	6f720031 	0x6f720031
     83c:	5f657475 	0x5f657475
     840:	6b73616d 	0x6b73616d
     844:	6769675f 	0x6769675f
     848:	77707361 	jalx	dc1cd84 <Interrupt-0xaa3e33fc>
     84c:	49520032 	0x49520032
     850:	495f4353 	0x495f4353
     854:	4d5f544e 	0x4d5f544e
     858:	50534246 	beql	v0,s3,11174 <Interrupt-0xb7fef00c>
     85c:	4258545f 	c0	0x58545f
     860:	00304655 	0x304655
     864:	43534952 	c0	0x1534952
     868:	544e495f 	bnel	v0,t6,12de8 <Interrupt-0xb7fed398>
     86c:	42464d5f 	c0	0x464d5f
     870:	545f5053 	bnel	v0,ra,149c0 <Interrupt-0xb7feb7c0>
     874:	46554258 	c1	0x554258
     878:	49520031 	0x49520031
     87c:	495f4353 	0x495f4353
     880:	4d5f544e 	0x4d5f544e
     884:	50534246 	beql	v0,s3,111a0 <Interrupt-0xb7feefe0>
     888:	4258545f 	c0	0x58545f
     88c:	00324655 	0x324655
     890:	43534952 	c0	0x1534952
     894:	544e495f 	bnel	v0,t6,12e14 <Interrupt-0xb7fed36c>
     898:	42464d5f 	c0	0x464d5f
     89c:	545f5053 	bnel	v0,ra,149ec <Interrupt-0xb7feb794>
     8a0:	46554258 	c1	0x554258
     8a4:	65720033 	0x65720033
     8a8:	64656461 	0x64656461
     8ac:	43495200 	c0	0x1495200
     8b0:	58455f53 	0x58455f53
     8b4:	564f5f43 	bnel	s2,t7,185c4 <Interrupt-0xb7fe7bbc>
     8b8:	52454900 	beql	s2,a1,12cbc <Interrupt-0xb7fed4c4>
     8bc:	5241555f 	beql	s2,at,15e3c <Interrupt-0xb7fea344>
     8c0:	49520054 	0x49520054
     8c4:	495f4353 	0x495f4353
     8c8:	455f544e 	0x455f544e
     8cc:	5f43414d 	0x5f43414d
     8d0:	5f414d44 	0x5f414d44
     8d4:	52005854 	beqzl	s0,16a28 <Interrupt-0xb7fe9758>
     8d8:	55425f58 	bnel	t2,v0,1863c <Interrupt-0xb7fe7b44>
     8dc:	54535f46 	bnel	v0,s3,185f8 <Interrupt-0xb7fe7b88>
     8e0:	00455441 	0x455441
     8e4:	495f5854 	0x495f5854
     8e8:	5f454c44 	0x5f454c44
     8ec:	00525443 	0x525443
     8f0:	5f315852 	0x5f315852
     8f4:	5f4f434e 	0x5f4f434e
     8f8:	48515246 	0x48515246
     8fc:	67696700 	0x67696700
     900:	77707361 	jalx	dc1cd84 <Interrupt-0xaa3e33fc>
     904:	72695f72 	0x72695f72
     908:	30635f71 	andi	v1,v1,0x5f71
     90c:	58520031 	0x58520031
     910:	46435f33 	c1	0x435f33
     914:	4946445f 	0x4946445f
     918:	52003152 	beqzl	s0,ce64 <Interrupt-0xb7ff331c>
     91c:	435f3358 	c0	0x15f3358
     920:	46445f46 	c1	0x445f46
     924:	00325249 	0x325249
     928:	47414c46 	c1	0x1414c46
     92c:	5f57535f 	0x5f57535f
     930:	52415453 	beql	s2,at,15a80 <Interrupt-0xb7fea700>
     934:	58520054 	0x58520054
     938:	434e5f32 	c0	0x14e5f32
     93c:	48505f4f 	0x48505f4f
     940:	00455341 	0x455341
     944:	5f444d43 	0x5f444d43
     948:	4e554f43 	c3	0x554f43
     94c:	00524554 	0x524554
     950:	5f686373 	0x5f686373
     954:	676e656c 	0x676e656c
     958:	645f7468 	0x645f7468
     95c:	00617461 	0x617461
     960:	505f5852 	beql	v0,ra,16aac <Interrupt-0xb7fe96d4>
     964:	435f414d 	c0	0x15f414d
     968:	52005254 	beqzl	s0,152bc <Interrupt-0xb7feaec4>
     96c:	4f5f3258 	c3	0x15f3258
     970:	52004656 	beqzl	s0,122cc <Interrupt-0xb7fedeb4>
     974:	54535f58 	bnel	v0,s3,186d8 <Interrupt-0xb7fe7aa8>
     978:	00455441 	0x455441
     97c:	41544144 	0x41544144
     980:	726f575f 	0x726f575f
     984:	49003264 	bc2f	d318 <Interrupt-0xb7ff2e68>
     988:	57535f44 	bnel	k0,s3,1869c <Interrupt-0xb7fe7ae4>
     98c:	48435449 	0x48435449
     990:	63636100 	0x63636100
     994:	515f6d75 	beql	t2,ra,1bf6c <Interrupt-0xb7fe4214>
     998:	31585200 	andi	t8,t2,0x5200
     99c:	4f434e5f 	c3	0x1434e5f
     9a0:	4148505f 	0x4148505f
     9a4:	52004553 	beqzl	s0,11ef4 <Interrupt-0xb7fee28c>
     9a8:	4e5f3158 	c3	0x5f3158
     9ac:	465f4f43 	c1	0x5f4f43
     9b0:	004c5152 	0x4c5152
     9b4:	61676967 	0x61676967
     9b8:	72777073 	0x72777073
     9bc:	7172695f 	0x7172695f
     9c0:	3131635f 	andi	s1,t1,0x635f
     9c4:	72617000 	0x72617000
     9c8:	67006d61 	0x67006d61
     9cc:	73616769 	0x73616769
     9d0:	5f727770 	0x5f727770
     9d4:	5f717269 	0x5f717269
     9d8:	74756f74 	jalx	1d5bdd0 <Interrupt-0xb62a43b0>
     9dc:	65640073 	0x65640073
     9e0:	30726373 	andi	s2,v1,0x6373
     9e4:	73656400 	0x73656400
     9e8:	00317263 	0x317263
     9ec:	635f7872 	0x635f7872
     9f0:	746e756f 	jalx	1b9d5bc <Interrupt-0xb6462bc4>
     9f4:	00307265 	0x307265
     9f8:	43534952 	c0	0x1534952
     9fc:	544e495f 	bnel	v0,t6,12f7c <Interrupt-0xb7fed204>
     a00:	4950535f 	0x4950535f
     a04:	544e4900 	bnel	v0,t6,12e08 <Interrupt-0xb7fed378>
     a08:	30385f48 	andi	t8,at,0x5f48
     a0c:	32303030 	andi	s0,s1,0x3030
     a10:	64003030 	0x64003030
     a14:	315f7073 	andi	ra,t2,0x7073
     a18:	68383832 	0x68383832
     a1c:	5f74316b 	0x5f74316b
     a20:	74696e69 	jalx	1a5b9a4 <Interrupt-0xb65a47dc>
     a24:	5f787200 	0x5f787200
     a28:	66667562 	0x66667562
     a2c:	6f5f7265 	0x6f5f7265
     a30:	66726576 	0x66726576
     a34:	30776f6c 	andi	s7,v1,0x6f6c
     a38:	63726300 	0x63726300
     a3c:	6d6f635f 	0x6d6f635f
     a40:	4e490070 	c3	0x490070
     a44:	52004554 	beqzl	s0,11f98 <Interrupt-0xb7fee1e8>
     a48:	5f435349 	0x5f435349
     a4c:	5f544e49 	0x5f544e49
     a50:	4d465053 	0x4d465053
     a54:	00304349 	0x304349
     a58:	43534952 	c0	0x1534952
     a5c:	544e495f 	bnel	v0,t6,12fdc <Interrupt-0xb7fed1a4>
     a60:	4650535f 	c1	0x50535f
     a64:	3143494d 	andi	v1,t2,0x494d
     a68:	67657200 	0x67657200
     a6c:	3832315f 	xori	s2,at,0x315f
     a70:	4e490038 	c3	0x490038
     a74:	72005254 	0x72005254
     a78:	6574756f 	0x6574756f
     a7c:	73616d5f 	0x73616d5f
     a80:	69675f6b 	0x69675f6b
     a84:	70736167 	0x70736167
     a88:	70003377 	0x70003377
     a8c:	656b6361 	0x656b6361
     a90:	6b6f5f74 	0x6b6f5f74
     a94:	61655200 	0x61655200
     a98:	5f646564 	0x5f646564
     a9c:	756c6176 	jalx	5b185d8 <Interrupt-0xb24e7ba8>
     aa0:	49520065 	0x49520065
     aa4:	495f4353 	0x495f4353
     aa8:	4d5f544e 	0x4d5f544e
     aac:	48434d45 	0x48434d45
     ab0:	52003031 	beqzl	s0,cb78 <Interrupt-0xb7ff3608>
     ab4:	5f435349 	0x5f435349
     ab8:	5f544e49 	0x5f544e49
     abc:	434d454d 	c0	0x14d454d
     ac0:	00313148 	0x313148
     ac4:	43534952 	c0	0x1534952
     ac8:	544e495f 	bnel	v0,t6,13048 <Interrupt-0xb7fed138>
     acc:	4d454d5f 	0x4d454d5f
     ad0:	32314843 	andi	s1,s1,0x4843
     ad4:	53495200 	beql	k0,t1,152d8 <Interrupt-0xb7feaea8>
     ad8:	4e495f43 	c3	0x495f43
     adc:	454d5f54 	0x454d5f54
     ae0:	3148434d 	andi	t0,t2,0x434d
     ae4:	49520033 	0x49520033
     ae8:	495f4353 	0x495f4353
     aec:	4d5f544e 	0x4d5f544e
     af0:	48434d45 	0x48434d45
     af4:	52003431 	beqzl	s0,dbbc <Interrupt-0xb7ff25c4>
     af8:	5f435349 	0x5f435349
     afc:	5f544e49 	0x5f544e49
     b00:	434d454d 	c0	0x14d454d
     b04:	00353148 	0x353148
     b08:	43534952 	c0	0x1534952
     b0c:	544e495f 	bnel	v0,t6,1308c <Interrupt-0xb7fed0f4>
     b10:	4d454d5f 	0x4d454d5f
     b14:	36314843 	ori	s1,s1,0x4843
     b18:	53495200 	beql	k0,t1,1531c <Interrupt-0xb7feae64>
     b1c:	4e495f43 	c3	0x495f43
     b20:	454d5f54 	0x454d5f54
     b24:	3148434d 	andi	t0,t2,0x434d
     b28:	4e490037 	c3	0x490037
     b2c:	495f4154 	0x495f4154
     b30:	4d5f5152 	0x4d5f5152
     b34:	5f4b5341 	0x5f4b5341
     b38:	4e490048 	c3	0x490048
     b3c:	495f4154 	0x495f4154
     b40:	4d5f5152 	0x4d5f5152
     b44:	5f4b5341 	0x5f4b5341
     b48:	5541004c 	bnel	t2,at,c7c <Interrupt-0xb7fff504>
     b4c:	435f4f54 	c0	0x15f4f54
     b50:	6600554f 	0x6600554f
     b54:	5f67616c 	0x5f67616c
     b58:	555f5753 	bnel	t2,ra,168a8 <Interrupt-0xb7fe98d8>
     b5c:	65740050 	0x65740050
     b60:	6c5f7478 	0x6c5f7478
     b64:	68676e65 	0x68676e65
     b68:	74616400 	jalx	1859000 <Interrupt-0xb67a7180>
     b6c:	6c665f61 	0x6c665f61
     b70:	00326761 	0x326761
     b74:	6f706572 	0x6f706572
     b78:	685f7472 	0x685f7472
     b7c:	00686769 	0x686769
     b80:	43534952 	c0	0x1534952
     b84:	5152495f 	beql	t2,s2,13104 <Interrupt-0xb7fed07c>
     b88:	53414d5f 	beql	k0,at,14108 <Interrupt-0xb7fec078>
     b8c:	4c50004b 	0x4c50004b
     b90:	54435f4c 	bnel	v0,v1,188c4 <Interrupt-0xb7fe78bc>
     b94:	6f6c0052 	0x6f6c0052
     b98:	6c20676e 	0x6c20676e
     b9c:	20676e6f 	addi	a3,v1,28271
     ba0:	00746e69 	0x746e69
     ba4:	48544e49 	0x48544e49
     ba8:	3030385f 	andi	s0,at,0x385f
     bac:	38313030 	xori	s1,at,0x3030
     bb0:	49520030 	0x49520030
     bb4:	455f5343 	0x455f5343
     bb8:	525f4358 	beql	s2,ra,1191c <Interrupt-0xb7fee864>
     bbc:	49520049 	0x49520049
     bc0:	455f5343 	0x455f5343
     bc4:	4d5f4358 	0x4d5f4358
     bc8:	6700444f 	0x6700444f
     bcc:	73616769 	0x73616769
     bd0:	5f727770 	0x5f727770
     bd4:	5f717269 	0x5f717269
     bd8:	656d6974 	0x656d6974
     bdc:	6e696c00 	0x6e696c00
     be0:	74735f6b 	jalx	1cd7dac <Interrupt-0xb63283d4>
     be4:	73757461 	0x73757461
     be8:	6e6f635f 	0x6e6f635f
     bec:	7463656e 	jalx	18d95b8 <Interrupt-0xb6726bc8>
     bf0:	00676e69 	0x676e69
     bf4:	5f64656c 	0x5f64656c
     bf8:	6b636974 	0x6b636974
     bfc:	49505300 	0x49505300
     c00:	696e695f 	0x696e695f
     c04:	58520074 	0x58520074
     c08:	43445f34 	c0	0x1445f34
     c0c:	004e4349 	0x4e4349
     c10:	524f506c 	beql	s2,t7,14dc4 <Interrupt-0xb7feb3bc>
     c14:	4d445f54 	0x4d445f54
     c18:	59530041 	0x59530041
     c1c:	6d00434e 	0x6d00434e
     c20:	2e6e6961 	sltiu	t6,s3,26977
     c24:	49520063 	0x49520063
     c28:	465f4353 	c1	0x5f4353
     c2c:	5f4d4f52 	0x5f4d4f52
     c30:	00505344 	0x505344
     c34:	31636461 	andi	v1,t3,0x6461
     c38:	696e695f 	0x696e695f
     c3c:	69670074 	0x69670074
     c40:	70736167 	0x70736167
     c44:	695f7277 	0x695f7277
     c48:	695f7172 	0x695f7172
     c4c:	6f635f61 	0x6f635f61
     c50:	52006564 	beqzl	s0,1a1e4 <Interrupt-0xb7fe5f9c>
     c54:	5f435349 	0x5f435349
     c58:	5f544e49 	0x5f544e49
     c5c:	52575053 	beql	s2,s7,14dac <Interrupt-0xb7feb3d4>
     c60:	5f58525f 	0x5f58525f
     c64:	00544144 	0x544144
     c68:	726f706c 	0x726f706c
     c6c:	6e495f74 	0x6e495f74
     c70:	41747570 	0x41747570
     c74:	79617272 	0x79617272
     c78:	34585200 	ori	t8,v0,0x5200
     c7c:	4f434e5f 	c3	0x1434e5f
     c80:	5152465f 	beql	t2,s2,12600 <Interrupt-0xb7fedb80>
     c84:	4449004c 	0x4449004c
     c88:	54454e5f 	bnel	v0,a1,14608 <Interrupt-0xb7febb78>
     c8c:	4b434100 	c2	0x1434100
     c90:	4e4f4e5f 	c3	0x4f4e5f
     c94:	4b43415f 	c2	0x143415f
     c98:	4745525f 	c1	0x145525f
     c9c:	00454d49 	0x454d49
     ca0:	6b726f77 	0x6b726f77
     ca4:	006e655f 	0x6e655f
     ca8:	43534952 	c0	0x1534952
     cac:	544e495f 	bnel	v0,t6,1322c <Interrupt-0xb7fecf54>
     cb0:	3054495f 	andi	s4,v0,0x495f
     cb4:	53495200 	beql	k0,t1,154b8 <Interrupt-0xb7feacc8>
     cb8:	4e495f43 	c3	0x495f43
     cbc:	54495f54 	bnel	v0,t1,18a10 <Interrupt-0xb7fe7770>
     cc0:	69670031 	0x69670031
     cc4:	70736167 	0x70736167
     cc8:	6c5f7277 	0x6c5f7277
     ccc:	5f6b6e69 	0x5f6b6e69
     cd0:	74617473 	jalx	185d1cc <Interrupt-0xb67a2fb4>
     cd4:	74007375 	jalx	1cdd4 <Interrupt-0xb7fe33ac>
     cd8:	6f656d69 	0x6f656d69
     cdc:	53007475 	beqzl	t8,1deb4 <Interrupt-0xb7fe22cc>
     ce0:	50437465 	beql	v0,v1,1de78 <Interrupt-0xb7fe2308>
     ce4:	74535f30 	jalx	14d7cc0 <Interrupt-0xb6b284c0>
     ce8:	73757461 	0x73757461
     cec:	6f5f7800 	0x6f5f7800
     cf0:	64007475 	0x64007475
     cf4:	5f617461 	0x5f617461
     cf8:	53490069 	beql	k0,t1,ea0 <Interrupt-0xb7fff2e0>
     cfc:	4f535f52 	c3	0x1535f52
     d00:	45435255 	0x45435255
     d04:	5245545f 	beql	s2,a1,15e84 <Interrupt-0xb7fea2fc>
     d08:	55465f4d 	bnel	t2,a2,18a40 <Interrupt-0xb7fe7740>
     d0c:	0054434e 	0x54434e
     d10:	47414c46 	c1	0x1414c46
     d14:	5f57535f 	0x5f57535f
     d18:	5f544e49 	0x5f544e49
     d1c:	00544144 	0x544144
     d20:	645f7773 	0x645f7773
     d24:	5f617461 	0x5f617461
     d28:	656d626f 	0x656d626f
     d2c:	6164006e 	0x6164006e
     d30:	715f6174 	0x715f6174
     d34:	52524500 	beql	s2,s2,12138 <Interrupt-0xb7fee048>
     d38:	554f435f 	bnel	t2,t7,11ab8 <Interrupt-0xb7fee6c8>
     d3c:	5245544e 	beql	s2,a1,15e78 <Interrupt-0xb7fea308>
     d40:	31585200 	andi	t8,t2,0x5200
     d44:	46564f5f 	c1	0x564f5f
     d48:	53495200 	beql	k0,t1,1554c <Interrupt-0xb7feac34>
     d4c:	4e495f43 	c3	0x495f43
     d50:	4d455f54 	0x4d455f54
     d54:	545f4341 	bnel	v0,ra,11a5c <Interrupt-0xb7fee724>
     d58:	52465f58 	beql	s2,a2,18abc <Interrupt-0xb7fe76c4>
     d5c:	00454d41 	0x454d41
     d60:	41474947 	0x41474947
     d64:	5750535f 	bnel	k0,s0,15ae4 <Interrupt-0xb7fea69c>
     d68:	5f58545f 	0x5f58545f
     d6c:	45455053 	0x45455053
     d70:	68730044 	0x68730044
     d74:	2074726f 	addi	s4,v1,29295
     d78:	00746e69 	0x746e69
     d7c:	5f325852 	0x5f325852
     d80:	445f4643 	0x445f4643
     d84:	31524946 	andi	s2,t2,0x4946
     d88:	32585200 	andi	t8,s2,0x5200
     d8c:	5f46435f 	0x5f46435f
     d90:	52494644 	beql	s2,t1,126a4 <Interrupt-0xb7fedadc>
     d94:	69670032 	0x69670032
     d98:	70736167 	0x70736167
     d9c:	695f7277 	0x695f7277
     da0:	645f7172 	0x645f7172
     da4:	6f637369 	0x6f637369
     da8:	63656e6e 	0x63656e6e
     dac:	65670074 	0x65670074
     db0:	74735f74 	jalx	1cd7dd0 <Interrupt-0xb63283b0>
     db4:	73757461 	0x73757461
     db8:	34585200 	ori	t8,v0,0x5200
     dbc:	4941475f 	0x4941475f
     dc0:	00495f4e 	0x495f4e
     dc4:	43495753 	c0	0x1495753
     dc8:	6d754e5f 	0x6d754e5f
     dcc:	00726562 	0x726562
     dd0:	4b53414d 	c2	0x153414d
     dd4:	735f3052 	0x735f3052
     dd8:	52007465 	beqzl	s0,1df70 <Interrupt-0xb7fe2210>
     ddc:	475f3458 	c1	0x15f3458
     de0:	5f4e4941 	0x5f4e4941
     de4:	6f720051 	0x6f720051
     de8:	5f657475 	0x5f657475
     dec:	6b73616d 	0x6b73616d
     df0:	7770735f 	jalx	dc1cd7c <Interrupt-0xaa3e3404>
     df4:	6f720030 	0x6f720030
     df8:	5f657475 	0x5f657475
     dfc:	6b73616d 	0x6b73616d
     e00:	7770735f 	jalx	dc1cd7c <Interrupt-0xaa3e3404>
     e04:	50530031 	beql	v0,s3,ecc <Interrupt-0xb7fff2b4>
     e08:	545f5257 	bnel	v0,ra,15768 <Interrupt-0xb7feaa18>
     e0c:	45445f58 	0x45445f58
     e10:	61685f53 	0x61685f53
     e14:	656c646e 	0x656c646e
     e18:	6f720072 	0x6f720072
     e1c:	5f657475 	0x5f657475
     e20:	6b73616d 	0x6b73616d
     e24:	6e6f6e5f 	0x6e6f6e5f
     e28:	57530065 	bnel	k0,s3,fc0 <Interrupt-0xb7fff1c0>
     e2c:	535f4349 	beql	k0,ra,11b54 <Interrupt-0xb7fee62c>
     e30:	64656570 	0x64656570
     e34:	31585200 	andi	t8,t2,0x5200
     e38:	46434c5f 	c1	0x434c5f
     e3c:	69670047 	0x69670047
     e40:	77736167 	jalx	dcd859c <Interrupt-0xaa327be4>
     e44:	6570735f 	0x6570735f
     e48:	315f6465 	andi	ra,t2,0x6465
     e4c:	6d5f3532 	0x6d5f3532
     e50:	44007a68 	0x44007a68
     e54:	79616c65 	0x79616c65
     e58:	00736d5f 	0x736d5f
     e5c:	41474947 	0x41474947
     e60:	52575053 	beql	s2,s7,14fb0 <Interrupt-0xb7feb1d0>
     e64:	414d505f 	0x414d505f
     e68:	5345545f 	beql	k0,a1,15fe8 <Interrupt-0xb7fea198>
     e6c:	53435f54 	beql	k0,v1,18bc0 <Interrupt-0xb7fe75c0>
     e70:	41425f52 	0x41425f52
     e74:	54004553 	bnezl	zero,123c4 <Interrupt-0xb7feddbc>
     e78:	52435f52 	beql	s2,v1,18bc4 <Interrupt-0xb7fe75bc>
     e7c:	735f4d41 	0x735f4d41
     e80:	52007465 	beqzl	s0,1e018 <Interrupt-0xb7fe2168>
     e84:	5f435349 	0x5f435349
     e88:	5f544e49 	0x5f544e49
     e8c:	5f414d44 	0x5f414d44
     e90:	5342464d 	beql	k0,v0,127c8 <Interrupt-0xb7fed9b8>
     e94:	52003050 	beqzl	s0,cfd8 <Interrupt-0xb7ff31a8>
     e98:	5f435349 	0x5f435349
     e9c:	5f544e49 	0x5f544e49
     ea0:	5f414d44 	0x5f414d44
     ea4:	5342464d 	beql	k0,v0,127dc <Interrupt-0xb7fed9a4>
     ea8:	52003150 	beqzl	s0,d3ec <Interrupt-0xb7ff2d94>
     eac:	5f435349 	0x5f435349
     eb0:	5f544e49 	0x5f544e49
     eb4:	5f414d44 	0x5f414d44
     eb8:	5342464d 	beql	k0,v0,127f0 <Interrupt-0xb7fed990>
     ebc:	52003250 	beqzl	s0,d800 <Interrupt-0xb7ff2980>
     ec0:	5f435349 	0x5f435349
     ec4:	5f544e49 	0x5f544e49
     ec8:	5f414d44 	0x5f414d44
     ecc:	5342464d 	beql	k0,v0,12804 <Interrupt-0xb7fed97c>
     ed0:	52003350 	beqzl	s0,dc14 <Interrupt-0xb7ff256c>
     ed4:	5f435349 	0x5f435349
     ed8:	5f544e49 	0x5f544e49
     edc:	4d465053 	0x4d465053
     ee0:	545f4349 	bnel	v0,ra,11c08 <Interrupt-0xb7fee578>
     ee4:	45445f58 	0x45445f58
     ee8:	48435f53 	0x48435f53
     eec:	49520030 	0x49520030
     ef0:	495f4353 	0x495f4353
     ef4:	535f544e 	beql	k0,ra,16030 <Interrupt-0xb7fea150>
     ef8:	494d4650 	0x494d4650
     efc:	58545f43 	0x58545f43
     f00:	5345445f 	beql	k0,a1,12080 <Interrupt-0xb7fee100>
     f04:	3148435f 	andi	t0,t2,0x435f
     f08:	69727000 	0x69727000
     f0c:	6c00746e 	0x6c00746e
     f10:	00676e65 	0x676e65
     f14:	65766572 	0x65766572
     f18:	00657372 	tlt	v1,a1,0x1cd
     f1c:	5f746573 	0x5f746573
     f20:	5f616d64 	0x5f616d64
     f24:	62616e65 	0x62616e65
     f28:	0064656c 	0x64656c
     f2c:	47414c46 	c1	0x1414c46
     f30:	4154535f 	0x4154535f
     f34:	5f535554 	0x5f535554
     f38:	43415053 	c0	0x1415053
     f3c:	52495745 	beql	s2,t1,16c54 <Interrupt-0xb7fe952c>
     f40:	6e690045 	0x6e690045
     f44:	5f786564 	0x5f786564
     f48:	64726f77 	0x64726f77
     f4c:	74656700 	jalx	1959c00 <Interrupt-0xb66a6580>
     f50:	72616863 	0x72616863
     f54:	6e490030 	0x6e490030
     f58:	0074754f 	0x74754f
     f5c:	676e6f6c 	0x676e6f6c
     f60:	756f6420 	jalx	5bd9080 <Interrupt-0xb2427100>
     f64:	00656c62 	0x656c62
     f68:	49564544 	0x49564544
     f6c:	69670044 	0x69670044
     f70:	70736167 	0x70736167
     f74:	695f7277 	0x695f7277
     f78:	725f7172 	0x725f7172
     f7c:	6c007473 	0x6c007473
     f80:	5f6b6e69 	0x5f6b6e69
     f84:	74617473 	jalx	185d1cc <Interrupt-0xb67a2fb4>
     f88:	725f7375 	0x725f7375
     f8c:	79646165 	0x79646165
     f90:	494e4900 	0x494e4900
     f94:	45525f54 	0x45525f54
     f98:	53445f47 	beql	k0,a0,18cb8 <Interrupt-0xb7fe74c8>
     f9c:	4d500050 	0x4d500050
     fa0:	45545f41 	0x45545f41
     fa4:	435f5453 	c0	0x15f5453
     fa8:	52005253 	beqzl	s0,158f8 <Interrupt-0xb7fea888>
     fac:	5f435349 	0x5f435349
     fb0:	5f544e49 	0x5f544e49
     fb4:	52575053 	beql	s2,s7,15104 <Interrupt-0xb7feb07c>
     fb8:	5f58525f 	0x5f58525f
     fbc:	00534544 	0x534544
     fc0:	656d6974 	0x656d6974
     fc4:	7261755f 	0x7261755f
     fc8:	69670074 	0x69670074
     fcc:	70736167 	0x70736167
     fd0:	695f7277 	0x695f7277
     fd4:	695f7172 	0x695f7172
     fd8:	5200746e 	beqzl	s0,1e194 <Interrupt-0xb7fe1fec>
     fdc:	475f3158 	c1	0x15f3158
     fe0:	5f4e4941 	0x5f4e4941
     fe4:	58520049 	0x58520049
     fe8:	41475f31 	0x41475f31
     fec:	515f4e49 	beql	t2,ra,14914 <Interrupt-0xb7feb86c>
     ff0:	67696700 	0x67696700
     ff4:	77707361 	jalx	dc1cd84 <Interrupt-0xaa3e33fc>
     ff8:	6f705f72 	0x6f705f72
     ffc:	00737472 	tlt	v1,s3,0x1d1
    1000:	43534952 	c0	0x1534952
    1004:	544e495f 	bnel	v0,t6,13584 <Interrupt-0xb7fecbfc>
    1008:	4650535f 	c1	0x50535f
    100c:	5f43494d 	0x5f43494d
    1010:	445f5854 	0x445f5854
    1014:	435f5441 	c0	0x15f5441
    1018:	52003048 	beqzl	s0,d13c <Interrupt-0xb7ff3044>
    101c:	5f435349 	0x5f435349
    1020:	5f544e49 	0x5f544e49
    1024:	4d465053 	0x4d465053
    1028:	545f4349 	bnel	v0,ra,11d50 <Interrupt-0xb7fee430>
    102c:	41445f58 	0x41445f58
    1030:	48435f54 	0x48435f54
    1034:	58520031 	0x58520031
    1038:	434e5f34 	c0	0x14e5f34
    103c:	48505f4f 	0x48505f4f
    1040:	00455341 	0x455341
    1044:	47414c46 	c1	0x1414c46
    1048:	5f57535f 	0x5f57535f
    104c:	5f544e49 	0x5f544e49
    1050:	00534544 	0x534544
    1054:	45545845 	0x45545845
    1058:	4c414e52 	0x4c414e52
    105c:	5345525f 	beql	k0,a1,159dc <Interrupt-0xb7fea7a4>
    1060:	505f5445 	beql	v0,ra,16178 <Interrupt-0xb7fea008>
    1064:	4d415241 	0x4d415241
    1068:	52455445 	beql	s2,a1,16180 <Interrupt-0xb7fea000>
    106c:	6f6c0053 	0x6f6c0053
    1070:	6c20676e 	0x6c20676e
    1074:	20676e6f 	addi	a3,v1,28271
    1078:	69736e75 	0x69736e75
    107c:	64656e67 	0x64656e67
    1080:	746e6920 	jalx	1b9a480 <Interrupt-0xb6465d00>
    1084:	5f787200 	0x5f787200
    1088:	695f6472 	0x695f6472
    108c:	7865646e 	0x7865646e
    1090:	654d0030 	0x654d0030
    1094:	0031756e 	0x31756e
    1098:	61676967 	0x61676967
    109c:	72777073 	0x72777073
    10a0:	7172695f 	0x7172695f
    10a4:	6b63615f 	0x6b63615f
    10a8:	53495200 	beql	k0,t1,158ac <Interrupt-0xb7fea8d4>
    10ac:	4f435f43 	c3	0x1435f43
    10b0:	5241504d 	beql	s2,at,151e8 <Interrupt-0xb7feaf98>
    10b4:	6e490045 	0x6e490045
    10b8:	41747570 	0x41747570
    10bc:	79617272 	0x79617272
    10c0:	6e490030 	0x6e490030
    10c4:	41747570 	0x41747570
    10c8:	79617272 	0x79617272
    10cc:	58520031 	0x58520031
    10d0:	434e5f33 	c0	0x14e5f33
    10d4:	48505f4f 	0x48505f4f
    10d8:	00455341 	0x455341
    10dc:	625f7872 	0x625f7872
    10e0:	65666675 	0x65666675
    10e4:	67003072 	0x67003072
    10e8:	73616769 	0x73616769
    10ec:	5f727770 	0x5f727770
    10f0:	5f717269 	0x5f717269
    10f4:	656e6f6e 	0x656e6f6e
    10f8:	47494700 	c1	0x1494700
    10fc:	57505341 	bnel	k0,s0,15e04 <Interrupt-0xb7fea37c>
    1100:	45525f52 	0x45525f52
    1104:	425f5347 	c0	0x5f5347
    1108:	00455341 	0x455341
    110c:	72617473 	0x72617473
    1110:	6f635f74 	0x6f635f74
    1114:	63656e6e 	0x63656e6e
    1118:	58520074 	0x58520074
    111c:	46445f33 	c1	0x445f33
    1120:	5f315249 	0x5f315249
    1124:	31474643 	andi	a3,t2,0x4643
    1128:	33585200 	andi	t8,k0,0x5200
    112c:	4946445f 	0x4946445f
    1130:	435f3152 	c0	0x15f3152
    1134:	00324746 	0x324746
    1138:	755f7874 	jalx	57de1d0 <Interrupt-0xb2821fb0>
    113c:	00747261 	0x747261
    1140:	61676967 	0x61676967
    1144:	735f7773 	0x735f7773
    1148:	64656570 	0x64656570
    114c:	3532365f 	ori	s2,t1,0x365f
    1150:	7a686d5f 	0x7a686d5f
    1154:	616c4600 	0x616c4600
    1158:	69545f67 	0x69545f67
    115c:	756f656d 	jalx	5bd95b4 <Interrupt-0xb2426bcc>
    1160:	69670074 	0x69670074
    1164:	77736167 	jalx	dcd859c <Interrupt-0xaa327be4>
    1168:	6570735f 	0x6570735f
    116c:	6d5f6465 	0x6d5f6465
    1170:	72007861 	0x72007861
    1174:	6574756f 	0x6574756f
    1178:	57505300 	bnel	k0,s0,15d7c <Interrupt-0xb7fea404>
    117c:	4550535f 	0x4550535f
    1180:	4d5f4445 	0x4d5f4445
    1184:	67005841 	0x67005841
    1188:	73616769 	0x73616769
    118c:	70735f77 	0x70735f77
    1190:	5f646565 	0x5f646565
    1194:	686d5f35 	0x686d5f35
    1198:	6e69007a 	0x6e69007a
    119c:	5f786564 	0x5f786564
    11a0:	61746164 	0x61746164
    11a4:	726f775f 	0x726f775f
    11a8:	49520064 	0x49520064
    11ac:	495f4353 	0x495f4353
    11b0:	4d5f544e 	0x4d5f544e
    11b4:	48434d45 	0x48434d45
    11b8:	5f585200 	0x5f585200
    11bc:	00474643 	0x474643
    11c0:	444f4343 	0x444f4343
    11c4:	535f5345 	beql	k0,ra,15edc <Interrupt-0xb7fea2a4>
    11c8:	5f434550 	0x5f434550
    11cc:	49474552 	0x49474552
    11d0:	4400454d 	0x4400454d
    11d4:	505f414d 	beql	v0,ra,1170c <Interrupt-0xb7feea74>
    11d8:	5f54524f 	0x5f54524f
    11dc:	635f4843 	0x635f4843
    11e0:	4552006c 	0x4552006c
    11e4:	44005347 	0x44005347
    11e8:	656d6974 	0x656d6974
    11ec:	52003072 	beqzl	s0,d3b8 <Interrupt-0xb7ff2dc8>
    11f0:	5f435349 	0x5f435349
    11f4:	5f544e49 	0x5f544e49
    11f8:	52575053 	beql	s2,s7,15348 <Interrupt-0xb7feae38>
    11fc:	5f58545f 	0x5f58545f
    1200:	00544144 	0x544144
    1204:	43455053 	c0	0x1455053
    1208:	5253495f 	beql	s2,s3,13788 <Interrupt-0xb7fec9f8>
    120c:	4745525f 	c1	0x145525f
    1210:	00454d49 	0x454d49
    1214:	69625f6e 	0x69625f6e
    1218:	58520074 	0x58520074
    121c:	46445f34 	c1	0x445f34
    1220:	5f325249 	0x5f325249
    1224:	31474643 	andi	a3,t2,0x4643
    1228:	34585200 	ori	t8,v0,0x5200
    122c:	4946445f 	0x4946445f
    1230:	435f3252 	c0	0x15f3252
    1234:	00324746 	0x324746
    1238:	6b6e696c 	0x6b6e696c
    123c:	6174735f 	0x6174735f
    1240:	5f737574 	0x5f737574
    1244:	72617473 	0x72617473
    1248:	00646574 	teq	v1,a0,0x195
    124c:	6b6e696c 	0x6b6e696c
    1250:	6174735f 	0x6174735f
    1254:	5f737574 	0x5f737574
    1258:	5f727265 	0x5f727265
    125c:	74696177 	jalx	1a585dc <Interrupt-0xb65a7ba4>
    1260:	34585200 	ori	t8,v0,0x5200
    1264:	46434c5f 	c1	0x434c5f
    1268:	49520047 	0x49520047
    126c:	455f5343 	0x455f5343
    1270:	435f4358 	c0	0x15f4358
    1274:	6c005550 	0x6c005550
    1278:	5f6b6e69 	0x5f6b6e69
    127c:	74617473 	jalx	185d1cc <Interrupt-0xb67a2fb4>
    1280:	655f7375 	0x655f7375
    1284:	725f7272 	0x725f7272
    1288:	74657365 	jalx	195cd94 <Interrupt-0xb66a33ec>
    128c:	57505300 	bnel	k0,s0,15e90 <Interrupt-0xb7fea2f0>
    1290:	4154535f 	0x4154535f
    1294:	00535554 	0x535554
    1298:	65646e69 	0x65646e69
    129c:	47003178 	c1	0x1003178
    12a0:	5f414749 	0x5f414749
    12a4:	5f414d50 	0x5f414d50
    12a8:	54415453 	bnel	v0,at,163f8 <Interrupt-0xb7fe9d88>
    12ac:	44005355 	0x44005355
    12b0:	5f545349 	0x5f545349
    12b4:	53544e49 	beql	k0,s4,14bdc <Interrupt-0xb7feb5a4>
    12b8:	554f545f 	bnel	t2,t7,16438 <Interrupt-0xb7fe9d48>
    12bc:	00315354 	0x315354
    12c0:	54534944 	bnel	v0,s3,137d4 <Interrupt-0xb7fec9ac>
    12c4:	544e495f 	bnel	v0,t6,13844 <Interrupt-0xb7fec93c>
    12c8:	4f545f53 	c3	0x1545f53
    12cc:	32535455 	andi	s3,s2,0x5455
    12d0:	53495200 	beql	k0,t1,15ad4 <Interrupt-0xb7fea6ac>
    12d4:	4e495f43 	c3	0x495f43
    12d8:	52495f54 	beql	s2,t1,1902c <Interrupt-0xb7fe7154>
    12dc:	52003051 	beqzl	s0,d424 <Interrupt-0xb7ff2d5c>
    12e0:	5f435349 	0x5f435349
    12e4:	5f544e49 	0x5f544e49
    12e8:	31515249 	andi	s1,t2,0x5249
    12ec:	53495200 	beql	k0,t1,15af0 <Interrupt-0xb7fea690>
    12f0:	4e495f43 	c3	0x495f43
    12f4:	52495f54 	beql	s2,t1,19048 <Interrupt-0xb7fe7138>
    12f8:	52003251 	beqzl	s0,dc40 <Interrupt-0xb7ff2540>
    12fc:	5f435349 	0x5f435349
    1300:	5f544e49 	0x5f544e49
    1304:	33515249 	andi	s1,k0,0x5249
    1308:	52415500 	beql	s2,at,1670c <Interrupt-0xb7fe9a74>
    130c:	6f635f54 	0x6f635f54
    1310:	6c6f726e 	0x6c6f726e
    1314:	31585200 	andi	t8,t2,0x5200
    1318:	4946445f 	0x4946445f
    131c:	435f3252 	c0	0x15f3252
    1320:	00314746 	0x314746
    1324:	5f575053 	0x5f575053
    1328:	535f5852 	beql	k0,ra,17474 <Interrupt-0xb7fe8d0c>
    132c:	44454550 	0x44454550
    1330:	706d7400 	0x706d7400
    1334:	6165725f 	0x6165725f
    1338:	6e690064 	0x6e690064
    133c:	5a786564 	0x5a786564
    1340:	30444900 	andi	a0,v0,0x4900
    1344:	696e695f 	0x696e695f
    1348:	6f700074 	0x6f700074
    134c:	4d007472 	bc3f	1e518 <Interrupt-0xb7fe1c68>
    1350:	5f45444f 	0x5f45444f
    1354:	43003152 	c0	0x1003152
    1358:	45444f43 	0x45444f43
    135c:	414d5f53 	0x414d5f53
    1360:	00314b53 	0x314b53
    1364:	444f4343 	0x444f4343
    1368:	4d5f5345 	0x4d5f5345
    136c:	324b5341 	andi	t3,s2,0x5341
    1370:	53495200 	beql	k0,t1,15b74 <Interrupt-0xb7fea60c>
    1374:	4e495f43 	c3	0x495f43
    1378:	464d5f54 	c1	0x4d5f54
    137c:	5f505342 	0x5f505342
    1380:	55425852 	bnel	t2,v0,174cc <Interrupt-0xb7fe8cb4>
    1384:	52003046 	beqzl	s0,d4a0 <Interrupt-0xb7ff2ce0>
    1388:	5f435349 	0x5f435349
    138c:	5f544e49 	0x5f544e49
    1390:	5342464d 	beql	k0,v0,12cc8 <Interrupt-0xb7fed4b8>
    1394:	58525f50 	0x58525f50
    1398:	31465542 	andi	a2,t2,0x5542
    139c:	53495200 	beql	k0,t1,15ba0 <Interrupt-0xb7fea5e0>
    13a0:	4e495f43 	c3	0x495f43
    13a4:	464d5f54 	c1	0x4d5f54
    13a8:	5f505342 	0x5f505342
    13ac:	55425852 	bnel	t2,v0,174f8 <Interrupt-0xb7fe8c88>
    13b0:	52003246 	beqzl	s0,dccc <Interrupt-0xb7ff24b4>
    13b4:	5f435349 	0x5f435349
    13b8:	5f544e49 	0x5f544e49
    13bc:	5342464d 	beql	k0,v0,12cf4 <Interrupt-0xb7fed48c>
    13c0:	58525f50 	0x58525f50
    13c4:	33465542 	andi	a2,k0,0x5542
    13c8:	5f585200 	0x5f585200
    13cc:	4b4e494c 	c2	0x14e494c
    13d0:	5f575300 	0x5f575300
    13d4:	74696e69 	jalx	1a5b9a4 <Interrupt-0xb65a47dc>
    13d8:	67696700 	0x67696700
    13dc:	77707361 	jalx	dc1cd84 <Interrupt-0xaa3e33fc>
    13e0:	72695f72 	0x72695f72
    13e4:	79745f71 	0x79745f71
    13e8:	4d006570 	bc3f	1a9ac <Interrupt-0xb7fe57d4>
    13ec:	50534246 	beql	v0,s3,11d08 <Interrupt-0xb7fee478>
    13f0:	6e695f31 	0x6e695f31
    13f4:	74007469 	jalx	1d1a4 <Interrupt-0xb7fe2fdc>
    13f8:	5f747365 	0x5f747365
    13fc:	006e6973 	tltu	v1,t6,0x1a5
    1400:	54524155 	bnel	v0,s2,11958 <Interrupt-0xb7fee828>
    1404:	6365725f 	0x6365725f
    1408:	65766965 	0x65766965
    140c:	65747942 	0x65747942
    1410:	63726300 	0x63726300
    1414:	006b6f5f 	0x6b6f5f
    1418:	43534952 	c0	0x1534952
    141c:	544e495f 	bnel	v0,t6,1399c <Interrupt-0xb7fec7e4>
    1420:	5152535f 	beql	t2,s2,161a0 <Interrupt-0xb7fe9fe0>
    1424:	49520030 	0x49520030
    1428:	495f4353 	0x495f4353
    142c:	535f544e 	beql	k0,ra,16568 <Interrupt-0xb7fe9c18>
    1430:	00315152 	0x315152
    1434:	43534952 	c0	0x1534952
    1438:	544e495f 	bnel	v0,t6,139b8 <Interrupt-0xb7fec7c8>
    143c:	5152535f 	beql	t2,s2,161bc <Interrupt-0xb7fe9fc4>
    1440:	49520032 	0x49520032
    1444:	495f4353 	0x495f4353
    1448:	535f544e 	beql	k0,ra,16584 <Interrupt-0xb7fe9bfc>
    144c:	00335152 	0x335152
    1450:	47414c46 	c1	0x1414c46
    1454:	6e656c5f 	0x6e656c5f
    1458:	00746867 	0x746867
    145c:	656b616d 	0x656b616d
    1460:	7365645f 	0x7365645f
    1464:	4e490063 	c3	0x490063
    1468:	495f5254 	0x495f5254
    146c:	4d5f5152 	0x4d5f5152
    1470:	5f4b5341 	0x5f4b5341
    1474:	4e490048 	c3	0x490048
    1478:	495f5254 	0x495f5254
    147c:	4d5f5152 	0x4d5f5152
    1480:	5f4b5341 	0x5f4b5341
    1484:	4952004c 	0x4952004c
    1488:	495f4353 	0x495f4353
    148c:	575f544e 	bnel	k0,ra,165c8 <Interrupt-0xb7fe9bb8>
    1490:	49005444 	bc2f	165a4 <Interrupt-0xb7fe9bdc>
    1494:	315f5253 	andi	ra,t2,0x5253
    1498:	00313031 	tgeu	at,s1,0xc0
    149c:	4f504552 	c3	0x1504552
    14a0:	455f5452 	0x455f5452
    14a4:	5852004e 	0x5852004e
    14a8:	46445f31 	c1	0x445f31
    14ac:	5f315249 	0x5f315249
    14b0:	31474643 	andi	a3,t2,0x4643
    14b4:	31585200 	andi	t8,t2,0x5200
    14b8:	4946445f 	0x4946445f
    14bc:	435f3152 	c0	0x15f3152
    14c0:	00324746 	0x324746
    14c4:	5f335852 	0x5f335852
    14c8:	5f4f434e 	0x5f4f434e
    14cc:	48515246 	0x48515246
    14d0:	554f5200 	bnel	t2,t7,15cd4 <Interrupt-0xb7fea4ac>
    14d4:	474e4954 	c1	0x14e4954
    14d8:	4241545f 	c0	0x41545f
    14dc:	4900454c 	bc2f	12a10 <Interrupt-0xb7fed770>
    14e0:	485f5253 	0x485f5253
    14e4:	52534900 	beql	s2,s3,138e8 <Interrupt-0xb7fec898>
    14e8:	49004c5f 	bc2f	14668 <Interrupt-0xb7febb18>
    14ec:	495f3044 	0x495f3044
    14f0:	61685f54 	0x61685f54
    14f4:	656c646e 	0x656c646e
    14f8:	69670072 	0x69670072
    14fc:	77736167 	jalx	dcd859c <Interrupt-0xaa327be4>
    1500:	6570735f 	0x6570735f
    1504:	745f6465 	jalx	17d9194 <Interrupt-0xb6826fec>
    1508:	00657079 	0x657079
    150c:	6e69616d 	0x6e69616d
    1510:	746e6900 	jalx	1b9a400 <Interrupt-0xb6465d80>
    1514:	6e61685f 	0x6e61685f
    1518:	72656c64 	0x72656c64
    151c:	726f6600 	0x726f6600
    1520:	6f725f6d 	0x6f725f6d
    1524:	6e697475 	0x6e697475
    1528:	61745f67 	0x61745f67
    152c:	00656c62 	0x656c62
    1530:	43534952 	c0	0x1534952
    1534:	544e495f 	bnel	v0,t6,13ab4 <Interrupt-0xb7fec6cc>
    1538:	5750535f 	bnel	k0,s0,162b8 <Interrupt-0xb7fe9ec8>
    153c:	52003052 	beqzl	s0,d688 <Interrupt-0xb7ff2af8>
    1540:	5f435349 	0x5f435349
    1544:	5f544e49 	0x5f544e49
    1548:	52575053 	beql	s2,s7,15698 <Interrupt-0xb7feaae8>
    154c:	49520031 	0x49520031
    1550:	495f4353 	0x495f4353
    1554:	535f544e 	beql	k0,ra,16690 <Interrupt-0xb7fe9af0>
    1558:	32525750 	andi	s2,s2,0x5750
    155c:	53495200 	beql	k0,t1,15d60 <Interrupt-0xb7fea420>
    1560:	4e495f43 	c3	0x495f43
    1564:	50535f54 	beql	v0,s3,192b8 <Interrupt-0xb7fe6ec8>
    1568:	00335257 	0x335257
    156c:	43534952 	c0	0x1534952
    1570:	544e495f 	bnel	v0,t6,13af0 <Interrupt-0xb7fec690>
    1574:	5750535f 	bnel	k0,s0,162f4 <Interrupt-0xb7fe9e8c>
    1578:	52003452 	beqzl	s0,e6c4 <Interrupt-0xb7ff1abc>
    157c:	5f435349 	0x5f435349
    1580:	5f544e49 	0x5f544e49
    1584:	52575053 	beql	s2,s7,156d4 <Interrupt-0xb7feaaac>
    1588:	49520035 	0x49520035
    158c:	495f4353 	0x495f4353
    1590:	535f544e 	beql	k0,ra,166cc <Interrupt-0xb7fe9ab4>
    1594:	36525750 	ori	s2,s2,0x5750
    1598:	53495200 	beql	k0,t1,15d9c <Interrupt-0xb7fea3e4>
    159c:	4e495f43 	c3	0x495f43
    15a0:	50535f54 	beql	v0,s3,192f4 <Interrupt-0xb7fe6e8c>
    15a4:	00375257 	0x375257
    15a8:	5f315852 	0x5f315852
    15ac:	43494344 	c0	0x1494344
    15b0:	6f700032 	0x6f700032
    15b4:	695f7472 	0x695f7472
    15b8:	5f6e7500 	0x5f6e7500
    15bc:	0074756f 	0x74756f
    15c0:	43534952 	c0	0x1534952
    15c4:	544e495f 	bnel	v0,t6,13b44 <Interrupt-0xb7fec63c>
    15c8:	5750535f 	bnel	k0,s0,16348 <Interrupt-0xb7fe9e38>
    15cc:	58545f52 	0x58545f52
    15d0:	5345445f 	beql	k0,a1,12750 <Interrupt-0xb7feda30>
    15d4:	616d6400 	0x616d6400
    15d8:	006e655f 	0x6e655f
    15dc:	5f525245 	0x5f525245
    15e0:	41524150 	0x41524150
    15e4:	6863004d 	0x6863004d
    15e8:	5f6b6365 	0x5f6b6365
    15ec:	5f577053 	0x5f577053
    15f0:	6b6e696c 	0x6b6e696c
    15f4:	6174735f 	0x6174735f
    15f8:	5f737574 	0x5f737574
    15fc:	006e7572 	tlt	v1,t6,0x1d5
    1600:	5f315852 	0x5f315852
    1604:	43494344 	c0	0x1494344
    1608:	6c66004e 	0x6c66004e
    160c:	445f6761 	0x445f6761
    1610:	4c5f414d 	0x4c5f414d
    1614:	54524f50 	bnel	v0,s2,15358 <Interrupt-0xb7feae28>
    1618:	646c6f5f 	0x646c6f5f
    161c:	32585200 	andi	t8,s2,0x5200
    1620:	4946445f 	0x4946445f
    1624:	435f3252 	c0	0x15f3252
    1628:	00314746 	0x314746
    162c:	5f325852 	0x5f325852
    1630:	52494644 	beql	s2,t1,12f44 <Interrupt-0xb7fed23c>
    1634:	46435f32 	c1	0x435f32
    1638:	49003247 	bc2f	df58 <Interrupt-0xb7ff2228>
    163c:	5f48544e 	0x5f48544e
    1640:	30434642 	andi	v1,v0,0x4642
    1644:	30303430 	andi	s0,at,0x3430
    1648:	43495200 	c0	0x1495200
    164c:	58455f53 	0x58455f53
    1650:	44415f43 	0x44415f43
    1654:	52004c45 	beqzl	s0,1476c <Interrupt-0xb7feba14>
    1658:	4f5f3358 	c3	0x15f3358
    165c:	52004656 	beqzl	s0,12fb8 <Interrupt-0xb7fed1c8>
    1660:	5f534349 	0x5f534349
    1664:	5f435845 	0x5f435845
    1668:	53454441 	beql	k0,a1,12770 <Interrupt-0xb7feda10>
    166c:	616c4600 	0x616c4600
    1670:	6f435f67 	0x6f435f67
    1674:	74007272 	jalx	1c9c8 <Interrupt-0xb7fe37b8>
    1678:	70735f78 	0x70735f78
    167c:	00646565 	0x646565
    1680:	67616c66 	0x67616c66
    1684:	5f57535f 	0x5f57535f
    1688:	64005744 	0x64005744
    168c:	61726665 	0x61726665
    1690:	45525f67 	0x45525f67
    1694:	53445f47 	beql	k0,a0,193b4 <Interrupt-0xb7fe6dcc>
    1698:	464d0050 	c1	0x4d0050
    169c:	32505342 	andi	s0,s2,0x5342
    16a0:	696e695f 	0x696e695f
    16a4:	68730074 	0x68730074
    16a8:	2074726f 	addi	s4,v1,29295
    16ac:	69736e75 	0x69736e75
    16b0:	64656e67 	0x64656e67
    16b4:	746e6920 	jalx	1b9a480 <Interrupt-0xb6465d00>
    16b8:	53495200 	beql	k0,t1,15ebc <Interrupt-0xb7fea2c4>
    16bc:	4e495f43 	c3	0x495f43
    16c0:	53555f54 	beql	k0,s5,19414 <Interrupt-0xb7fe6d6c>
    16c4:	61700042 	0x61700042
    16c8:	74656b63 	jalx	195ad8c <Interrupt-0xb66a53f4>
    16cc:	616c665f 	0x616c665f
    16d0:	58520067 	0x58520067
    16d4:	43445f32 	c0	0x1445f32
    16d8:	00324349 	0x324349
    16dc:	53525753 	beql	k0,s2,1742c <Interrupt-0xb7fe8d54>
    16e0:	58520054 	0x58520054
    16e4:	41475f33 	0x41475f33
    16e8:	495f4e49 	0x495f4e49
    16ec:	43495200 	c0	0x1495200
    16f0:	58455f53 	0x58455f53
    16f4:	50425f43 	beql	v0,v0,19404 <Interrupt-0xb7fe6d7c>
    16f8:	67696700 	0x67696700
    16fc:	77707361 	jalx	dc1cd84 <Interrupt-0xaa3e33fc>
    1700:	58520072 	0x58520072
    1704:	43445f32 	c0	0x1445f32
    1708:	004e4349 	0x4e4349
    170c:	5f335852 	0x5f335852
    1710:	4e494147 	c3	0x494147
    1714:	5400515f 	bnezl	zero,15c94 <Interrupt-0xb7fea4ec>
    1718:	41445f58 	0x41445f58
    171c:	4c5f4154 	0x4c5f4154
    1720:	54474e45 	bnel	v0,a3,15038 <Interrupt-0xb7feb148>
    1724:	65730048 	0x65730048
    1728:	6f775f74 	0x6f775f74
    172c:	655f6b72 	0x655f6b72
    1730:	6c62616e 	0x6c62616e
    1734:	73006465 	0x73006465
    1738:	315f6970 	andi	ra,t2,0x6970
    173c:	5f383832 	0x5f383832
    1740:	52006472 	beqzl	s0,1a90c <Interrupt-0xb7fe5874>
    1744:	4e5f3458 	c3	0x5f3458
    1748:	465f4f43 	c1	0x5f4f43
    174c:	00485152 	0x485152
    1750:	445f5753 	0x445f5753
    1754:	545f5441 	bnel	v0,ra,1685c <Interrupt-0xb7fe9924>
    1758:	5354554f 	beql	k0,s4,16c98 <Interrupt-0xb7fe94e8>
    175c:	696e6900 	0x696e6900
    1760:	50475f74 	beql	v0,a3,19534 <Interrupt-0xb7fe6c4c>
    1764:	445f4f49 	0x445f4f49
    1768:	69003252 	0x69003252
    176c:	5f74696e 	0x5f74696e
    1770:	4f495047 	c3	0x1495047
    1774:	3352445f 	andi	s2,k0,0x445f
    1778:	4f434300 	c3	0x1434300
    177c:	4f5f4544 	c3	0x15f4544
    1780:	49005455 	bc2f	168d8 <Interrupt-0xb7fe98a8>
    1784:	5f48544e 	0x5f48544e
    1788:	30434642 	andi	v1,v0,0x4642
    178c:	30383330 	andi	t8,at,0x3330
    1790:	4e4f4300 	c3	0x4f4300
    1794:	4c4f5254 	0x4c4f5254
    1798:	4e4f435f 	c3	0x4f435f
    179c:	5443454e 	bnel	v0,v1,12cd8 <Interrupt-0xb7fed4a8>
    17a0:	004e4f49 	0x4e4f49
    17a4:	7478656e 	jalx	1e195b8 <Interrupt-0xb61e6bc8>
    17a8:	57505300 	bnel	k0,s0,163ac <Interrupt-0xb7fe9dd4>
    17ac:	444f4d5f 	0x444f4d5f
    17b0:	49520045 	0x49520045
    17b4:	495f4353 	0x495f4353
    17b8:	535f544e 	beql	k0,ra,168f4 <Interrupt-0xb7fe988c>
    17bc:	494d4650 	0x494d4650
    17c0:	58525f43 	0x58525f43
    17c4:	5345445f 	beql	k0,a1,12944 <Interrupt-0xb7fed83c>
    17c8:	3048435f 	andi	t0,v0,0x435f
    17cc:	53495200 	beql	k0,t1,15fd0 <Interrupt-0xb7fea1b0>
    17d0:	4e495f43 	c3	0x495f43
    17d4:	50535f54 	beql	v0,s3,19528 <Interrupt-0xb7fe6c58>
    17d8:	43494d46 	c0	0x1494d46
    17dc:	5f58525f 	0x5f58525f
    17e0:	5f534544 	0x5f534544
    17e4:	00314843 	0x314843
    17e8:	5f335852 	0x5f335852
    17ec:	43494344 	c0	0x1494344
    17f0:	69670032 	0x69670032
    17f4:	70736167 	0x70736167
    17f8:	695f7277 	0x695f7277
    17fc:	615f7172 	0x615f7172
    1800:	67006c6c 	0x67006c6c
    1804:	73616769 	0x73616769
    1808:	70735f77 	0x70735f77
    180c:	5f646565 	0x5f646565
    1810:	006e696d 	0x6e696d
    1814:	57505347 	bnel	k0,s0,16534 <Interrupt-0xb7fe9c4c>
    1818:	4550535f 	0x4550535f
    181c:	535f4445 	beql	k0,ra,12934 <Interrupt-0xb7fed84c>
    1820:	454c4143 	0x454c4143
    1824:	6d697400 	0x6d697400
    1828:	685f7265 	0x685f7265
    182c:	00726c6e 	0x726c6e
    1830:	54524155 	bnel	v0,s2,11d88 <Interrupt-0xb7fee3f8>
    1834:	6f635f30 	0x6f635f30
    1838:	5300666e 	beqzl	t8,1b1f4 <Interrupt-0xb7fe4f8c>
    183c:	535f5750 	beql	k0,ra,17580 <Interrupt-0xb7fe8c00>
    1840:	44454550 	0x44454550
    1844:	4e494d5f 	c3	0x494d5f
    1848:	67696700 	0x67696700
    184c:	77707361 	jalx	dc1cd84 <Interrupt-0xaa3e33fc>
    1850:	6f725f72 	0x6f725f72
    1854:	5f657475 	0x5f657475
    1858:	6b73616d 	0x6b73616d
    185c:	696e4900 	0x696e4900
    1860:	69775374 	0x69775374
    1864:	69720063 	0x69720063
    1868:	725f6373 	0x725f6373
    186c:	69746e75 	0x69746e75
    1870:	735c656d 	0x735c656d
    1874:	2e636977 	sltiu	v1,s3,26999
    1878:	52450063 	beql	s2,a1,1a08 <Interrupt-0xb7ffe778>
    187c:	454d5f4c 	0x454d5f4c
    1880:	59524f4d 	0x59524f4d
    1884:	4c4c415f 	0x4c4c415f
    1888:	4500434f 	bc1f	125c8 <Interrupt-0xb7fedbb8>
    188c:	555f4c52 	bnel	t2,ra,149d8 <Interrupt-0xb7feb7a8>
    1890:	4954494e 	0x4954494e
    1894:	5a494c41 	0x5a494c41
    1898:	415f4445 	0x415f4445
    189c:	73004752 	0x73004752
    18a0:	5f636977 	0x5f636977
    18a4:	65636572 	0x65636572
    18a8:	72657669 	0x72657669
    18ac:	6961775f 	0x6961775f
    18b0:	52450074 	beql	s2,a1,1a84 <Interrupt-0xb7ffe6fc>
    18b4:	59535f4c 	0x59535f4c
    18b8:	4d455453 	0x4d455453
    18bc:	5252455f 	beql	s2,s2,12e3c <Interrupt-0xb7fed344>
    18c0:	7400524f 	jalx	1493c <Interrupt-0xb7feb844>
    18c4:	73654478 	0x73654478
    18c8:	00317263 	0x317263
    18cc:	5f4c5245 	0x5f4c5245
    18d0:	474f5250 	c1	0x14f5250
    18d4:	5f4d4152 	0x5f4d4152
    18d8:	4f525245 	c3	0x1525245
    18dc:	6c430052 	0x6c430052
    18e0:	53726165 	beql	k1,s2,19e78 <Interrupt-0xb7fe6308>
    18e4:	00636977 	0x636977
    18e8:	725f7369 	0x725f7369
    18ec:	74006e75 	jalx	1b9d4 <Interrupt-0xb7fe47ac>
    18f0:	73654478 	0x73654478
    18f4:	00307263 	0x307263
    18f8:	5f4c5245 	0x5f4c5245
    18fc:	455f4f4e 	0x455f4f4e
    1900:	524f5252 	beql	s2,t7,1624c <Interrupt-0xb7fe9f34>
    1904:	69777300 	0x69777300
    1908:	65725f63 	0x65725f63
    190c:	76696563 	jalx	9a5958c <Interrupt-0xae5a6bf4>
    1910:	725f7265 	0x725f7265
    1914:	45006e75 	bc1f	1d2ec <Interrupt-0xb7fe2e94>
    1918:	455f4c52 	0x455f4c52
    191c:	524f5252 	beql	s2,t7,16268 <Interrupt-0xb7fe9f18>
    1920:	44787200 	0x44787200
    1924:	72637365 	0x72637365
    1928:	69777300 	0x69777300
    192c:	65725f63 	0x65725f63
    1930:	76696563 	jalx	9a5958c <Interrupt-0xae5a6bf4>
    1934:	61705f65 	0x61705f65
    1938:	74656b63 	jalx	195ad8c <Interrupt-0xb66a53f4>
    193c:	43734900 	c0	0x1734900
    1940:	656e6e6f 	0x656e6e6f
    1944:	64657463 	0x64657463
    1948:	73656400 	0x73656400
    194c:	77007263 	jalx	c01c98c <Interrupt-0xabfe37f4>
    1950:	657a6973 	0x657a6973
    1954:	74655300 	jalx	1954c00 <Interrupt-0xb66ab580>
    1958:	63697753 	0x63697753
    195c:	65657053 	0x65657053
    1960:	77730064 	jalx	dcc0190 <Interrupt-0xaa33fff0>
    1964:	735f6369 	0x735f6369
    1968:	5f646e65 	0x5f646e65
    196c:	6b636170 	0x6b636170
    1970:	45007465 	bc1f	1eb08 <Interrupt-0xb7fe1678>
    1974:	4f5f4c52 	c3	0x15f4c52
    1978:	4c524556 	0x4c524556
    197c:	455f5941 	0x455f5941
    1980:	524f5252 	beql	s2,t7,162cc <Interrupt-0xb7fe9eb4>
    1984:	74656700 	jalx	1959c00 <Interrupt-0xb66a6580>
    1988:	7570635f 	jalx	5c18d7c <Interrupt-0xb23e7404>
    198c:	6f6c635f 	0x6f6c635f
    1990:	67006b63 	0x67006b63
    1994:	645f7465 	0x645f7465
    1998:	635f7073 	0x635f7073
    199c:	6b636f6c 	0x6b636f6c
    19a0:	73697200 	0x73697200
    19a4:	75725f63 	jalx	5c97d8c <Interrupt-0xb23683f4>
    19a8:	6d69746e 	0x6d69746e
    19ac:	79735c65 	0x79735c65
    19b0:	6d657473 	0x6d657473
    19b4:	7300632e 	0x7300632e
    19b8:	6b5f7379 	0x6b5f7379
    19bc:	656e7265 	0x656e7265
    19c0:	61765f6c 	0x61765f6c
    19c4:	5f6f745f 	0x5f6f745f
    19c8:	73006170 	0x73006170
    19cc:	6b5f7379 	0x6b5f7379
    19d0:	656e7265 	0x656e7265
    19d4:	61705f6c 	0x61705f6c
    19d8:	5f6f745f 	0x5f6f745f
    19dc:	72006176 	0x72006176
    19e0:	5f637369 	0x5f637369
    19e4:	746e7572 	jalx	1b9d5c8 <Interrupt-0xb6462bb8>
    19e8:	5c656d69 	0x5c656d69
    19ec:	63736972 	0x63736972
    19f0:	746e695f 	jalx	1b9a57c <Interrupt-0xb6465c04>
    19f4:	75727265 	jalx	5c9c994 <Interrupt-0xb23637ec>
    19f8:	632e7470 	0x632e7470
    19fc:	53495200 	beql	k0,t1,16200 <Interrupt-0xb7fe9f80>
    1a00:	4e495f43 	c3	0x495f43
    1a04:	52524554 	beql	s2,s2,12f58 <Interrupt-0xb7fed228>
    1a08:	00545055 	0x545055
    1a0c:	706d6574 	0x706d6574
    1a10:	646e6100 	0x646e6100
    1a14:	5f746f6e 	0x5f746f6e
    1a18:	4b53414d 	c2	0x153414d
    1a1c:	69720052 	0x69720052
    1a20:	655f6373 	0x655f6373
    1a24:	6c62616e 	0x6c62616e
    1a28:	6e695f65 	0x6e695f65
    1a2c:	72726574 	0x72726574
    1a30:	00747075 	0x747075
    1a34:	63736972 	0x63736972
    1a38:	6765725f 	0x6765725f
    1a3c:	65747369 	0x65747369
    1a40:	6e695f72 	0x6e695f72
    1a44:	72726574 	0x72726574
    1a48:	00747075 	0x747075
    1a4c:	5f746567 	0x5f746567
    1a50:	73756163 	0x73756163
    1a54:	69725f65 	0x69725f65
    1a58:	72006373 	0x72006373
    1a5c:	5f637369 	0x5f637369
    1a60:	726c6e68 	0x726c6e68
    1a64:	6e75665f 	0x6e75665f
    1a68:	61630063 	0x61630063
    1a6c:	00657375 	0x657375
    1a70:	63736972 	0x63736972
    1a74:	616e655f 	0x616e655f
    1a78:	5f656c62 	0x5f656c62
    1a7c:	65746e69 	0x65746e69
    1a80:	70757272 	0x70757272
    1a84:	49007374 	bc2f	1e858 <Interrupt-0xb7fe1928>
    1a88:	5245544e 	beql	s2,a1,16bc4 <Interrupt-0xb7fe95bc>
    1a8c:	54505552 	bnel	v0,s0,16fd8 <Interrupt-0xb7fe91a8>
    1a90:	4345565f 	c0	0x145565f
    1a94:	53524f54 	beql	k0,s2,157e8 <Interrupt-0xb7fea998>
    1a98:	73697200 	0x73697200
    1a9c:	65735f63 	0x65735f63
    1aa0:	6e695f74 	0x6e695f74
    1aa4:	72726574 	0x72726574
    1aa8:	73747075 	0x73747075
    1aac:	6365765f 	0x6365765f
    1ab0:	00726f74 	teq	v1,s2,0x1bd
    1ab4:	4d5f726f 	0x4d5f726f
    1ab8:	524b5341 	beql	s2,t3,167c0 <Interrupt-0xb7fe99c0>
    1abc:	73697200 	0x73697200
    1ac0:	69645f63 	0x69645f63
    1ac4:	6c626173 	0x6c626173
    1ac8:	6e695f65 	0x6e695f65
    1acc:	72726574 	0x72726574
    1ad0:	73747075 	0x73747075
    1ad4:	73697200 	0x73697200
    1ad8:	69645f63 	0x69645f63
    1adc:	6c626173 	0x6c626173
    1ae0:	6e695f65 	0x6e695f65
    1ae4:	72726574 	0x72726574
    1ae8:	00747075 	0x747075
    1aec:	63736972 	0x63736972
    1af0:	6d6f635f 	0x6d6f635f
    1af4:	5f6e6f6d 	0x5f6e6f6d
    1af8:	646e6168 	0x646e6168
    1afc:	0072656c 	0x72656c
    1b00:	5f307063 	0x5f307063
    1b04:	74617473 	jalx	185d1cc <Interrupt-0xb67a2fb4>
    1b08:	52007375 	beqzl	s0,1e8e0 <Interrupt-0xb7fe18a0>
    1b0c:	5f435349 	0x5f435349
    1b10:	45544e49 	0x45544e49
    1b14:	50555252 	beql	v0,s5,16460 <Interrupt-0xb7fe9d20>
    1b18:	59545f54 	0x59545f54
    1b1c:	69004550 	0x69004550
    1b20:	6974696e 	0x6974696e
    1b24:	7a696c61 	0x7a696c61
    1b28:	69725f65 	0x69725f65
    1b2c:	685f6373 	0x685f6373
    1b30:	00726c6e 	0x726c6e
    1b34:	657a6953 	0x657a6953
    1b38:	726f635f 	0x726f635f
    1b3c:	64644100 	0x64644100
    1b40:	6e690072 	0x6e690072
    1b44:	6e655f74 	0x6e655f74
    1b48:	414d4400 	0x414d4400
    1b4c:	616c435f 	0x616c435f
    1b50:	632e7373 	0x632e7373
    1b54:	73736100 	0x73736100
    1b58:	5f6e6769 	0x5f6e6769
    1b5c:	5f616d64 	0x5f616d64
    1b60:	645f7872 	0x645f7872
    1b64:	00637365 	0x637365
    1b68:	5f414d44 	0x5f414d44
    1b6c:	445f5852 	0x445f5852
    1b70:	00415441 	0x415441
    1b74:	74696177 	jalx	1a585dc <Interrupt-0xb65a7ba4>
    1b78:	746f6e5f 	jalx	1bdb97c <Interrupt-0xb6424804>
    1b7c:	6e75725f 	0x6e75725f
    1b80:	61747300 	0x61747300
    1b84:	775f7472 	jalx	d7dd1c8 <Interrupt-0xaa822fb8>
    1b88:	7361006e 	0x7361006e
    1b8c:	6e676973 	0x6e676973
    1b90:	616d645f 	0x616d645f
    1b94:	5f78745f 	0x5f78745f
    1b98:	61746164 	0x61746164
    1b9c:	41484300 	0x41484300
    1ba0:	4c454e4e 	0x4c454e4e
    1ba4:	74656700 	jalx	1959c00 <Interrupt-0xb66a6580>
    1ba8:	7761725f 	jalx	d85c97c <Interrupt-0xaa7a3804>
    1bac:	6464615f 	0x6464615f
    1bb0:	74730072 	jalx	1cc01c8 <Interrupt-0xb633ffb8>
    1bb4:	00747261 	0x747261
    1bb8:	69737361 	0x69737361
    1bbc:	645f6e67 	0x645f6e67
    1bc0:	745f616d 	jalx	17d85b4 <Interrupt-0xb6827bcc>
    1bc4:	65645f78 	0x65645f78
    1bc8:	53006373 	beqzl	t8,1a998 <Interrupt-0xb7fe57e8>
    1bcc:	00657a69 	0x657a69
    1bd0:	5f414d44 	0x5f414d44
    1bd4:	445f5854 	0x445f5854
    1bd8:	00435345 	0x435345
    1bdc:	5f414d44 	0x5f414d44
    1be0:	445f5852 	0x445f5852
    1be4:	00435345 	0x435345
    1be8:	666e6f63 	0x666e6f63
    1bec:	72756769 	0x72756769
    1bf0:	6e775f65 	0x6e775f65
    1bf4:	73736100 	0x73736100
    1bf8:	5f6e6769 	0x5f6e6769
    1bfc:	5f616d64 	0x5f616d64
    1c00:	645f7872 	0x645f7872
    1c04:	00617461 	0x617461
    1c08:	5f414d44 	0x5f414d44
    1c0c:	445f5854 	0x445f5854
    1c10:	00415441 	0x415441
    1c14:	69645f5f 	0x69645f5f
    1c18:	33696476 	andi	t1,k1,0x6476
    1c1c:	725f5f00 	0x725f5f00
    1c20:	5f5f0030 	0x5f5f0030
    1c24:	5f003172 	bgtzl	t8,e1f0 <Interrupt-0xb7ff1f90>
    1c28:	6964755f 	0x6964755f
    1c2c:	646f6d76 	0x646f6d76
    1c30:	00346964 	0x346964
    1c34:	20554e47 	addi	s5,v0,20039
    1c38:	2e342043 	sltiu	s4,s1,8259
    1c3c:	20312e38 	addi	s1,at,11832
    1c40:	3020472d 	andi	zero,at,0x472d
    1c44:	20472d20 	addi	a3,v0,11552
    1c48:	472d2030 	c1	0x12d2030
    1c4c:	2d203020 	sltiu	zero,t1,12320
    1c50:	20302047 	addi	s0,at,8263
    1c54:	70696d2d 	0x70696d2d
    1c58:	20323373 	addi	s2,at,13171
    1c5c:	70696d2d 	0x70696d2d
    1c60:	20323373 	addi	s2,at,13171
    1c64:	6f6c6d2d 	0x6f6c6d2d
    1c68:	632d676e 	0x632d676e
    1c6c:	736c6c61 	0x736c6c61
    1c70:	6e6d2d20 	0x6e6d2d20
    1c74:	68632d6f 	0x68632d6f
    1c78:	2d6b6365 	sltiu	t3,t3,25445
    1c7c:	6f72657a 	0x6f72657a
    1c80:	7669642d 	jalx	9a590b4 <Interrupt-0xae5a70cc>
    1c84:	6f697369 	0x6f697369
    1c88:	6d2d206e 	0x6d2d206e
    1c8c:	64726168 	0x64726168
    1c90:	6f6c662d 	0x6f6c662d
    1c94:	2d207461 	sltiu	zero,t1,29793
    1c98:	4f2d2067 	c3	0x12d2067
    1c9c:	4f2d2073 	c3	0x12d2073
    1ca0:	4f2d2032 	c3	0x12d2032
    1ca4:	662d2073 	0x662d2073
    1ca8:	65786966 	0x65786966
    1cac:	306b2d64 	andi	t3,v1,0x2d64
    1cb0:	66662d20 	0x66662d20
    1cb4:	64657869 	0x64657869
    1cb8:	20316b2d 	addi	s1,at,27437
    1cbc:	6966662d 	0x6966662d
    1cc0:	2d646578 	sltiu	a0,t3,25976
    1cc4:	2d20306b 	sltiu	zero,t1,12395
    1cc8:	78696666 	0x78696666
    1ccc:	6b2d6465 	0x6b2d6465
    1cd0:	662d2031 	0x662d2031
    1cd4:	642d6f6e 	0x642d6f6e
    1cd8:	79616c65 	0x79616c65
    1cdc:	622d6465 	0x622d6465
    1ce0:	636e6172 	0x636e6172
    1ce4:	662d2068 	0x662d2068
    1ce8:	6c697562 	0x6c697562
    1cec:	676e6964 	0x676e6964
    1cf0:	62696c2d 	0x62696c2d
    1cf4:	20636367 	addi	v1,v1,25447
    1cf8:	6f6e662d 	0x6f6e662d
    1cfc:	6174732d 	0x6174732d
    1d00:	702d6b63 	0x702d6b63
    1d04:	65746f72 	0x65746f72
    1d08:	726f7463 	0x726f7463
    1d0c:	65662d20 	0x65662d20
    1d10:	70656378 	0x70656378
    1d14:	6e6f6974 	0x6e6f6974
    1d18:	662d2073 	0x662d2073
    1d1c:	2d6e6f6e 	sltiu	t6,t3,28526
    1d20:	6c6c6163 	0x6c6c6163
    1d24:	6378652d 	0x6378652d
    1d28:	69747065 	0x69747065
    1d2c:	20736e6f 	addi	s3,v1,28271
    1d30:	6976662d 	0x6976662d
    1d34:	69626973 	0x69626973
    1d38:	7974696c 	0x7974696c
    1d3c:	6469683d 	0x6469683d
    1d40:	006e6564 	0x6e6564
    1d44:	74495355 	jalx	1254d54 <Interrupt-0xb6dab42c>
    1d48:	00657079 	0x657079
    1d4c:	6e755744 	0x6e755744
    1d50:	006e6f69 	0x6e6f69
    1d54:	706d6f63 	0x706d6f63
    1d58:	2078656c 	addi	t8,v1,25964
    1d5c:	616f6c66 	0x616f6c66
    1d60:	5f5f0074 	0x5f5f0074
    1d64:	5f003071 	bgtzl	t8,df2c <Interrupt-0xb7ff2254>
    1d68:	0031715f 	0x31715f
    1d6c:	74494455 	jalx	1251154 <Interrupt-0xb6daf02c>
    1d70:	00657079 	0x657079
    1d74:	6d6f682f 	0x6d6f682f
    1d78:	746e2f65 	jalx	1b8bd94 <Interrupt-0xb64743ec>
    1d7c:	7562336f 	jalx	588cdbc <Interrupt-0xb27733c4>
    1d80:	62646c69 	0x62646c69
    1d84:	6a2f746f 	0x6a2f746f
    1d88:	696b6e65 	0x696b6e65
    1d8c:	772f736e 	jalx	cbdcdb8 <Interrupt-0xab4233c8>
    1d90:	736b726f 	0x736b726f
    1d94:	65636170 	0x65636170
    1d98:	4955422f 	0x4955422f
    1d9c:	4d5f444c 	0x4d5f444c
    1da0:	5f535049 	0x5f535049
    1da4:	474e494d 	c1	0x14e494d
    1da8:	2f323357 	sltiu	s2,t9,13143
    1dac:	6c6f6f74 	0x6c6f6f74
    1db0:	31383473 	andi	t8,t1,0x3473
    1db4:	7263732f 	0x7263732f
    1db8:	73747069 	0x73747069
    1dbc:	5f6f745f 	0x5f6f745f
    1dc0:	7370696d 	0x7370696d
    1dc4:	6f6f742d 	0x6f6f742d
    1dc8:	6f2f736c 	0x6f2f736c
    1dcc:	672d6a62 	0x672d6a62
    1dd0:	6d2f6363 	0x6d2f6363
    1dd4:	65737069 	0x65737069
    1dd8:	6c652d6c 	0x6c652d6c
    1ddc:	2f323366 	sltiu	s2,t9,13158
    1de0:	6762696c 	0x6762696c
    1de4:	5f006363 	bgtzl	t8,1ab74 <Interrupt-0xb7fe560c>
    1de8:	0030645f 	0x30645f
    1dec:	31645f5f 	andi	a0,t3,0x5f5f
    1df0:	2f2e2e00 	sltiu	t6,t9,11776
    1df4:	2e2f2e2e 	sltiu	t7,s1,11822
    1df8:	2e2e2f2e 	sltiu	t6,s1,12078
    1dfc:	6363672f 	0x6363672f
    1e00:	382e342d 	xori	t6,at,0x342d
    1e04:	6c2f312e 	0x6c2f312e
    1e08:	63676269 	0x63676269
    1e0c:	696c2f63 	0x696c2f63
    1e10:	63636762 	0x63636762
    1e14:	00632e32 	tlt	v1,v1,0xb8
    1e18:	706d6f63 	0x706d6f63
    1e1c:	2078656c 	addi	t8,v1,25964
    1e20:	62756f64 	0x62756f64
    1e24:	4400656c 	0x4400656c
    1e28:	72747357 	0x72747357
    1e2c:	00746375 	0x746375

Disassembly of section .debug_frame:

00000000 <.debug_frame>:
   0:	0000000c 	syscall
   4:	ffffffff 	sdc3	$31,-1(ra)
   8:	7c010001 	0x7c010001
   c:	001d0d1f 	0x1d0d1f
  10:	00000020 	add	zero,zero,zero
  14:	00000000 	nop
  18:	b8001500 	swr	zero,5376(zero)
  1c:	000010e4 	0x10e4
  20:	44100e44 	0x44100e44
  24:	0d44019e 	jal	5100678 <Interrupt-0xb2effb08>
  28:	10c4031e 	beq	a2,a0,ca4 <Interrupt-0xb7fff4dc>
  2c:	de4c1d0d 	ldc3	$12,7437(s2)
  30:	0000000e 	0xe
  34:	0000001c 	0x1c
  38:	00000000 	nop
  3c:	b80025e4 	swr	zero,9700(zero)
  40:	00000028 	0x28
  44:	44080e44 	0x44080e44
  48:	0d44019e 	jal	5100678 <Interrupt-0xb2effb08>
  4c:	1d0d481e 	0x1d0d481e
  50:	000ede4c 	syscall	0x3b79
  54:	0000001c 	0x1c
  58:	00000000 	nop
  5c:	b800260c 	swr	zero,9740(zero)
  60:	00000058 	0x58
  64:	44080e44 	0x44080e44
  68:	0d44019e 	jal	5100678 <Interrupt-0xb2effb08>
  6c:	1d0d781e 	0x1d0d781e
  70:	000ede4c 	syscall	0x3b79
  74:	00000020 	add	zero,zero,zero
  78:	00000000 	nop
  7c:	b8002664 	swr	zero,9828(zero)
  80:	00000054 	0x54
  84:	48180e44 	0x48180e44
  88:	029e019f 	0x29e019f
  8c:	681e0d44 	0x681e0d44
  90:	de541d0d 	ldc3	$20,7437(s2)
  94:	00000edf 	0xedf
  98:	00000020 	add	zero,zero,zero
  9c:	00000000 	nop
  a0:	b80026b8 	swr	zero,9912(zero)
  a4:	00000064 	0x64
  a8:	44080e44 	0x44080e44
  ac:	0d44019e 	jal	5100678 <Interrupt-0xb2effb08>
  b0:	0d44021e 	jal	5100878 <Interrupt-0xb2eff908>
  b4:	0ede4c1d 	jal	b793074 <Interrupt-0xac86d10c>
  b8:	00000000 	nop
  bc:	00000020 	add	zero,zero,zero
  c0:	00000000 	nop
  c4:	b800271c 	swr	zero,10012(zero)
  c8:	00000060 	0x60
  cc:	44080e44 	0x44080e44
  d0:	0d44019e 	jal	5100678 <Interrupt-0xb2effb08>
  d4:	0d40021e 	jal	5000878 <Interrupt-0xb2fff908>
  d8:	0ede4c1d 	jal	b793074 <Interrupt-0xac86d10c>
  dc:	00000000 	nop
  e0:	00000020 	add	zero,zero,zero
  e4:	00000000 	nop
  e8:	b800277c 	swr	zero,10108(zero)
  ec:	000000b8 	0xb8
  f0:	44100e44 	0x44100e44
  f4:	0d44019e 	jal	5100678 <Interrupt-0xb2effb08>
  f8:	0d98021e 	jal	6600878 <Interrupt-0xb19ff908>
  fc:	0ede4c1d 	jal	b793074 <Interrupt-0xac86d10c>
 100:	00000000 	nop
 104:	00000020 	add	zero,zero,zero
 108:	00000000 	nop
 10c:	b8002834 	swr	zero,10292(zero)
 110:	000000b4 	teq	zero,zero,0x2
 114:	48200e44 	0x48200e44
 118:	029e019f 	0x29e019f
 11c:	021e0d44 	0x21e0d44
 120:	541d0d88 	bnel	zero,sp,3744 <Interrupt-0xb7ffca3c>
 124:	000edfde 	0xedfde
 128:	00000020 	add	zero,zero,zero
 12c:	00000000 	nop
 130:	b80028e8 	swr	zero,10472(zero)
 134:	000004a4 	0x4a4
 138:	44100e44 	0x44100e44
 13c:	0d44019e 	jal	5100678 <Interrupt-0xb2effb08>
 140:	0484031e 	0x484031e
 144:	de4c1d0d 	ldc3	$12,7437(s2)
 148:	0000000e 	0xe
 14c:	00000020 	add	zero,zero,zero
 150:	00000000 	nop
 154:	b8002d8c 	swr	zero,11660(zero)
 158:	000000d8 	0xd8
 15c:	44080e44 	0x44080e44
 160:	0d44019e 	jal	5100678 <Interrupt-0xb2effb08>
 164:	0db8021e 	jal	6e00878 <Interrupt-0xb11ff908>
 168:	0ede4c1d 	jal	b793074 <Interrupt-0xac86d10c>
 16c:	00000000 	nop
 170:	00000020 	add	zero,zero,zero
 174:	00000000 	nop
 178:	b8002e64 	swr	zero,11876(zero)
 17c:	0000007c 	0x7c
 180:	44080e44 	0x44080e44
 184:	0d44019e 	jal	5100678 <Interrupt-0xb2effb08>
 188:	0d5c021e 	jal	5700878 <Interrupt-0xb28ff908>
 18c:	0ede4c1d 	jal	b793074 <Interrupt-0xac86d10c>
 190:	00000000 	nop
 194:	00000020 	add	zero,zero,zero
 198:	00000000 	nop
 19c:	b8002ee0 	swr	zero,12000(zero)
 1a0:	00000078 	0x78
 1a4:	44080e44 	0x44080e44
 1a8:	0d44019e 	jal	5100678 <Interrupt-0xb2effb08>
 1ac:	0d58021e 	jal	5600878 <Interrupt-0xb29ff908>
 1b0:	0ede4c1d 	jal	b793074 <Interrupt-0xac86d10c>
 1b4:	00000000 	nop
 1b8:	00000020 	add	zero,zero,zero
 1bc:	00000000 	nop
 1c0:	b8002f58 	swr	zero,12120(zero)
 1c4:	000000ac 	0xac
 1c8:	44080e44 	0x44080e44
 1cc:	0d44019e 	jal	5100678 <Interrupt-0xb2effb08>
 1d0:	0d8c021e 	jal	6300878 <Interrupt-0xb1cff908>
 1d4:	0ede4c1d 	jal	b793074 <Interrupt-0xac86d10c>
 1d8:	00000000 	nop
 1dc:	00000020 	add	zero,zero,zero
 1e0:	00000000 	nop
 1e4:	b8003004 	swr	zero,12292(zero)
 1e8:	00000148 	0x148
 1ec:	44100e44 	0x44100e44
 1f0:	0d44019e 	jal	5100678 <Interrupt-0xb2effb08>
 1f4:	0128031e 	0x128031e
 1f8:	de4c1d0d 	ldc3	$12,7437(s2)
 1fc:	0000000e 	0xe
 200:	00000024 	and	zero,zero,zero
 204:	00000000 	nop
 208:	b800314c 	swr	zero,12620(zero)
 20c:	000001a0 	0x1a0
 210:	48200e44 	0x48200e44
 214:	029e019f 	0x29e019f
 218:	031e0d44 	0x31e0d44
 21c:	1d0d0174 	0x1d0d0174
 220:	0edfde54 	jal	b7f7950 <Interrupt-0xac808830>
 224:	00000000 	nop
 228:	00000020 	add	zero,zero,zero
 22c:	00000000 	nop
 230:	b80032ec 	swr	zero,13036(zero)
 234:	000000dc 	0xdc
 238:	48200e44 	0x48200e44
 23c:	029e019f 	0x29e019f
 240:	021e0d44 	0x21e0d44
 244:	541d0db0 	bnel	zero,sp,3908 <Interrupt-0xb7ffc878>
 248:	000edfde 	0xedfde
 24c:	0000001c 	0x1c
 250:	00000000 	nop
 254:	b80033c8 	swr	zero,13256(zero)
 258:	00000054 	0x54
 25c:	44080e44 	0x44080e44
 260:	0d44019e 	jal	5100678 <Interrupt-0xb2effb08>
 264:	1d0d741e 	0x1d0d741e
 268:	000ede4c 	syscall	0x3b79
 26c:	00000020 	add	zero,zero,zero
 270:	00000000 	nop
 274:	b800341c 	swr	zero,13340(zero)
 278:	00000074 	teq	zero,zero,0x1
 27c:	48200e44 	0x48200e44
 280:	029e019f 	0x29e019f
 284:	021e0d44 	0x21e0d44
 288:	541d0d48 	bnel	zero,sp,37ac <Interrupt-0xb7ffc9d4>
 28c:	000edfde 	0xedfde
 290:	00000024 	and	zero,zero,zero
 294:	00000000 	nop
 298:	b8003490 	swr	zero,13456(zero)
 29c:	0000018c 	syscall	0x6
 2a0:	48200e44 	0x48200e44
 2a4:	029e019f 	0x29e019f
 2a8:	031e0d44 	0x31e0d44
 2ac:	1d0d0160 	0x1d0d0160
 2b0:	0edfde54 	jal	b7f7950 <Interrupt-0xac808830>
 2b4:	00000000 	nop
 2b8:	0000001c 	0x1c
 2bc:	00000000 	nop
 2c0:	b800361c 	swr	zero,13852(zero)
 2c4:	0000004c 	syscall	0x1
 2c8:	44100e44 	0x44100e44
 2cc:	0d44019e 	jal	5100678 <Interrupt-0xb2effb08>
 2d0:	1d0d6c1e 	0x1d0d6c1e
 2d4:	000ede4c 	syscall	0x3b79
 2d8:	0000001c 	0x1c
 2dc:	00000000 	nop
 2e0:	b8003668 	swr	zero,13928(zero)
 2e4:	00000040 	ssnop
 2e8:	44080e44 	0x44080e44
 2ec:	0d44019e 	jal	5100678 <Interrupt-0xb2effb08>
 2f0:	1d0d601e 	0x1d0d601e
 2f4:	000ede4c 	syscall	0x3b79
 2f8:	00000024 	and	zero,zero,zero
 2fc:	00000000 	nop
 300:	b80036a8 	swr	zero,13992(zero)
 304:	00000130 	tge	zero,zero,0x4
 308:	48280e44 	0x48280e44
 30c:	029e019f 	0x29e019f
 310:	031e0d44 	0x31e0d44
 314:	1d0d0104 	0x1d0d0104
 318:	0edfde54 	jal	b7f7950 <Interrupt-0xac808830>
 31c:	00000000 	nop
 320:	00000024 	and	zero,zero,zero
 324:	00000000 	nop
 328:	b80037d8 	swr	zero,14296(zero)
 32c:	00000190 	0x190
 330:	48200e44 	0x48200e44
 334:	029e019f 	0x29e019f
 338:	031e0d44 	0x31e0d44
 33c:	1d0d0164 	0x1d0d0164
 340:	0edfde54 	jal	b7f7950 <Interrupt-0xac808830>
 344:	00000000 	nop
 348:	00000020 	add	zero,zero,zero
 34c:	00000000 	nop
 350:	b8003968 	swr	zero,14696(zero)
 354:	000000e4 	0xe4
 358:	44100e44 	0x44100e44
 35c:	0d44019e 	jal	5100678 <Interrupt-0xb2effb08>
 360:	0dc4021e 	jal	7100878 <Interrupt-0xb0eff908>
 364:	0ede4c1d 	jal	b793074 <Interrupt-0xac86d10c>
 368:	00000000 	nop
 36c:	00000020 	add	zero,zero,zero
 370:	00000000 	nop
 374:	b8003a4c 	swr	zero,14924(zero)
 378:	000000c0 	ehb
 37c:	44100e44 	0x44100e44
 380:	0d44019e 	jal	5100678 <Interrupt-0xb2effb08>
 384:	0da0021e 	jal	6800878 <Interrupt-0xb17ff908>
 388:	0ede4c1d 	jal	b793074 <Interrupt-0xac86d10c>
 38c:	00000000 	nop
 390:	00000020 	add	zero,zero,zero
 394:	00000000 	nop
 398:	b8003b0c 	swr	zero,15116(zero)
 39c:	000000c0 	ehb
 3a0:	44100e44 	0x44100e44
 3a4:	0d44019e 	jal	5100678 <Interrupt-0xb2effb08>
 3a8:	0da0021e 	jal	6800878 <Interrupt-0xb17ff908>
 3ac:	0ede4c1d 	jal	b793074 <Interrupt-0xac86d10c>
 3b0:	00000000 	nop
 3b4:	00000020 	add	zero,zero,zero
 3b8:	00000000 	nop
 3bc:	b8003bcc 	swr	zero,15308(zero)
 3c0:	0000006c 	0x6c
 3c4:	44080e44 	0x44080e44
 3c8:	0d44019e 	jal	5100678 <Interrupt-0xb2effb08>
 3cc:	0d4c021e 	jal	5300878 <Interrupt-0xb2cff908>
 3d0:	0ede4c1d 	jal	b793074 <Interrupt-0xac86d10c>
 3d4:	00000000 	nop
 3d8:	00000020 	add	zero,zero,zero
 3dc:	00000000 	nop
 3e0:	b8003c38 	swr	zero,15416(zero)
 3e4:	00000068 	0x68
 3e8:	44100e44 	0x44100e44
 3ec:	0d44019e 	jal	5100678 <Interrupt-0xb2effb08>
 3f0:	0d48021e 	jal	5200878 <Interrupt-0xb2dff908>
 3f4:	0ede4c1d 	jal	b793074 <Interrupt-0xac86d10c>
 3f8:	00000000 	nop
 3fc:	00000020 	add	zero,zero,zero
 400:	00000000 	nop
 404:	b8003ca0 	swr	zero,15520(zero)
 408:	00000090 	0x90
 40c:	48180e44 	0x48180e44
 410:	029e019f 	0x29e019f
 414:	021e0d44 	0x21e0d44
 418:	541d0d64 	bnel	zero,sp,39ac <Interrupt-0xb7ffc7d4>
 41c:	000edfde 	0xedfde
 420:	00000020 	add	zero,zero,zero
 424:	00000000 	nop
 428:	b8003d30 	swr	zero,15664(zero)
 42c:	000000ac 	0xac
 430:	48200e44 	0x48200e44
 434:	029e019f 	0x29e019f
 438:	021e0d44 	0x21e0d44
 43c:	541d0d80 	bnel	zero,sp,3a40 <Interrupt-0xb7ffc740>
 440:	000edfde 	0xedfde
 444:	00000020 	add	zero,zero,zero
 448:	00000000 	nop
 44c:	b8003ddc 	swr	zero,15836(zero)
 450:	00000088 	0x88
 454:	48180e44 	0x48180e44
 458:	029e019f 	0x29e019f
 45c:	021e0d44 	0x21e0d44
 460:	541d0d5c 	bnel	zero,sp,39d4 <Interrupt-0xb7ffc7ac>
 464:	000edfde 	0xedfde
 468:	00000020 	add	zero,zero,zero
 46c:	00000000 	nop
 470:	b8003e64 	swr	zero,15972(zero)
 474:	00000080 	sll	zero,zero,0x2
 478:	48180e44 	0x48180e44
 47c:	029e019f 	0x29e019f
 480:	021e0d44 	0x21e0d44
 484:	541d0d54 	bnel	zero,sp,39d8 <Interrupt-0xb7ffc7a8>
 488:	000edfde 	0xedfde
 48c:	00000020 	add	zero,zero,zero
 490:	00000000 	nop
 494:	b8003ee4 	swr	zero,16100(zero)
 498:	00000070 	tge	zero,zero,0x1
 49c:	48180e44 	0x48180e44
 4a0:	029e019f 	0x29e019f
 4a4:	021e0d44 	0x21e0d44
 4a8:	541d0d44 	bnel	zero,sp,39bc <Interrupt-0xb7ffc7c4>
 4ac:	000edfde 	0xedfde
 4b0:	00000020 	add	zero,zero,zero
 4b4:	00000000 	nop
 4b8:	b8003f54 	swr	zero,16212(zero)
 4bc:	00000078 	0x78
 4c0:	48180e44 	0x48180e44
 4c4:	029e019f 	0x29e019f
 4c8:	021e0d44 	0x21e0d44
 4cc:	541d0d4c 	bnel	zero,sp,3a00 <Interrupt-0xb7ffc780>
 4d0:	000edfde 	0xedfde
 4d4:	0000001c 	0x1c
 4d8:	00000000 	nop
 4dc:	b8003fcc 	swr	zero,16332(zero)
 4e0:	00000048 	0x48
 4e4:	44080e44 	0x44080e44
 4e8:	0d44019e 	jal	5100678 <Interrupt-0xb2effb08>
 4ec:	1d0d681e 	0x1d0d681e
 4f0:	000ede4c 	syscall	0x3b79
 4f4:	00000020 	add	zero,zero,zero
 4f8:	00000000 	nop
 4fc:	b8004014 	swr	zero,16404(zero)
 500:	000000c4 	0xc4
 504:	44100e44 	0x44100e44
 508:	0d44019e 	jal	5100678 <Interrupt-0xb2effb08>
 50c:	0da4021e 	jal	6900878 <Interrupt-0xb16ff908>
 510:	0ede4c1d 	jal	b793074 <Interrupt-0xac86d10c>
 514:	00000000 	nop
 518:	00000024 	and	zero,zero,zero
 51c:	00000000 	nop
 520:	b80040d8 	swr	zero,16600(zero)
 524:	00000180 	sll	zero,zero,0x6
 528:	4c280e44 	0x4c280e44
 52c:	029e019f 	0x29e019f
 530:	0d440390 	jal	5100e40 <Interrupt-0xb2eff340>
 534:	0148031e 	0x148031e
 538:	d05c1d0d 	0xd05c1d0d
 53c:	000edfde 	0xedfde
 540:	00000020 	add	zero,zero,zero
 544:	00000000 	nop
 548:	b8004258 	swr	zero,16984(zero)
 54c:	00000094 	0x94
 550:	44100e44 	0x44100e44
 554:	0d44019e 	jal	5100678 <Interrupt-0xb2effb08>
 558:	0d74021e 	jal	5d00878 <Interrupt-0xb22ff908>
 55c:	0ede4c1d 	jal	b793074 <Interrupt-0xac86d10c>
 560:	00000000 	nop
 564:	00000020 	add	zero,zero,zero
 568:	00000000 	nop
 56c:	b80042ec 	swr	zero,17132(zero)
 570:	0000029c 	0x29c
 574:	44080e44 	0x44080e44
 578:	0d44019e 	jal	5100678 <Interrupt-0xb2effb08>
 57c:	027c031e 	0x27c031e
 580:	de4c1d0d 	ldc3	$12,7437(s2)
 584:	0000000e 	0xe
 588:	00000020 	add	zero,zero,zero
 58c:	00000000 	nop
 590:	b8004588 	swr	zero,17800(zero)
 594:	0000029c 	0x29c
 598:	44080e44 	0x44080e44
 59c:	0d44019e 	jal	5100678 <Interrupt-0xb2effb08>
 5a0:	027c031e 	0x27c031e
 5a4:	de4c1d0d 	ldc3	$12,7437(s2)
 5a8:	0000000e 	0xe
 5ac:	00000020 	add	zero,zero,zero
 5b0:	00000000 	nop
 5b4:	b8004824 	swr	zero,18468(zero)
 5b8:	000000fc 	0xfc
 5bc:	44080e44 	0x44080e44
 5c0:	0d44019e 	jal	5100678 <Interrupt-0xb2effb08>
 5c4:	0ddc021e 	jal	7700878 <Interrupt-0xb08ff908>
 5c8:	0ede4c1d 	jal	b793074 <Interrupt-0xac86d10c>
 5cc:	00000000 	nop
 5d0:	0000001c 	0x1c
 5d4:	00000000 	nop
 5d8:	b8004920 	swr	zero,18720(zero)
 5dc:	00000034 	teq	zero,zero
 5e0:	44080e44 	0x44080e44
 5e4:	0d44019e 	jal	5100678 <Interrupt-0xb2effb08>
 5e8:	1d0d541e 	0x1d0d541e
 5ec:	000ede4c 	syscall	0x3b79
 5f0:	0000001c 	0x1c
 5f4:	00000000 	nop
 5f8:	b8004954 	swr	zero,18772(zero)
 5fc:	00000024 	and	zero,zero,zero
 600:	44080e44 	0x44080e44
 604:	0d44019e 	jal	5100678 <Interrupt-0xb2effb08>
 608:	1d0d441e 	0x1d0d441e
 60c:	000ede4c 	syscall	0x3b79
 610:	0000001c 	0x1c
 614:	00000000 	nop
 618:	b8004978 	swr	zero,18808(zero)
 61c:	00000048 	0x48
 620:	44080e44 	0x44080e44
 624:	0d44019e 	jal	5100678 <Interrupt-0xb2effb08>
 628:	1d0d681e 	0x1d0d681e
 62c:	000ede4c 	syscall	0x3b79
 630:	0000001c 	0x1c
 634:	00000000 	nop
 638:	b80049c0 	swr	zero,18880(zero)
 63c:	00000048 	0x48
 640:	44080e44 	0x44080e44
 644:	0d44019e 	jal	5100678 <Interrupt-0xb2effb08>
 648:	1d0d681e 	0x1d0d681e
 64c:	000ede4c 	syscall	0x3b79
 650:	00000020 	add	zero,zero,zero
 654:	00000000 	nop
 658:	b8004a08 	swr	zero,18952(zero)
 65c:	0000009c 	0x9c
 660:	44100e44 	0x44100e44
 664:	0d44019e 	jal	5100678 <Interrupt-0xb2effb08>
 668:	0d7c021e 	jal	5f00878 <Interrupt-0xb20ff908>
 66c:	0ede4c1d 	jal	b793074 <Interrupt-0xac86d10c>
 670:	00000000 	nop
 674:	00000020 	add	zero,zero,zero
 678:	00000000 	nop
 67c:	b8004aa4 	swr	zero,19108(zero)
 680:	000000e8 	0xe8
 684:	44080e44 	0x44080e44
 688:	0d44019e 	jal	5100678 <Interrupt-0xb2effb08>
 68c:	0dc8021e 	jal	7200878 <Interrupt-0xb0dff908>
 690:	0ede4c1d 	jal	b793074 <Interrupt-0xac86d10c>
 694:	00000000 	nop
 698:	0000001c 	0x1c
 69c:	00000000 	nop
 6a0:	b8004b8c 	swr	zero,19340(zero)
 6a4:	00000050 	0x50
 6a8:	44080e44 	0x44080e44
 6ac:	0d44019e 	jal	5100678 <Interrupt-0xb2effb08>
 6b0:	1d0d701e 	0x1d0d701e
 6b4:	000ede4c 	syscall	0x3b79
 6b8:	0000001c 	0x1c
 6bc:	00000000 	nop
 6c0:	b8004bdc 	swr	zero,19420(zero)
 6c4:	00000050 	0x50
 6c8:	44080e44 	0x44080e44
 6cc:	0d44019e 	jal	5100678 <Interrupt-0xb2effb08>
 6d0:	1d0d701e 	0x1d0d701e
 6d4:	000ede4c 	syscall	0x3b79
 6d8:	00000020 	add	zero,zero,zero
 6dc:	00000000 	nop
 6e0:	b8004c2c 	swr	zero,19500(zero)
 6e4:	0000012c 	0x12c
 6e8:	44100e44 	0x44100e44
 6ec:	0d44019e 	jal	5100678 <Interrupt-0xb2effb08>
 6f0:	010c031e 	0x10c031e
 6f4:	de4c1d0d 	ldc3	$12,7437(s2)
 6f8:	0000000e 	0xe
 6fc:	00000020 	add	zero,zero,zero
 700:	00000000 	nop
 704:	b8004d58 	swr	zero,19800(zero)
 708:	00000070 	tge	zero,zero,0x1
 70c:	44080e44 	0x44080e44
 710:	0d44019e 	jal	5100678 <Interrupt-0xb2effb08>
 714:	0d50021e 	jal	5400878 <Interrupt-0xb2bff908>
 718:	0ede4c1d 	jal	b793074 <Interrupt-0xac86d10c>
 71c:	00000000 	nop
 720:	00000020 	add	zero,zero,zero
 724:	00000000 	nop
 728:	b8004dc8 	swr	zero,19912(zero)
 72c:	00000074 	teq	zero,zero,0x1
 730:	44100e44 	0x44100e44
 734:	0d44019e 	jal	5100678 <Interrupt-0xb2effb08>
 738:	0d54021e 	jal	5500878 <Interrupt-0xb2aff908>
 73c:	0ede4c1d 	jal	b793074 <Interrupt-0xac86d10c>
 740:	00000000 	nop
 744:	00000020 	add	zero,zero,zero
 748:	00000000 	nop
 74c:	b8004e3c 	swr	zero,20028(zero)
 750:	000000b4 	teq	zero,zero,0x2
 754:	44080e44 	0x44080e44
 758:	0d44019e 	jal	5100678 <Interrupt-0xb2effb08>
 75c:	0d94021e 	jal	6500878 <Interrupt-0xb1aff908>
 760:	0ede4c1d 	jal	b793074 <Interrupt-0xac86d10c>
 764:	00000000 	nop
 768:	00000020 	add	zero,zero,zero
 76c:	00000000 	nop
 770:	b8004ef0 	swr	zero,20208(zero)
 774:	000000b4 	teq	zero,zero,0x2
 778:	44080e44 	0x44080e44
 77c:	0d44019e 	jal	5100678 <Interrupt-0xb2effb08>
 780:	0d94021e 	jal	6500878 <Interrupt-0xb1aff908>
 784:	0ede4c1d 	jal	b793074 <Interrupt-0xac86d10c>
 788:	00000000 	nop
 78c:	0000001c 	0x1c
 790:	00000000 	nop
 794:	b8004fa4 	swr	zero,20388(zero)
 798:	0000002c 	0x2c
 79c:	44080e44 	0x44080e44
 7a0:	0d44019e 	jal	5100678 <Interrupt-0xb2effb08>
 7a4:	1d0d4c1e 	0x1d0d4c1e
 7a8:	000ede4c 	syscall	0x3b79
 7ac:	00000020 	add	zero,zero,zero
 7b0:	00000000 	nop
 7b4:	b8004fd0 	swr	zero,20432(zero)
 7b8:	000000f8 	0xf8
 7bc:	48180e44 	0x48180e44
 7c0:	029e019f 	0x29e019f
 7c4:	021e0d44 	0x21e0d44
 7c8:	541d0dcc 	bnel	zero,sp,3efc <Interrupt-0xb7ffc284>
 7cc:	000edfde 	0xedfde
 7d0:	00000020 	add	zero,zero,zero
 7d4:	00000000 	nop
 7d8:	b80050c8 	swr	zero,20680(zero)
 7dc:	000000f8 	0xf8
 7e0:	48180e44 	0x48180e44
 7e4:	029e019f 	0x29e019f
 7e8:	021e0d44 	0x21e0d44
 7ec:	541d0dcc 	bnel	zero,sp,3f20 <Interrupt-0xb7ffc260>
 7f0:	000edfde 	0xedfde
 7f4:	0000003c 	0x3c
 7f8:	00000000 	nop
 7fc:	b80051c0 	swr	zero,20928(zero)
 800:	000003b0 	tge	zero,zero,0xe
 804:	68480e44 	0x68480e44
 808:	029e019f 	0x29e019f
 80c:	04960397 	0x4960397
 810:	06940595 	0x6940595
 814:	08920793 	j	2481e4c <Interrupt-0xb5b7e334>
 818:	0a900991 	j	a402644 <Interrupt-0xadbfdb3c>
 81c:	031e0d44 	0x31e0d44
 820:	1d0d0324 	0x1d0d0324
 824:	d1d05402 	0xd1d05402
 828:	d5d4d3d2 	ldc1	$f20,-11310(t6)
 82c:	dfded7d6 	ldc3	$30,-10282(s8)
 830:	0000000e 	0xe
 834:	0000001c 	0x1c
 838:	00000000 	nop
 83c:	b8005570 	swr	zero,21872(zero)
 840:	00000024 	and	zero,zero,zero
 844:	44080e44 	0x44080e44
 848:	0d44019e 	jal	5100678 <Interrupt-0xb2effb08>
 84c:	1d0d441e 	0x1d0d441e
 850:	000ede4c 	syscall	0x3b79
 854:	00000024 	and	zero,zero,zero
 858:	00000000 	nop
 85c:	b8005594 	swr	zero,21908(zero)
 860:	00001188 	0x1188
 864:	48300e44 	0x48300e44
 868:	029e019f 	0x29e019f
 86c:	031e0d44 	0x31e0d44
 870:	1d0d115c 	0x1d0d115c
 874:	0edfde54 	jal	b7f7950 <Interrupt-0xac808830>
 878:	00000000 	nop
 87c:	00000020 	add	zero,zero,zero
 880:	00000000 	nop
 884:	b800671c 	swr	zero,26396(zero)
 888:	00000074 	teq	zero,zero,0x1
 88c:	44080e44 	0x44080e44
 890:	0d44019e 	jal	5100678 <Interrupt-0xb2effb08>
 894:	0d54021e 	jal	5500878 <Interrupt-0xb2aff908>
 898:	0ede4c1d 	jal	b793074 <Interrupt-0xac86d10c>
 89c:	00000000 	nop
 8a0:	00000020 	add	zero,zero,zero
 8a4:	00000000 	nop
 8a8:	b8006790 	swr	zero,26512(zero)
 8ac:	000000e4 	0xe4
 8b0:	44080e44 	0x44080e44
 8b4:	0d44019e 	jal	5100678 <Interrupt-0xb2effb08>
 8b8:	0dc4021e 	jal	7100878 <Interrupt-0xb0eff908>
 8bc:	0ede4c1d 	jal	b793074 <Interrupt-0xac86d10c>
 8c0:	00000000 	nop
 8c4:	00000020 	add	zero,zero,zero
 8c8:	00000000 	nop
 8cc:	b8006874 	swr	zero,26740(zero)
 8d0:	00000094 	0x94
 8d4:	44100e44 	0x44100e44
 8d8:	0d44019e 	jal	5100678 <Interrupt-0xb2effb08>
 8dc:	0d74021e 	jal	5d00878 <Interrupt-0xb22ff908>
 8e0:	0ede4c1d 	jal	b793074 <Interrupt-0xac86d10c>
 8e4:	00000000 	nop
 8e8:	00000020 	add	zero,zero,zero
 8ec:	00000000 	nop
 8f0:	b8006908 	swr	zero,26888(zero)
 8f4:	00000090 	0x90
 8f8:	48200e44 	0x48200e44
 8fc:	029e019f 	0x29e019f
 900:	021e0d44 	0x21e0d44
 904:	541d0d64 	bnel	zero,sp,3e98 <Interrupt-0xb7ffc2e8>
 908:	000edfde 	0xedfde
 90c:	00000020 	add	zero,zero,zero
 910:	00000000 	nop
 914:	b8006998 	swr	zero,27032(zero)
 918:	00000090 	0x90
 91c:	48200e44 	0x48200e44
 920:	029e019f 	0x29e019f
 924:	021e0d44 	0x21e0d44
 928:	541d0d64 	bnel	zero,sp,3ebc <Interrupt-0xb7ffc2c4>
 92c:	000edfde 	0xedfde
 930:	00000020 	add	zero,zero,zero
 934:	00000000 	nop
 938:	b8006a28 	swr	zero,27176(zero)
 93c:	00000124 	0x124
 940:	44080e44 	0x44080e44
 944:	0d44019e 	jal	5100678 <Interrupt-0xb2effb08>
 948:	0104031e 	0x104031e
 94c:	de4c1d0d 	ldc3	$12,7437(s2)
 950:	0000000e 	0xe
 954:	00000024 	and	zero,zero,zero
 958:	00000000 	nop
 95c:	b8006b4c 	swr	zero,27468(zero)
 960:	00000bf0 	tge	zero,zero,0x2f
 964:	48200e44 	0x48200e44
 968:	029e019f 	0x29e019f
 96c:	031e0d44 	0x31e0d44
 970:	1d0d0bc4 	0x1d0d0bc4
 974:	0edfde54 	jal	b7f7950 <Interrupt-0xac808830>
 978:	00000000 	nop
 97c:	00000024 	and	zero,zero,zero
 980:	00000000 	nop
 984:	b800773c 	swr	zero,30524(zero)
 988:	00000578 	0x578
 98c:	48200e44 	0x48200e44
 990:	029e019f 	0x29e019f
 994:	031e0d44 	0x31e0d44
 998:	1d0d054c 	0x1d0d054c
 99c:	0edfde54 	jal	b7f7950 <Interrupt-0xac808830>
 9a0:	00000000 	nop
 9a4:	00000020 	add	zero,zero,zero
 9a8:	00000000 	nop
 9ac:	b8007cb4 	swr	zero,31924(zero)
 9b0:	00000100 	sll	zero,zero,0x4
 9b4:	48380e44 	0x48380e44
 9b8:	029e019f 	0x29e019f
 9bc:	021e0d44 	0x21e0d44
 9c0:	541d0dd4 	bnel	zero,sp,4114 <Interrupt-0xb7ffc06c>
 9c4:	000edfde 	0xedfde
 9c8:	0000001c 	0x1c
 9cc:	00000000 	nop
 9d0:	b8007db4 	swr	zero,32180(zero)
 9d4:	00000058 	0x58
 9d8:	44100e44 	0x44100e44
 9dc:	0d44019e 	jal	5100678 <Interrupt-0xb2effb08>
 9e0:	1d0d781e 	0x1d0d781e
 9e4:	000ede4c 	syscall	0x3b79
 9e8:	00000020 	add	zero,zero,zero
 9ec:	00000000 	nop
 9f0:	b8007e0c 	swr	zero,32268(zero)
 9f4:	00000154 	0x154
 9f8:	01900e44 	0x1900e44
 9fc:	44019e44 	0x44019e44
 a00:	34031e0d 	li	v1,0x1e0d
 a04:	4c1d0d01 	0x4c1d0d01
 a08:	00000ede 	0xede
 a0c:	00000020 	add	zero,zero,zero
 a10:	00000000 	nop
 a14:	b8007f60 	swr	zero,32608(zero)
 a18:	00000158 	0x158
 a1c:	01900e44 	0x1900e44
 a20:	44019e44 	0x44019e44
 a24:	38031e0d 	xori	v1,zero,0x1e0d
 a28:	4c1d0d01 	0x4c1d0d01
 a2c:	00000ede 	0xede
 a30:	00000024 	and	zero,zero,zero
 a34:	00000000 	nop
 a38:	b80080b8 	swr	zero,-32584(zero)
 a3c:	00000150 	0x150
 a40:	48180e44 	0x48180e44
 a44:	029e019f 	0x29e019f
 a48:	031e0d44 	0x31e0d44
 a4c:	1d0d0124 	0x1d0d0124
 a50:	0edfde54 	jal	b7f7950 <Interrupt-0xac808830>
 a54:	00000000 	nop
 a58:	00000018 	mult	zero,zero
 a5c:	00000000 	nop
 a60:	b8008208 	swr	zero,-32248(zero)
 a64:	000005dc 	0x5dc
 a68:	48500e44 	0x48500e44
 a6c:	029e019f 	0x29e019f
 a70:	001e0d44 	0x1e0d44
 a74:	0000000c 	syscall
 a78:	ffffffff 	sdc3	$31,-1(ra)
 a7c:	7c010001 	0x7c010001
 a80:	001d0d1f 	0x1d0d1f
 a84:	00000020 	add	zero,zero,zero
 a88:	00000a74 	teq	zero,zero,0x29
 a8c:	b80087e4 	swr	zero,-30748(zero)
 a90:	000000cc 	syscall	0x3
 a94:	44080e44 	0x44080e44
 a98:	0d44019e 	jal	5100678 <Interrupt-0xb2effb08>
 a9c:	0dac021e 	jal	6b00878 <Interrupt-0xb14ff908>
 aa0:	0ede4c1d 	jal	b793074 <Interrupt-0xac86d10c>
 aa4:	00000000 	nop
 aa8:	0000001c 	0x1c
 aac:	00000a74 	teq	zero,zero,0x29
 ab0:	b80088b0 	swr	zero,-30544(zero)
 ab4:	00000050 	0x50
 ab8:	44080e44 	0x44080e44
 abc:	0d44019e 	jal	5100678 <Interrupt-0xb2effb08>
 ac0:	1d0d701e 	0x1d0d701e
 ac4:	000ede4c 	syscall	0x3b79
 ac8:	00000020 	add	zero,zero,zero
 acc:	00000a74 	teq	zero,zero,0x29
 ad0:	b8008900 	swr	zero,-30464(zero)
 ad4:	00000074 	teq	zero,zero,0x1
 ad8:	44080e44 	0x44080e44
 adc:	0d44019e 	jal	5100678 <Interrupt-0xb2effb08>
 ae0:	0d54021e 	jal	5500878 <Interrupt-0xb2aff908>
 ae4:	0ede4c1d 	jal	b793074 <Interrupt-0xac86d10c>
 ae8:	00000000 	nop
 aec:	00000020 	add	zero,zero,zero
 af0:	00000a74 	teq	zero,zero,0x29
 af4:	b8008974 	swr	zero,-30348(zero)
 af8:	000000c0 	ehb
 afc:	44100e44 	0x44100e44
 b00:	0d44019e 	jal	5100678 <Interrupt-0xb2effb08>
 b04:	0da0021e 	jal	6800878 <Interrupt-0xb17ff908>
 b08:	0ede4c1d 	jal	b793074 <Interrupt-0xac86d10c>
 b0c:	00000000 	nop
 b10:	00000024 	and	zero,zero,zero
 b14:	00000a74 	teq	zero,zero,0x29
 b18:	b8008a34 	swr	zero,-30156(zero)
 b1c:	0000021c 	0x21c
 b20:	4c280e44 	0x4c280e44
 b24:	029e019f 	0x29e019f
 b28:	0d440390 	jal	5100e40 <Interrupt-0xb2eff340>
 b2c:	01e4031e 	0x1e4031e
 b30:	d05c1d0d 	0xd05c1d0d
 b34:	000edfde 	0xedfde
 b38:	00000020 	add	zero,zero,zero
 b3c:	00000a74 	teq	zero,zero,0x29
 b40:	b8008c50 	swr	zero,-29616(zero)
 b44:	000000c8 	0xc8
 b48:	48200e44 	0x48200e44
 b4c:	029e019f 	0x29e019f
 b50:	021e0d44 	0x21e0d44
 b54:	541d0d9c 	bnel	zero,sp,41c8 <Interrupt-0xb7ffbfb8>
 b58:	000edfde 	0xedfde
 b5c:	00000024 	and	zero,zero,zero
 b60:	00000a74 	teq	zero,zero,0x29
 b64:	b8008d18 	swr	zero,-29416(zero)
 b68:	0000010c 	syscall	0x4
 b6c:	4c200e44 	0x4c200e44
 b70:	029e019f 	0x29e019f
 b74:	0d440390 	jal	5100e40 <Interrupt-0xb2eff340>
 b78:	0dd4021e 	jal	7500878 <Interrupt-0xb0aff908>
 b7c:	ded05c1d 	ldc3	$16,23581(s6)
 b80:	00000edf 	0xedf
 b84:	00000024 	and	zero,zero,zero
 b88:	00000a74 	teq	zero,zero,0x29
 b8c:	b8008e24 	swr	zero,-29148(zero)
 b90:	0000012c 	0x12c
 b94:	4c280e44 	0x4c280e44
 b98:	029e019f 	0x29e019f
 b9c:	0d440390 	jal	5100e40 <Interrupt-0xb2eff340>
 ba0:	0df4021e 	jal	7d00878 <Interrupt-0xb02ff908>
 ba4:	ded05c1d 	ldc3	$16,23581(s6)
 ba8:	00000edf 	0xedf
 bac:	0000000c 	syscall
 bb0:	ffffffff 	sdc3	$31,-1(ra)
 bb4:	7c010001 	0x7c010001
 bb8:	001d0d1f 	0x1d0d1f
 bbc:	00000020 	add	zero,zero,zero
 bc0:	00000bac 	0xbac
 bc4:	b8008f50 	swr	zero,-28848(zero)
 bc8:	00000090 	0x90
 bcc:	44080e44 	0x44080e44
 bd0:	0d44019e 	jal	5100678 <Interrupt-0xb2effb08>
 bd4:	0d70021e 	jal	5c00878 <Interrupt-0xb23ff908>
 bd8:	0ede4c1d 	jal	b793074 <Interrupt-0xac86d10c>
 bdc:	00000000 	nop
 be0:	00000020 	add	zero,zero,zero
 be4:	00000bac 	0xbac
 be8:	b8008fe0 	swr	zero,-28704(zero)
 bec:	000000d4 	0xd4
 bf0:	48180e44 	0x48180e44
 bf4:	029e019f 	0x29e019f
 bf8:	021e0d44 	0x21e0d44
 bfc:	541d0da8 	bnel	zero,sp,42a0 <Interrupt-0xb7ffbee0>
 c00:	000edfde 	0xedfde
 c04:	00000020 	add	zero,zero,zero
 c08:	00000bac 	0xbac
 c0c:	b80090b4 	swr	zero,-28492(zero)
 c10:	00000078 	0x78
 c14:	44080e44 	0x44080e44
 c18:	0d44019e 	jal	5100678 <Interrupt-0xb2effb08>
 c1c:	0d58021e 	jal	5600878 <Interrupt-0xb29ff908>
 c20:	0ede4c1d 	jal	b793074 <Interrupt-0xac86d10c>
 c24:	00000000 	nop
 c28:	00000020 	add	zero,zero,zero
 c2c:	00000bac 	0xbac
 c30:	b800912c 	swr	zero,-28372(zero)
 c34:	0000007c 	0x7c
 c38:	44080e44 	0x44080e44
 c3c:	0d44019e 	jal	5100678 <Interrupt-0xb2effb08>
 c40:	0d5c021e 	jal	5700878 <Interrupt-0xb28ff908>
 c44:	0ede4c1d 	jal	b793074 <Interrupt-0xac86d10c>
 c48:	00000000 	nop
 c4c:	0000000c 	syscall
 c50:	ffffffff 	sdc3	$31,-1(ra)
 c54:	7c010001 	0x7c010001
 c58:	001d0d1f 	0x1d0d1f
 c5c:	00000020 	add	zero,zero,zero
 c60:	00000c4c 	syscall	0x31
 c64:	b80091a8 	swr	zero,-28248(zero)
 c68:	00000080 	sll	zero,zero,0x2
 c6c:	44100e44 	0x44100e44
 c70:	0d44019e 	jal	5100678 <Interrupt-0xb2effb08>
 c74:	0d60021e 	jal	5800878 <Interrupt-0xb27ff908>
 c78:	0ede4c1d 	jal	b793074 <Interrupt-0xac86d10c>
 c7c:	00000000 	nop
 c80:	00000020 	add	zero,zero,zero
 c84:	00000c4c 	syscall	0x31
 c88:	b8009228 	swr	zero,-28120(zero)
 c8c:	000001a8 	0x1a8
 c90:	44100e44 	0x44100e44
 c94:	0d44019e 	jal	5100678 <Interrupt-0xb2effb08>
 c98:	0188031e 	0x188031e
 c9c:	de4c1d0d 	ldc3	$12,7437(s2)
 ca0:	0000000e 	0xe
 ca4:	00000020 	add	zero,zero,zero
 ca8:	00000c4c 	syscall	0x31
 cac:	b80093d0 	swr	zero,-27696(zero)
 cb0:	0000013c 	0x13c
 cb4:	44100e44 	0x44100e44
 cb8:	0d44019e 	jal	5100678 <Interrupt-0xb2effb08>
 cbc:	011c031e 	0x11c031e
 cc0:	de4c1d0d 	ldc3	$12,7437(s2)
 cc4:	0000000e 	0xe
 cc8:	00000020 	add	zero,zero,zero
 ccc:	00000c4c 	syscall	0x31
 cd0:	b800950c 	swr	zero,-27380(zero)
 cd4:	00000120 	0x120
 cd8:	44080e44 	0x44080e44
 cdc:	0d44019e 	jal	5100678 <Interrupt-0xb2effb08>
 ce0:	0100031e 	0x100031e
 ce4:	de4c1d0d 	ldc3	$12,7437(s2)
 ce8:	0000000e 	0xe
 cec:	00000024 	and	zero,zero,zero
 cf0:	00000c4c 	syscall	0x31
 cf4:	b800962c 	swr	zero,-27092(zero)
 cf8:	000008f4 	teq	zero,zero,0x23
 cfc:	48200e44 	0x48200e44
 d00:	029e019f 	0x29e019f
 d04:	031e0d44 	0x31e0d44
 d08:	1d0d08c8 	0x1d0d08c8
 d0c:	0edfde54 	jal	b7f7950 <Interrupt-0xac808830>
 d10:	00000000 	nop
 d14:	00000024 	and	zero,zero,zero
 d18:	00000c4c 	syscall	0x31
 d1c:	b8009f20 	swr	zero,-24800(zero)
 d20:	000007ac 	0x7ac
 d24:	48200e44 	0x48200e44
 d28:	029e019f 	0x29e019f
 d2c:	031e0d44 	0x31e0d44
 d30:	1d0d0780 	0x1d0d0780
 d34:	0edfde54 	jal	b7f7950 <Interrupt-0xac808830>
 d38:	00000000 	nop
 d3c:	0000001c 	0x1c
 d40:	00000c4c 	syscall	0x31
 d44:	b800a6cc 	swr	zero,-22836(zero)
 d48:	00000050 	0x50
 d4c:	44100e44 	0x44100e44
 d50:	0d44019e 	jal	5100678 <Interrupt-0xb2effb08>
 d54:	1d0d701e 	0x1d0d701e
 d58:	000ede4c 	syscall	0x3b79
 d5c:	0000001c 	0x1c
 d60:	00000c4c 	syscall	0x31
 d64:	b800a71c 	swr	zero,-22756(zero)
 d68:	0000004c 	syscall	0x1
 d6c:	44100e44 	0x44100e44
 d70:	0d44019e 	jal	5100678 <Interrupt-0xb2effb08>
 d74:	1d0d6c1e 	0x1d0d6c1e
 d78:	000ede4c 	syscall	0x3b79
 d7c:	00000020 	add	zero,zero,zero
 d80:	00000c4c 	syscall	0x31
 d84:	b800a768 	swr	zero,-22680(zero)
 d88:	0000007c 	0x7c
 d8c:	44080e44 	0x44080e44
 d90:	0d44019e 	jal	5100678 <Interrupt-0xb2effb08>
 d94:	0d5c021e 	jal	5700878 <Interrupt-0xb28ff908>
 d98:	0ede4c1d 	jal	b793074 <Interrupt-0xac86d10c>
 d9c:	00000000 	nop
 da0:	00000020 	add	zero,zero,zero
 da4:	00000c4c 	syscall	0x31
 da8:	b800a7e4 	swr	zero,-22556(zero)
 dac:	00000f7c 	0xf7c
 db0:	44080e44 	0x44080e44
 db4:	0d44019e 	jal	5100678 <Interrupt-0xb2effb08>
 db8:	0f5c031e 	jal	d700c78 <Interrupt-0xaa8ff508>
 dbc:	de4c1d0d 	ldc3	$12,7437(s2)
 dc0:	0000000e 	0xe
 dc4:	00000024 	and	zero,zero,zero
 dc8:	00000c4c 	syscall	0x31
 dcc:	b800b760 	swr	zero,-18592(zero)
 dd0:	00000470 	tge	zero,zero,0x11
 dd4:	48200e44 	0x48200e44
 dd8:	029e019f 	0x29e019f
 ddc:	031e0d44 	0x31e0d44
 de0:	1d0d0444 	0x1d0d0444
 de4:	0edfde54 	jal	b7f7950 <Interrupt-0xac808830>
 de8:	00000000 	nop
 dec:	0000000c 	syscall
 df0:	ffffffff 	sdc3	$31,-1(ra)
 df4:	7c010001 	0x7c010001
 df8:	001d0d1f 	0x1d0d1f
 dfc:	0000001c 	0x1c
 e00:	00000dec 	0xdec
 e04:	b800bbd0 	swr	zero,-17456(zero)
 e08:	0000003c 	0x3c
 e0c:	44080e44 	0x44080e44
 e10:	0d44019e 	jal	5100678 <Interrupt-0xb2effb08>
 e14:	1d0d5c1e 	0x1d0d5c1e
 e18:	000ede4c 	syscall	0x3b79
 e1c:	0000001c 	0x1c
 e20:	00000dec 	0xdec
 e24:	b800bc0c 	swr	zero,-17396(zero)
 e28:	0000003c 	0x3c
 e2c:	44080e44 	0x44080e44
 e30:	0d44019e 	jal	5100678 <Interrupt-0xb2effb08>
 e34:	1d0d5c1e 	0x1d0d5c1e
 e38:	000ede4c 	syscall	0x3b79
 e3c:	0000001c 	0x1c
 e40:	00000dec 	0xdec
 e44:	b800bc48 	swr	zero,-17336(zero)
 e48:	0000003c 	0x3c
 e4c:	44080e44 	0x44080e44
 e50:	0d44019e 	jal	5100678 <Interrupt-0xb2effb08>
 e54:	1d0d5c1e 	0x1d0d5c1e
 e58:	000ede4c 	syscall	0x3b79
 e5c:	0000001c 	0x1c
 e60:	00000dec 	0xdec
 e64:	b800bc84 	swr	zero,-17276(zero)
 e68:	0000003c 	0x3c
 e6c:	44080e44 	0x44080e44
 e70:	0d44019e 	jal	5100678 <Interrupt-0xb2effb08>
 e74:	1d0d5c1e 	0x1d0d5c1e
 e78:	000ede4c 	syscall	0x3b79
 e7c:	00000024 	and	zero,zero,zero
 e80:	00000dec 	0xdec
 e84:	b800bcc0 	swr	zero,-17216(zero)
 e88:	00000140 	sll	zero,zero,0x5
 e8c:	4c280e44 	0x4c280e44
 e90:	029e019f 	0x29e019f
 e94:	0d440390 	jal	5100e40 <Interrupt-0xb2eff340>
 e98:	0108031e 	0x108031e
 e9c:	d05c1d0d 	0xd05c1d0d
 ea0:	000edfde 	0xedfde
 ea4:	0000001c 	0x1c
 ea8:	00000dec 	0xdec
 eac:	b800be00 	swr	zero,-16896(zero)
 eb0:	00000050 	0x50
 eb4:	44080e44 	0x44080e44
 eb8:	0d44019e 	jal	5100678 <Interrupt-0xb2effb08>
 ebc:	1d0d701e 	0x1d0d701e
 ec0:	000ede4c 	syscall	0x3b79
 ec4:	00000020 	add	zero,zero,zero
 ec8:	00000dec 	0xdec
 ecc:	b800be50 	swr	zero,-16816(zero)
 ed0:	00000054 	0x54
 ed4:	48180e44 	0x48180e44
 ed8:	029e019f 	0x29e019f
 edc:	681e0d44 	0x681e0d44
 ee0:	de541d0d 	ldc3	$20,7437(s2)
 ee4:	00000edf 	0xedf
 ee8:	0000001c 	0x1c
 eec:	00000dec 	0xdec
 ef0:	b800bea4 	swr	zero,-16732(zero)
 ef4:	00000048 	0x48
 ef8:	44080e44 	0x44080e44
 efc:	0d44019e 	jal	5100678 <Interrupt-0xb2effb08>
 f00:	1d0d681e 	0x1d0d681e
 f04:	000ede4c 	syscall	0x3b79
 f08:	00000020 	add	zero,zero,zero
 f0c:	00000dec 	0xdec
 f10:	b800beec 	swr	zero,-16660(zero)
 f14:	0000007c 	0x7c
 f18:	48200e44 	0x48200e44
 f1c:	029e019f 	0x29e019f
 f20:	021e0d44 	0x21e0d44
 f24:	541d0d50 	bnel	zero,sp,4468 <Interrupt-0xb7ffbd18>
 f28:	000edfde 	0xedfde
 f2c:	0000001c 	0x1c
 f30:	00000dec 	0xdec
 f34:	b800bf68 	swr	zero,-16536(zero)
 f38:	00000048 	0x48
 f3c:	44080e44 	0x44080e44
 f40:	0d44019e 	jal	5100678 <Interrupt-0xb2effb08>
 f44:	1d0d681e 	0x1d0d681e
 f48:	000ede4c 	syscall	0x3b79

Disassembly of section .debug_ranges:

00000000 <.debug_ranges>:
   0:	00000194 	0x194
   4:	0000019c 	0x19c
   8:	000001a4 	0x1a4
   c:	00000264 	0x264
	...
  18:	00000384 	0x384
  1c:	00000388 	0x388
  20:	0000038c 	syscall	0xe
  24:	00000390 	0x390
  28:	00000398 	0x398
  2c:	0000039c 	0x39c
  30:	000003a4 	0x3a4
  34:	0000045c 	0x45c
  38:	00000460 	0x460
  3c:	00000464 	0x464
	...
  48:	0000045c 	0x45c
  4c:	00000460 	0x460
  50:	00000464 	0x464
  54:	0000046c 	0x46c
	...
